(lp1
(dp2
S'2.3.1.137'
p3
(dp4
sS'2.3.1.61'
p5
(dp6
sS'3.4.21.59'
p7
(dp8
S'PZISISNJNWOBHV-SRBWTXITSA-N'
p9
(lp10
F27.899999999999999
aF40
aF45.899999999999999
aF75.5
asS'GKZWOWMHNGERLN-CAXVJRSRSA-N'
p11
(lp12
F187
asS'DGPYFYSXNOBGJA-ULQDDVLXSA-N'
p13
(lp14
F1.5
aF1.7
aF2.6000000000000001
aF56.399999999999999
aF56.899999999999999
asS'ZNKZJCICBFSACN-GBESFXJTSA-N'
p15
(lp16
F0.83299999999999996
aF7.0999999999999996
aF16.300000000000001
aF21.100000000000001
aF31
asS'KREKWGFJASFREZ-CAVYSCNFSA-N'
p17
(lp18
F1870
asS'CAHPNBROIJUPKS-KBPBESRZSA-N'
p19
(lp20
F9
aF60.600000000000001
aF183
asS'RURQVPPGNRUUJQ-YADHBBJMSA-N'
p21
(lp22
F1.8999999999999999
aF3
aF5.4000000000000004
aF10.300000000000001
asS'ZPQZRIJTQNWNLG-VXKWHMMOSA-N'
p23
(lp24
F551
aF553
asS'TYPQWPWJLCWOBH-BULBTXNYSA-N'
p25
(lp26
F1.1000000000000001
aF3.5
asS'BEIMNCVJDQIXQV-CXVGLUDESA-N'
p27
(lp28
F233
asS'KOXMDCXAOGQNDD-FSSWDIPSSA-N'
p29
(lp30
F2.7999999999999998
aF5
aF5.2000000000000002
aF5.2999999999999998
asS'UZIOHGOHBCERLB-AVWTVUIISA-N'
p31
(lp32
F435
asS'XHTORJWGZKCDGL-FZDIXFNVSA-N'
p33
(lp34
F170
asS'NROAMPWMTUQJDJ-CAVYSCNFSA-N'
p35
(lp36
F1520
asS'LWDRDPHHKLGEFZ-GOTSBHOMSA-N'
p37
(lp38
F45.700000000000003
asS'QZTJLFYMNWYKRD-DOHHORDPSA-N'
p39
(lp40
F0.98999999999999999
aF1.1000000000000001
asS'NRTJWZHOAFLRIR-KRWDZBQOSA-N'
p41
(lp42
F5.3499999999999996
aF5.5199999999999996
asS'STILDCYGNQCTCY-WMBWNXPESA-N'
p43
(lp44
F3.7999999999999998
aF21.75
aF21.800000000000001
asS'RKDYKIHMFYAPMZ-INIZCTEOSA-N'
p45
(lp46
F0.029999999999999999
aF1.6599999999999999
aF2.5099999999999998
aF2.9399999999999999
aF3
aF6.5099999999999998
aF8.9000000000000004
asS'XEXULFKIPLAHKX-IRXDYDNUSA-N'
p47
(lp48
F15.199999999999999
aF22.899999999999999
aF30.5
aF2628
aF2630
asS'YQZQUYLAVZQUOU-ZTVREQDFSA-N'
p49
(lp50
F378
asS'WIBFAXIURSAKDG-MZBJOSPHSA-N'
p51
(lp52
F3290
asS'HBBLFIIXAADAFQ-JYJNAYRXSA-N'
p53
(lp54
F159
asS'RACPARIFVUIBCA-OPXMRZJTSA-N'
p55
(lp56
F2040
asS'NIABVHFJJIKYSC-IBGZPJMESA-N'
p57
(lp58
F104
aF107
asS'ZSBPHDYKXZDSIB-VJBWXMMDSA-N'
p59
(lp60
F24.100000000000001
aF27.100000000000001
aF51
aF59.5
asS'ZSZSULQXRFJMQY-BZSNNMDCSA-N'
p61
(lp62
F141
asS'QUSAVWXTBAPHPC-ZZERCLMESA-N'
p63
(lp64
F199
asS'PDOGUEHPGDTFTJ-LMESLEFPSA-N'
p65
(lp66
F367
asS'HPABFCQYFSWXIO-VXKWHMMOSA-N'
p67
(lp68
F21
asS'XYGHIWQLICRVCI-CQETUWSJSA-N'
p69
(lp70
F0.96999999999999997
aF0.98999999999999999
assS'1.2.1.49'
p71
(dp72
sS'2.7.1.11'
p73
(dp74
S'ZKHQWZAMYRWXGA-KQYNXXCUSA-N'
p75
(lp76
F357
assS'1.5.3.1'
p77
(dp78
sS'2.7.1.15'
p79
(dp80
sS'2.7.1.17'
p81
(dp82
S'LQXVFWRQNMEDEE-OVEKKEMJSA-N'
p83
(lp84
F35
assS'3.4.19.6'
p85
(dp86
sS'1.1.5.3'
p87
(dp88
sS'1.1.3.12'
p89
(dp90
sS'1.1.3.15'
p91
(dp92
S'AEMRFAOFKBGASW-UHFFFAOYSA-N'
p93
(lp94
F3.6000000000000001
aF4.0999999999999996
aF15.6
asS'HHLFWLYXYJOTON-UHFFFAOYSA-N'
p95
(lp96
F0.69999999999999996
aF0.82999999999999996
asS'GPPUPQFYDYLTIY-UHFFFAOYSA-N'
p97
(lp98
F0.080000000000000002
asS'IWYDHOAUDWTVEP-ZETCQYMHSA-N'
p99
(lp100
F0.11
asS'VOCHQRDHMUQBKK-UHFFFAOYSA-N'
p101
(lp102
F54.100000000000001
asS'JVTAAEKCZFNVCJ-REOHCLBHSA-N'
p103
(lp104
F0.46000000000000002
assS'3.1.1.31'
p105
(dp106
sS'4.3.2.1'
p107
(dp108
S'KDZOASGQNOPSCU-WDSKDSINSA-N'
p109
(lp110
F3.2799999999999998
assS'4.3.2.2'
p111
(dp112
sS'3.4.2.1'
p113
(dp114
sS'1.13.11.42'
p115
(dp116
sS'2.4.1.38'
p117
(dp118
S'JWIYLOHVJDJZOQ-KAOXEZKKSA-N'
p119
(lp120
F1.1299999999999999
asS'YYVAVUIQMNEJLY-PAABVCRUSA-N'
p121
(lp122
F1.8999999999999999
asS'DQQDLYVHOTZLOR-OCIMBMBZSA-N'
p123
(lp124
F0.01
asS'LFTYTUAZOPRMMI-UBDZBXRQSA-N'
p125
(lp126
F0.0030000000000000001
asS'BZHXDYSYSZZHQN-KNWYIYEYSA-N'
p127
(lp128
F1.74
asS'RQFQJYYMBWVMQG-IXDPLRRUSA-N'
p129
(lp130
F3.2999999999999998
aF4.8099999999999996
asS'MLJYKRYCCUGBBV-YTWAJWBKSA-N'
p131
(lp132
F1.52
asS'BRSBSUVEMWNECJ-MRQWUTDRSA-N'
p133
(lp134
F3.3500000000000001
asS'MBURVNRWIBQLGI-PEHAHGAZSA-N'
p135
(lp136
F2.4700000000000002
asS'CDOJPCSDOXYJJF-KSKNGZLJSA-N'
p137
(lp138
F4.8200000000000003
asS'HSCJRCZFDFQWRP-JZMIEXBBSA-N'
p139
(lp140
F0.02
asS'HDYANYHVCAPMJV-LXQIFKJMSA-N'
p141
(lp142
F0.0030000000000000001
asS'OVRNDRQMDRJTHS-FMDGEEDCSA-N'
p143
(lp144
F3.6000000000000001
asS'HSCJRCZFDFQWRP-ABVWGUQPSA-N'
p145
(lp146
F1.1399999999999999
assS'2.4.2.2'
p147
(dp148
sS'3.1.4.48'
p149
(dp150
sS'1.17.4.1'
p151
(dp152
sS'3.1.4.46'
p153
(dp154
sS'2.7.1.67'
p155
(dp156
sS'1.16.3.1'
p157
(dp158
sS'3.4.24.15'
p159
(dp160
S'YUDHZPZWTRBRFR-JPRYDEJLSA-N'
p161
(lp162
F0.69999999999999996
asS'PIZMAPGPVJTLQE-DUGSHLAESA-N'
p163
(lp164
F0.40000000000000002
asS'AGXIGKVFHLQKIK-RIKCFSDVSA-N'
p165
(lp166
F0.19
asS'MWNXFRKSLIJEKZ-UJKKYYSESA-N'
p167
(lp168
F1.6000000000000001
asS'CDHXXEKDLLJPCM-KHVQSSSXSA-N'
p169
(lp170
F2.8999999999999999
asS'LWBIRMFHZURSKK-UJKKYYSESA-N'
p171
(lp172
F7
asS'LNMYRVPQOHZRLK-BGBFCPIGSA-N'
p173
(lp174
F4.5
asS'SKLSTVWQRMCXQO-UNHORJANSA-N'
p175
(lp176
F0.29999999999999999
asS'SICSCHPGOPHLDD-SKGSPYGFSA-N'
p177
(lp178
F0.29999999999999999
asS'FZJGJFSIXVSXJC-RRXWZPBSSA-N'
p179
(lp180
F6
asS'YQYMNERJCDLEFV-KHVQSSSXSA-N'
p181
(lp182
F9.0999999999999996
asS'ZYKLBQIMZCUKLV-UNHORJANSA-N'
p183
(lp184
F0.02
asS'GKWIACHEQKKVOR-WGXSSYHUSA-N'
p185
(lp186
F13.300000000000001
asS'UIWJLIUTJXCLOO-SKGSPYGFSA-N'
p187
(lp188
F9.1999999999999993
asS'GCOLKPJQUSVAQJ-DUGSHLAESA-N'
p189
(lp190
F0.029999999999999999
asS'YVEVCAWAPWKCOW-FQEQRRFLSA-N'
p191
(lp192
F5.9000000000000004
asS'OGTNXNNAUDLFKU-MVMYWSRKSA-N'
p193
(lp194
F0.040000000000000001
asS'JIXGTLAZTGJRRS-IDNKWEKWSA-N'
p195
(lp196
F11.1
asS'ZRFCKBDKFHYMHU-JPRYDEJLSA-N'
p197
(lp198
F0.01
asS'IIYBRTZIUBWZOU-QJSKOQLASA-N'
p199
(lp200
F1.7
assS'2.8.1.2'
p201
(dp202
S'FFFHZYDWPBMWHY-VKHMYHEASA-N'
p203
(lp204
F0.80000000000000004
asS'IZFHEQBZOYJLPK-UHFFFAOYSA-N'
p205
(lp206
F1.7
asS'RWSXRVCMGQZWBV-WDSKDSINSA-N'
p207
(lp208
F0.29999999999999999
asS'ACFIFAYJTCAMRW-XKNYDFJKSA-N'
p209
(lp210
F1.3
asS'LELOWRISYMNNSU-UHFFFAOYSA-N'
p211
(lp212
F2.3999999999999999
asS'VHJLVAABSRFDPM-QWWZWVQMSA-N'
p213
(lp214
F6.0999999999999996
asS'XUJNEKJLAYXESH-REOHCLBHSA-N'
p215
(lp216
F1.1000000000000001
asS'DGVVWUTYPXICAM-UHFFFAOYSA-N'
p217
(lp218
F229
assS'2.8.1.1'
p219
(dp220
sS'3.6.3.14'
p221
(dp222
sS'2.3.1.42'
p223
(dp224
sS'2.3.1.43'
p225
(dp226
sS'3.6.3.10'
p227
(dp228
sS'5.1.1.1'
p229
(dp230
sS'2.4.2.4'
p231
(dp232
S'IQFYYKKMVGJFEH-XLPZGREQSA-N'
p233
(lp234
F0.157
asS'USBZWPXQQCSGAV-KPGICGJXSA-N'
p235
(lp236
F2.8799999999999999
assS'2.7.1.25'
p237
(dp238
S'IRLPACMLTUPBCL-KQYNXXCUSA-N'
p239
(lp240
F0.36399999999999999
asg75
(lp241
F1.7
aF2.2999999999999998
aF4.4000000000000004
assS'2.4.1.83'
p242
(dp243
sS'2.7.8.2'
p244
(dp245
sS'2.7.8.7'
p246
(dp247
S'JLVVSXFLKOJNIY-UHFFFAOYSA-N'
p248
(lp249
F0.23999999999999999
asS'ZSLZBFCDCINBPY-ZSJPKINUSA-N'
p250
(lp251
F0.23999999999999999
assS'2.7.8.8'
p252
(dp253
sS'2.4.1.155'
p254
(dp255
sS'2.4.1.152'
p256
(dp257
S'PHTAQVMXYWFMHF-NULNOVRXSA-N'
p258
(lp259
F1.7
assS'2.4.1.150'
p260
(dp261
sS'1.8.1.4'
p262
(dp263
S'VLYUGYAKYZETRF-UHFFFAOYSA-N'
p264
(lp265
F505
aF505
aF567
aF899
asS'BOPGDPNILDQYTO-NNYOXOHSSA-N'
p266
(lp267
F340
asS'FCCDDURTIIUXBY-UHFFFAOYSA-N'
p268
(lp269
F519
aF649
asS'BAWFJGJZGIEFAR-NNYOXOHSSA-O'
p270
(lp271
F574
assS'1.8.1.7'
p272
(dp273
S'IXELFRRANAOWSF-FNORWQNLSA-N'
p274
(lp275
F0.34000000000000002
aF1.47
asS'MJVAVZPDRWSRRC-UHFFFAOYSA-N'
p276
(lp277
F0.16
asS'GHLUWAJFYKILGZ-UHFFFAOYSA-N'
p278
(lp279
F0.34000000000000002
asS'PHDOXVGRXXAYEB-VJANTYMQSA-N'
p280
(lp281
F0.16
asS'IXELFRRANAOWSF-ALCCZGGFSA-N'
p282
(lp283
F2.6000000000000001
asS'YRJYIDLDVMUPOX-UHFFFAOYSA-N'
p284
(lp285
F0.13
asS'XXQAHBXLRFWCTG-UHFFFAOYSA-N'
p286
(lp287
F0.34999999999999998
asS'ZLBBUZKKNNMGHA-UHFFFAOYSA-N'
p288
(lp289
F0.11
asS'YPZRWBKMTBYPTK-BJDJZHNGSA-N'
p290
(lp291
F48.299999999999997
aF165
aF210
aF210
aF210
aF210
asS'FRASJONUBLZVQX-UHFFFAOYSA-N'
p292
(lp293
F1.0800000000000001
asS'UBAXRAHSPKWNCX-UHFFFAOYSA-N'
p294
(lp295
F0.16
asS'NVJSPQCVDHGYRE-UHFFFAOYSA-N'
p296
(lp297
F2.23
assS'2.4.1.133'
p298
(dp299
g145
(lp300
F0.028000000000000001
aF1.1100000000000001
aF1.1399999999999999
aF1.52
aF5086
asg119
(lp301
F1.79
asg123
(lp302
F3
asg139
(lp303
F72
assS'1.8.1.3'
p304
(dp305
sS'2.7.7.18'
p306
(dp307
sS'2.4.1.134'
p308
(dp309
sS'2.7.7.15'
p310
(dp311
sS'2.7.7.14'
p312
(dp313
sS'1.8.1.9'
p314
(dp315
S'UEQANLFPOFICBH-UHFFFAOYSA-N'
p316
(lp317
F23
asg209
(lp318
F0.016
aF5.5800000000000001
aF8.0999999999999996
aF25.780000000000001
aF27.399999999999999
aF46.57
asS'AGBQKNBQESQNJD-SSDOTTSWSA-N'
p319
(lp320
F1.8
asS'KIUMMUBSPKGMOY-UHFFFAOYSA-L'
p321
(lp322
F0.55000000000000004
aF8.2799999999999994
aF18.73
aF30.02
aF33.329999999999998
aF29.5
asg268
(lp323
F1.6000000000000001
aF3.2999999999999998
assS'2.7.7.12'
p324
(dp325
sS'1.14.99.25'
p326
(dp327
sS'2.4.1.135'
p328
(dp329
sS'1.4.3.14'
p330
(dp331
sS'2.4.2.7'
p332
(dp333
sS'1.8.3.1'
p334
(dp335
S'LSNNMFCWUKXFEE-UHFFFAOYSA-L'
p336
(lp337
F12.1
aF17.199999999999999
aF24.199999999999999
aF24.199999999999999
aF24.199999999999999
aF24.699999999999999
aF24.699999999999999
aF25
aF25.899999999999999
aF25.899999999999999
aF25.899999999999999
aF26.899999999999999
aF27
asS'QYTXFEIXYJWKBO-XZRGJURASA-L'
p338
(lp339
F18.100000000000001
assS'3.6.1.17'
p340
(dp341
sS'2.1.3.85'
p342
(dp343
sS'5.3.3.8'
p344
(dp345
sS'5.3.3.9'
p346
(dp347
sS'5.3.3.1'
p348
(dp349
S'FMGSKLZLMKYGDP-USOAJAOKSA-N'
p350
(lp351
F3012
aF4890
asS'SQGZFRITSMYKRH-QAGGRKNESA-N'
p352
(lp353
F0.55700000000000005
aF0.82999999999999996
aF6.0800000000000001
aF13.6
assS'5.3.3.2'
p354
(dp355
sS'4.4.1.22'
p356
(dp357
sS'4.4.1.20'
p358
(dp359
g207
(lp360
F2.1099999999999999
aF2.2200000000000002
asS'UFPQIRYSPUYQHK-WAQVJNLQSA-N'
p361
(lp362
F11.699999999999999
asS'WTKAVFHPLJFCMZ-NIBLXIPLSA-N'
p363
(lp364
F1.6899999999999999
aF1.97
assS'1.1.1.181'
p365
(dp366
sS'1.2.4.1'
p367
(dp368
S'LCTONWCANYUPML-UHFFFAOYSA-N'
p369
(lp370
F0.076999999999999999
aF66.099999999999994
aF69.900000000000006
assS'3.1.2.12'
p371
(dp372
sS'3.1.3.29'
p373
(dp374
sS'2.1.1.43'
p375
(dp376
sS'2.1.1.45'
p377
(dp378
S'JSRLJPSBLDHEIO-SHYZEUOFSA-N'
p379
(lp380
F3.1099999999999999
aF48
asS'JSRLJPSBLDHEIO-NAJVVJGSSA-N'
p381
(lp382
F4.1699999999999999
asS'QYNUQALWYRSVHF-OLZOCXBDSA-N'
p383
(lp384
F48
assS'2.1.1.49'
p385
(dp386
sS'2.6.1.6'
p387
(dp388
sS'2.6.1.7'
p389
(dp390
S'JVQYSWDUAOAHFM-UHFFFAOYSA-N'
p391
(lp392
F0.92000000000000004
asS'COLNVLDHVKWLRT-QMMMGPOBSA-N'
p393
(lp394
F91
asS'KHPXUQMNIQBQEV-UHFFFAOYSA-N'
p395
(lp396
F0.065000000000000002
aF143
asS'RSTKLPZEZYGQPY-UHFFFAOYSA-M'
p397
(lp398
F1.49
asS'KPGXRSRHYNQIFN-UHFFFAOYSA-N'
p399
(lp400
F7.6699999999999999
asS'HNDVDQJCIGZPNO-YFKPBYRVSA-N'
p401
(lp402
F143
asS'BKAJNAXTPSGJCU-UHFFFAOYSA-N'
p403
(lp404
F296
aF2.5099999999999998
asS'XNIHZNNZJHYHLC-UHFFFAOYSA-M'
p405
(lp406
F4.8300000000000001
asS'KDVFRMMRZOCFLS-UHFFFAOYSA-M'
p407
(lp408
F2.6600000000000001
asg215
(lp409
F9.5999999999999996
asS'ZDXPYRJPNDTMRX-VKHMYHEASA-N'
p410
(lp411
F440
asS'SXFSQZDSUWACKX-UHFFFAOYSA-M'
p412
(lp413
F4.2699999999999996
asS'KKADPXVIOXHVKN-UHFFFAOYSA-N'
p414
(lp415
F0.39000000000000001
asS'BTNMPGBKDVTSJY-UHFFFAOYSA-N'
p416
(lp417
F4.7300000000000004
aF110
asS'QIVBCDIJIAJPQS-VIFPVBQESA-N'
p418
(lp419
F43.100000000000001
asS'FFEARJCKVFRZRR-BYPYZUCNSA-N'
p420
(lp421
F215
asS'QWCKQJZIFLGMSD-UHFFFAOYSA-M'
p422
(lp423
F38.299999999999997
asS'TYEYBOSBBBHJIV-UHFFFAOYSA-N'
p424
(lp425
F234
aF3.4900000000000002
asS'QHKABHOOEWYVLI-UHFFFAOYSA-N'
p426
(lp427
F0.92000000000000004
asS'YGPSJZOEDVAXAB-QMMMGPOBSA-N'
p428
(lp429
F1.8
aF2.2000000000000002
aF9.7599999999999998
aF201
asg95
(lp430
F3.6400000000000001
aF263
asS'OJOLFAIGOXZBCI-UHFFFAOYSA-M'
p431
(lp432
F3.5899999999999999
aF234
asS'DCXYFEDJOCDNAF-REOHCLBHSA-N'
p433
(lp434
F14.4
asS'FGSBNBBHOZHUBO-UHFFFAOYSA-N'
p435
(lp436
F4.8399999999999999
asS'OUYCCCASQSFEME-QMMMGPOBSA-N'
p437
(lp438
F91
asS'ROHFNLRQFUQHCH-YFKPBYRVSA-N'
p439
(lp440
F339
asg369
(lp441
F0.35999999999999999
aF29
assS'5.3.1.6'
p442
(dp443
sS'2.6.1.1'
p444
(dp445
sS'2.6.1.2'
p446
(dp447
sS'2.6.1.3'
p448
(dp449
sS'1.1.1.197'
p450
(dp451
sS'2.7.1.59'
p452
(dp453
S'OVRNDRQMDRJTHS-RTRLPJTCSA-N'
p454
(lp455
F0.032500000000000001
assS'6.2.1.16'
p456
(dp457
sS'6.2.1.17'
p458
(dp459
sS'6.2.1.12'
p460
(dp461
sS'6.2.1.13'
p462
(dp463
sS'2.7.1.52'
p464
(dp465
sS'2.3.1.15'
p466
(dp467
sS'2.3.1.14'
p468
(dp469
sS'2.1.2.1'
p470
(dp471
S'MSTNYGQPCMXVAQ-RYUDHWBXSA-N'
p472
(lp473
F0.040000000000000001
asS'MTCFGRXMJLQNBG-REOHCLBHSA-N'
p474
(lp475
F9.5800000000000001
assS'1.5.99.8'
p476
(dp477
sS'2.1.1.37'
p478
(dp479
S'MEFKEPWMEQBLKI-AIRLBKTGSA-O'
p480
(lp481
F0.058000000000000003
assS'1.1.1.59'
p482
(dp483
sS'3.2.1.26'
p484
(dp485
sS'1.5.99.2'
p486
(dp487
sS'2.1.2.3'
p488
(dp489
sS'1.14.17.1'
p490
(dp491
sS'1.5.99.6'
p492
(dp493
sS'2.3.1.168'
p494
(dp495
sS'1.3.1.21'
p496
(dp497
sS'1.2.7.2'
p498
(dp499
sS'2.3.1.13'
p500
(dp501
sS'1.3.1.20'
p502
(dp503
S'BHQCQFFYRZLCQQ-OELDTZBJSA-N'
p504
(lp505
F0.23300000000000001
asS'MXUCIEHYJYRTLT-UHFFFAOYSA-N'
p506
(lp507
F0.125
aF0.41699999999999998
aF0.48999999999999999
aF0.58499999999999996
asS'YIAPLDFPUUJILH-VIFPVBQESA-N'
p508
(lp509
F0.086699999999999999
aF0.123
aF0.158
aF0.158
aF0.16300000000000001
aF0.16700000000000001
aF0.20799999999999999
asS'CBMYJHIOYJEBSB-GRYCMQMASA-N'
p510
(lp511
F0.108
asS'YDRSQRPHLBEPTP-PHDIDXHHSA-N'
p512
(lp513
F0.0117
aF0.014999999999999999
aF0.0183
aF0.031699999999999999
aF0.033300000000000003
aF0.048300000000000003
aF0.0533
asS'QGXBDMJGAMFCBF-HLUDHZFRSA-N'
p514
(lp515
F0.0066699999999999997
aF0.0183
assS'2.3.1.12'
p516
(dp517
sS'1.1.1.284'
p518
(dp519
S'PIUSLWSYOYFRFR-BQBZGAKWSA-N'
p520
(lp521
F1.04
aF3.3300000000000001
aF2.5
aF2.5
asS'HYHSBSXUHZOYLX-WDSKDSINSA-N'
p522
(lp523
F7.5
aF20
aF20
aF29.300000000000001
aF72000
asg266
(lp524
F34.5
asS'ZDHCZVWCTKTBRY-UHFFFAOYSA-N'
p525
(lp526
F0.217
asg270
(lp527
F0.217
aF1.04
aF2.5
assS'1.3.1.24'
p528
(dp529
sS'2.7.1.28'
p530
(dp531
sS'1.3.1.27'
p532
(dp533
S'JYTUBIHWMKQZRB-ONEGZZNKSA-N'
p534
(lp535
F1.3300000000000001
asS'FUSUHKVFWTUUBE-UHFFFAOYSA-N'
p536
(lp537
F0.16700000000000001
asS'JVJFIQYAHPMBBX-FNORWQNLSA-N'
p538
(lp539
F1.1499999999999999
asS'BSAIUMLZVGUGKX-UHFFFAOYSA-N'
p540
(lp541
F0.113
assS'4.1.2.4'
p542
(dp543
sS'2.7.1.20'
p544
(dp545
S'OIRDTQYFTABQOQ-KQYNXXCUSA-N'
p546
(lp547
F0.5
assS'2.7.1.21'
p548
(dp549
S'HBOMLICNUCNMMY-XLPZGREQSA-N'
p550
(lp551
F3.5
asS'MWCVBTDANIFOCW-HBNTYKKESA-N'
p552
(lp553
F0.34000000000000002
asS'JMHPFFNMWGUEKW-DMDPSCGWSA-N'
p554
(lp555
F0.39000000000000001
asS'WLRPDVWEINIYBQ-IVZWLZJFSA-N'
p556
(lp557
F0.34999999999999998
asS'JDWUZHSHPZRACA-OUCADQQQSA-N'
p558
(lp559
F0.46999999999999997
asS'TWPJUVMQKUZARG-QJPTWQEYSA-N'
p560
(lp561
F0.32000000000000001
asS'OOSRHIPZESFZKQ-HBNTYKKESA-N'
p562
(lp563
F0.37
asS'XMCZDHJFBFTYJU-HOSYDEDBSA-N'
p564
(lp565
F0.44
asS'OJIGNGXYPVDQLF-DMDPSCGWSA-N'
p566
(lp567
F0.45000000000000001
asg233
(lp568
F0.46000000000000002
aF9.5
assS'2.7.1.22'
p569
(dp570
sS'2.7.1.24'
p571
(dp572
sS'1.7.1.7'
p573
(dp574
sS'1.5.1.12'
p575
(dp576
sS'1.5.1.10'
p577
(dp578
sS'3.1.2.14'
p579
(dp580
sS'3.1.2.17'
p581
(dp582
sS'2.7.1.127'
p583
(dp584
sS'2.7.4.8'
p585
(dp586
sS'2.7.4.9'
p587
(dp588
S'BQZMHQZNZNBJNF-XLPZGREQSA-N'
p589
(lp590
F0.14000000000000001
asS'LHLHVDBXXZVYJT-RRKCRQDMSA-N'
p591
(lp592
F1.2
asS'KCTKUURHXFRJGJ-OWOJBTEDSA-N'
p593
(lp594
F0.089999999999999997
asS'WVNRRNJFRREKAR-JGVFFNPUSA-N'
p595
(lp596
F0.029999999999999999
asS'UBSZOBUHNRQZAW-OWOJBTEDSA-N'
p597
(lp598
F0.058000000000000003
asS'OJNXTNOGLCWOBG-OWOJBTEDSA-N'
p599
(lp600
F0.5
aF0.90000000000000002
asS'HQXXZZRCJPJFHM-OWOJBTEDSA-N'
p601
(lp602
F0.72999999999999998
asg379
(lp603
F4.7999999999999998
asS'JYEPAZFBJFKASZ-OWOJBTEDSA-N'
p604
(lp605
F0.10000000000000001
asS'GYOZYWVXFNDGLU-XLPZGREQSA-N'
p606
(lp607
F0.72999999999999998
aF0.76000000000000001
aF3
aF0.40000000000000002
asS'XLPGURCDSRIXFL-JGVFFNPUSA-N'
p608
(lp609
F0.089999999999999997
asS'REWSWBWZQAYNHC-DUXPYHPUSA-N'
p610
(lp611
F0.59999999999999998
asS'OPTUJJWAHBAMIG-NSCUHMNNSA-N'
p612
(lp613
F0.32000000000000001
asS'GGCAVPJXJISBOA-XLPZGREQSA-N'
p614
(lp615
F0.029999999999999999
asS'HEHXPGYOJLWXPS-OWOJBTEDSA-N'
p616
(lp617
F0.073999999999999996
asS'OIFWQOKDSPDILA-SPDVFEMOSA-L'
p618
(lp619
F0.0030000000000000001
aF0.01
aF0.012
asS'YKUCVYAJEHGNTI-NSCUHMNNSA-N'
p620
(lp621
F0.83999999999999997
asS'GXKCIWVPHHHYHS-OWOJBTEDSA-N'
p622
(lp623
F0.47999999999999998
assS'2.7.4.6'
p624
(dp625
sS'2.7.4.2'
p626
(dp627
sS'2.7.4.3'
p628
(dp629
S'XTWYTFMLZFPYCI-KQYNXXCUSA-N'
p630
(lp631
F783
asS'UDMBCSSLTHHNCD-KQYNXXCUSA-N'
p632
(lp633
F842
aF842.29999999999995
asg75
(lp634
F0.0063
aF152
aF683
aF879
aF879.5
assS'1.3.1.72'
p635
(dp636
sS'1.4.1.3'
p637
(dp638
g266
(lp639
F104
aF104
aF104
aF104
aF104
aF130
aF130
aF130
aF130
asg399
(lp640
F104
aF104
aF130
aF130
assS'1.4.1.4'
p641
(dp642
sS'2.7.6.2'
p643
(dp644
S'JZRWCGZRTZMZEH-UHFFFAOYSA-N'
p645
(lp646
F0.069000000000000006
asg75
(lp647
F0.069000000000000006
assS'1.6.5.5'
p648
(dp649
S'KETQAJRQOHHATG-UHFFFAOYSA-N'
p650
(lp651
F2.7999999999999998
asS'HDKLIZDXVUCLHQ-BQYQJAHWSA-N'
p652
(lp653
F0.20999999999999999
asS'HGINCPLSRVDWNT-UHFFFAOYSA-N'
p654
(lp655
F1.6599999999999999
asS'MBDOYVRWFFCFHM-UHFFFAOYSA-N'
p656
(lp657
F0.28000000000000003
asg540
(lp658
F0.11
asg534
(lp659
F1.3300000000000001
asS'DTCCTIQRPGSLPT-ONEGZZNKSA-N'
p660
(lp661
F0.20000000000000001
asS'LABTWGUMFABVFG-ONEGZZNKSA-N'
p662
(lp663
F0.20000000000000001
asg538
(lp664
F1.1499999999999999
asS'YYVYAPXYZVYDHN-UHFFFAOYSA-N'
p665
(lp666
F2.2000000000000002
asg536
(lp667
F0.16
assS'2.6.1.16'
p668
(dp669
sS'3.1.1.47'
p670
(dp671
S'PWTCCMJTPHCGMS-QFIPXVFZSA-N'
p672
(lp673
F0.25
aF3
asS'YLYBTZIQSIBWLI-UHFFFAOYSA-N'
p674
(lp675
F0.28000000000000003
aF0.68999999999999995
aF1.8999999999999999
aF6.0800000000000001
asS'KLLCFZPZFUTMGS-AREMUKBSSA-O'
p676
(lp677
F1.1000000000000001
aF8.0999999999999996
asS'URAYPUMNDPQOKB-UHFFFAOYSA-N'
p678
(lp679
F1.7
aF16.5
aF37
asS'ZXCIEWBDUAPBJF-UHFFFAOYSA-O'
p680
(lp681
F0.68000000000000005
aF4.7999999999999998
aF6.0800000000000001
asS'HVAUUPRFYPCOCA-AREMUKBSSA-O'
p682
(lp683
F0.34000000000000002
aF3.2000000000000002
aF24.600000000000001
assS'3.1.4.11'
p684
(dp685
sS'2.6.1.15'
p686
(dp687
sS'3.1.4.17'
p688
(dp689
S'ZOOGRGPOEVQQDX-UUOKFMHZSA-N'
p690
(lp691
F4.2000000000000002
asS'IVOMOUWHDPKRLL-KQYNXXCUSA-N'
p692
(lp693
F0.29999999999999999
aF0.47999999999999998
aF0.5
aF0.52000000000000002
assS'2.6.1.13'
p694
(dp695
sS'3.1.4.14'
p696
(dp697
sS'1.2.3.5'
p698
(dp699
sS'2.3.1.9'
p700
(dp701
sS'1.2.3.1'
p702
(dp703
sS'1.14.15.4'
p704
(dp705
sS'1.1.1.271'
p706
(dp707
sS'1.1.1.270'
p708
(dp709
S'NVKAWKQGWWIWPM-ABEVXSGRSA-N'
p710
(lp711
F0.0030000000000000001
aF0.049299999999999997
aF0.051999999999999998
assS'1.1.1.272'
p712
(dp713
sS'1.1.1.170'
p714
(dp715
sS'2.4.1.79'
p716
(dp717
sS'1.2.1.3'
p718
(dp719
S'MNQGEQSXFDKAPY-UHFFFAOYSA-N'
p720
(lp721
F2.8300000000000001
aF6
asS'HUMNYLRZRPPJDN-UHFFFAOYSA-N'
p722
(lp723
F5.8300000000000001
asS'RHZUYJDKHFJVGH-UHFFFAOYSA-N'
p724
(lp725
F1.3
asS'DTUQWGWMVIHBKE-UHFFFAOYSA-N'
p726
(lp727
F30
aF50
asS'MVXMNHYVCLMLDD-UHFFFAOYSA-N'
p728
(lp729
F4.4199999999999999
asS'IVFSOOIWIYPDLX-UHFFFAOYSA-N'
p730
(lp731
F0.61699999999999999
asS'YGCZTXZTJXYWCO-UHFFFAOYSA-N'
p732
(lp733
F12.300000000000001
asS'QJZUKDFHGGYHMC-UHFFFAOYSA-N'
p734
(lp735
F27.699999999999999
asS'QZFHRSSZNGRMDS-UHFFFAOYSA-N'
p736
(lp737
F1.0800000000000001
asS'XSLWXOOKKCKCSK-UHFFFAOYSA-N'
p738
(lp739
F5.3300000000000001
asS'VSYXGFNDDQVELE-UHFFFAOYSA-N'
p740
(lp741
F1.5700000000000001
asS'BSORNHXIQYIUBV-UHFFFAOYSA-N'
p742
(lp743
F7.9000000000000004
asS'NBBJYMSMWIIQGU-UHFFFAOYSA-N'
p744
(lp745
F0.41999999999999998
aF0.65000000000000002
aF1.3300000000000001
aF1.48
aF3.1600000000000001
aF6.1600000000000001
aF19.699999999999999
asS'WMPDAIZRQDCGFH-UHFFFAOYSA-N'
p746
(lp747
F5.8300000000000001
asS'OVWYEQOVUDKZNU-UHFFFAOYSA-N'
p748
(lp749
F4.5
asS'WJUFSDZVCOTFON-UHFFFAOYSA-N'
p750
(lp751
F1.4199999999999999
asS'FXLOVSHXALFLKQ-UHFFFAOYSA-N'
p752
(lp753
F3
asS'CKZDPGZUVBLQSL-UHFFFAOYSA-N'
p754
(lp755
F8.3300000000000001
asS'RYGIHSLRMNXWCN-UHFFFAOYSA-N'
p756
(lp757
F11.199999999999999
asS'FLFZHAFOKLMGDZ-UHFFFAOYSA-N'
p758
(lp759
F2.6699999999999999
asS'CDFYMALVZADZAU-UHFFFAOYSA-N'
p760
(lp761
F2.1699999999999999
asS'ORKXDTPHBQSVOY-UHFFFAOYSA-N'
p762
(lp763
F0.98299999999999998
asS'BGNGWHSBYQYVRX-UHFFFAOYSA-N'
p764
(lp765
F2.3300000000000001
aF2.1299999999999999
asS'QECIGCMPORCORE-UHFFFAOYSA-N'
p766
(lp767
F0.29999999999999999
asS'IQVAERDLDAZARL-UHFFFAOYSA-N'
p768
(lp769
F15.199999999999999
asS'XMOLEWOFKNFWHC-GQCTYLIASA-N'
p770
(lp771
F0.040000000000000001
asS'BXRFQSNOROATLV-UHFFFAOYSA-N'
p772
(lp773
F7.1699999999999999
asg270
(lp774
F3.5
asS'PKZJLOCLABXVMC-UHFFFAOYSA-N'
p775
(lp776
F0.36699999999999999
asS'WHOOUMGHGSPMGR-UHFFFAOYSA-N'
p777
(lp778
F9.3300000000000001
aF11.300000000000001
asS'RFBLXLCJCJMOCN-UHFFFAOYSA-N'
p779
(lp780
F0.158
aF0.25
asS'MGCGJBXTNWUHQE-UHFFFAOYSA-N'
p781
(lp782
F4.6699999999999999
asS'WSFSSNUMVMOOMR-UHFFFAOYSA-N'
p783
(lp784
F67.5
asS'ZILXIZUBLXVYPI-UHFFFAOYSA-N'
p785
(lp786
F0.66700000000000004
asS'SFDLEXQPRBLXRT-UHFFFAOYSA-N'
p787
(lp788
F3.1699999999999999
asS'KJPRLNWUNMBNBZ-QPJJXVBHSA-N'
p789
(lp790
F2.5
aF7.8300000000000001
asS'ALGQVMMYDWQDEC-UHFFFAOYSA-N'
p791
(lp792
F0.45000000000000001
asS'ZRSNZINYAWTAHE-UHFFFAOYSA-N'
p793
(lp794
F2.5
asS'STUDOPCFIZSIEL-UHFFFAOYSA-N'
p795
(lp796
F0.98299999999999998
asS'PJKVFARRVXDXAD-UHFFFAOYSA-N'
p797
(lp798
F4
asS'IAVREABSGIHHMO-UHFFFAOYSA-N'
p799
(lp800
F1
asS'JYJDWOKNSHADGZ-UHFFFAOYSA-N'
p801
(lp802
F0.55000000000000004
aF0.83299999999999996
asS'RUKJCCIJLIMGEP-ONEGZZNKSA-N'
p803
(lp804
F1.5
aF8.1699999999999999
asS'BTFQKIATRPGRBS-UHFFFAOYSA-N'
p805
(lp806
F2.75
asS'CMWKITSNTDAEDT-UHFFFAOYSA-N'
p807
(lp808
F1.23
assS'1.2.1.2'
p809
(dp810
sS'1.2.1.1'
p811
(dp812
sS'4.2.1.18'
p813
(dp814
S'KFWWCMJSYSSPSK-PAXLJYGASA-N'
p815
(lp816
F6.7999999999999998
asS'CABVTRNMFUVUDM-SJBCKIPMSA-N'
p817
(lp818
F0.26000000000000001
asS'URTLOTISFJPPOU-DEGQQWIJSA-N'
p819
(lp820
F1.3999999999999999
asS'BXIPALATIYNHJN-ZMHDXICWSA-N'
p821
(lp822
F2.8999999999999999
asS'QHHKKMYHDBRONY-RMNRSTNRSA-N'
p823
(lp824
F1.7
asS'ZMMFWDHIXCPOHZ-XRYKKJIBSA-N'
p825
(lp826
F5.0999999999999996
assS'1.2.1.38'
p827
(dp828
sS'2.5.1.46'
p829
(dp830
sS'1.4.3.6'
p831
(dp832
sS'1.4.3.5'
p833
(dp834
S'ZMJGSOSNSPKHNH-UHFFFAOYSA-L'
p835
(lp836
F0.20000000000000001
asS'WHOMFKWHIQZTHY-UHFFFAOYSA-N'
p837
(lp838
F0.19
assS'1.4.3.4'
p839
(dp840
S'WGQKYBSKWIADBV-UHFFFAOYSA-N'
p841
(lp842
F0.089999999999999997
aF0.32500000000000001
aF5
aF5
asS'BHHGXPLMPWCGHP-UHFFFAOYSA-N'
p843
(lp844
F3.8199999999999998
aF1.4810000000000001
aF0.89700000000000002
aF0.998
aF1.3999999999999999
aF2.8700000000000001
aF3.1000000000000001
asS'AGNFWIZBEATIAK-UHFFFAOYSA-N'
p845
(lp846
F1.8300000000000001
asS'QZAYGJVTTNCVMB-UHFFFAOYSA-N'
p847
(lp848
F0.42599999999999999
aF6
aF18.600000000000001
asS'ODVBBZFQPGORMJ-UHFFFAOYSA-N'
p849
(lp850
F0.185
asS'VYFYYTLLBUKUHU-UHFFFAOYSA-N'
p851
(lp852
F0.249
asS'PLRACCBDVIHHLZ-UHFFFAOYSA-N'
p853
(lp854
F0.16
aF0.17999999999999999
aF0.24099999999999999
asS'DZGWFCGJZKJUFP-UHFFFAOYSA-N'
p855
(lp856
F5.2999999999999998
asS'QLPVTIQQFGWSQQ-UHFFFAOYSA-N'
p857
(lp858
F1.0800000000000001
aF1.6000000000000001
aF1.8999999999999999
aF1.8999999999999999
aF2.0800000000000001
aF2.0800000000000001
aF2.2000000000000002
aF2.5
asS'IOXOZOPLBFXYLM-UHFFFAOYSA-N'
p859
(lp860
F1.8500000000000001
assS'1.2.1.31'
p861
(dp862
sS'4.2.1.11'
p863
(dp864
sS'3.1.4.4'
p865
(dp866
sS'3.2.1.106'
p867
(dp868
sS'4.2.1.17'
p869
(dp870
sS'3.1.2.1'
p871
(dp872
sS'3.6.1.52'
p873
(dp874
S'UPHPWXPNZIOZJL-KXXVROSKSA-N'
p875
(lp876
F0.029999999999999999
aF0.029999999999999999
aF0.14999999999999999
aF0.14999999999999999
aF0.20000000000000001
aF0.20000000000000001
assS'3.1.2.4'
p877
(dp878
sS'3.1.2.6'
p879
(dp880
S'YUKXYNWSJMQEBV-SLEUVZQESA-N'
p881
(lp882
F183
asS'RFNLCUNHFJMGFM-FXQIFTODSA-N'
p883
(lp884
F1490
asS'ZKTSKYBPCSYSSR-BQBZGAKWSA-N'
p885
(lp886
F1740
asS'VDYDCVUWILIYQF-CSMHCCOUSA-N'
p887
(lp888
F280
aF727
asS'YUKXYNWSJMQEBV-GYZKLXCISA-N'
p889
(lp890
F188
aF755
assS'2.4.1.92'
p891
(dp892
sS'2.1.1.103'
p893
(dp894
sS'2.4.1.122'
p895
(dp896
sS'2.4.99.9'
p897
(dp898
sS'1.14.13.70'
p899
(dp900
sS'5.1.3.8'
p901
(dp902
sS'1.14.13.72'
p903
(dp904
sS'5.1.3.2'
p905
(dp906
sS'3.7.1.2'
p907
(dp908
sS'3.7.1.3'
p909
(dp910
S'VCKPUUFAIGNJHC-UHFFFAOYSA-N'
p911
(lp912
F3.5
asS'VCKPUUFAIGNJHC-LURJTMIESA-N'
p913
(lp914
F3.5
asg428
(lp915
F0.23000000000000001
assS'5.1.3.7'
p916
(dp917
sS'3.1.3.67'
p918
(dp919
sS'3.1.3.66'
p920
(dp921
sS'3.1.3.64'
p922
(dp923
sS'3.4.14.9'
p924
(dp925
sS'3.1.3.61'
p926
(dp927
sS'1.14.16.4'
p928
(dp929
g418
(lp930
F2.6699999999999999
aF5.0300000000000002
asS'FNKQXYHWGSIFBK-RPDRRWSUSA-N'
p931
(lp932
F2.1669999999999998
aF4.5670000000000002
asS'MYMOFIZGZYHOMD-UHFFFAOYSA-N'
p933
(lp934
F1.383
aF6.7300000000000004
assS'1.14.16.2'
p935
(dp936
g437
(lp937
F3.0299999999999998
aF3.3300000000000001
asg931
(lp938
F0.017000000000000001
aF0.46999999999999997
aF0.57999999999999996
assS'1.14.16.1'
p939
(dp940
g393
(lp941
F6.5300000000000002
assS'3.2.1.33'
p942
(dp943
sS'2.4.2.14'
p944
(dp945
sS'4.1.1.40'
p946
(dp947
sS'2.4.2.11'
p948
(dp949
sS'2.4.2.10'
p950
(dp951
S'FKCRAVPPBFWEJD-XVFCMESISA-N'
p952
(lp953
F0.024
aF0.024
asS'KYOBSHFOBAOFBF-XVFCMESISA-N'
p954
(lp955
F0.017000000000000001
aF0.10000000000000001
asS'XUYJLQHKOGNDPB-UHFFFAOYSA-N'
p956
(lp957
F0.017000000000000001
assS'1.6.2.2'
p958
(dp959
S'ACFIXJIJDZMPPO-NNYOXOHSSA-N'
p960
(lp961
F33
asS'CRWNKXHVYMVLCY-UHFFFAOYSA-N'
p962
(lp963
F98.299999999999997
aF500
aF677
aF700
aF800
aF827
asg266
(lp964
F0.73299999999999998
asS'VIJMEYIOPTVQKA-PVPKHRJZSA-N'
p965
(lp966
F360
aF600
assS'4.1.1.45'
p967
(dp968
sS'3.5.4.16'
p969
(dp970
sS'3.5.4.15'
p971
(dp972
sS'3.5.4.14'
p973
(dp974
sS'3.5.4.12'
p975
(dp976
S'NCMVOABPESMRCP-SHYZEUOFSA-N'
p977
(lp978
F960
assS'3.5.4.10'
p979
(dp980
S'ABCOOORLYAOBOZ-KQYNXXCUSA-N'
p981
(lp982
F8.5999999999999996
aF8.5999999999999996
assS'1.1.1.94'
p983
(dp984
sS'1.1.1.95'
p985
(dp986
sS'3.1.6.8'
p987
(dp988
S'FUYLLJCBCKRIAL-UHFFFAOYSA-N'
p989
(lp990
F0.81699999999999995
asS'ZVUSRLPQGXIZPO-UHFFFAOYSA-N'
p991
(lp992
F16.800000000000001
assS'1.3.99.6'
p993
(dp994
sS'1.3.99.7'
p995
(dp996
sS'1.3.99.5'
p997
(dp998
sS'1.3.99.2'
p999
(dp1000
sS'1.3.99.3'
p1001
(dp1002
sS'1.3.99.1'
p1003
(dp1004
sS'1.14.99.7'
p1005
(dp1006
sS'1.14.99.1'
p1007
(dp1008
sS'1.14.14.1'
p1009
(dp1010
sS'1.14.99.3'
p1011
(dp1012
sS'1.2.1.8'
p1013
(dp1014
sS'1.14.99.9'
p1015
(dp1016
sS'5.1.99.1'
p1017
(dp1018
sS'2.1.3.3'
p1019
(dp1020
sS'2.1.3.2'
p1021
(dp1022
sS'1.3.99.10'
p1023
(dp1024
sS'1.2.1.5'
p1025
(dp1026
g270
(lp1027
F7.7000000000000002
aF45.299999999999997
asS'JARKCYVAAOWBJS-UHFFFAOYSA-N'
p1028
(lp1029
F34
asg722
(lp1030
F51
asS'XJLXINKUBYWONI-NNYOXOHSSA-O'
p1031
(lp1032
F38.799999999999997
asS'IKHGUXGNUITLKF-UHFFFAOYSA-N'
p1033
(lp1034
F35.899999999999999
asS'MBDOYVRWFFCFHM-SNAWJCMRSA-N'
p1035
(lp1036
F53
asS'QSKPIOLLBIHNAC-UHFFFAOYSA-N'
p1037
(lp1038
F7.7000000000000002
assS'1.3.99.12'
p1039
(dp1040
S'OEXFMSFODMQEPE-HDRQGHTBSA-N'
p1041
(lp1042
F7600
asS'LYNVNYDEQMMNMZ-CFAFLRSWSA-N'
p1043
(lp1044
F9700
asS'AEWHYWSPVRZHCT-NDZSKPAWSA-N'
p1045
(lp1046
F2900
assS'1.3.99.13'
p1047
(dp1048
sS'2.1.1.8'
p1049
(dp1050
sS'2.7.1.60'
p1051
(dp1052
sS'2.1.1.2'
p1053
(dp1054
sS'2.1.1.1'
p1055
(dp1056
S'DFPAKSUCGFBDDF-UHFFFAOYSA-N'
p1057
(lp1058
F1.02
assS'2.7.1.68'
p1059
(dp1060
sS'2.1.1.6'
p1061
(dp1062
S'PFTAWBLQPZVEMU-UHFFFAOYSA-N'
p1063
(lp1064
F0.17999999999999999
aF0.26000000000000001
asS'QOZFCKXEVSGWGS-ZHIYBZGJSA-N'
p1065
(lp1066
F0.035000000000000003
aF0.076999999999999999
asS'MRSWRSDZIPNFCN-KSSFIOAISA-N'
p1067
(lp1068
F0.10000000000000001
asS'PFTAWBLQPZVEMU-ZFWWWQNUSA-N'
p1069
(lp1070
F0.17000000000000001
aF0.315
asg851
(lp1071
F0.087999999999999995
aF0.19
asS'SFLSHLFXELFNJZ-UHFFFAOYSA-N'
p1072
(lp1073
F0.040000000000000001
aF0.17999999999999999
asS'DILDHNKDVHLEQB-XSSYPUMDSA-N'
p1074
(lp1075
F0.085000000000000006
aF0.98999999999999999
asS'UCTWMZQNUQWSLP-UHFFFAOYSA-N'
p1076
(lp1077
F0.085000000000000006
aF0.25
assS'2.1.1.5'
p1078
(dp1079
S'YDBYJHTYSHBBAU-YFKPBYRVSA-O'
p1080
(lp1081
F0.0044000000000000003
aF24
aF38
asS'KWIUHFFTVRNATP-UHFFFAOYSA-N'
p1082
(lp1083
F0.0298
aF0.042200000000000001
aF88
asg203
(lp1084
F0.00029999999999999997
aF0.036700000000000003
aF0.0378
assS'2.1.1.4'
p1085
(dp1086
sS'3.1.1.23'
p1087
(dp1088
S'WKPUJZVCZXWKCK-UHFFFAOYSA-N'
p1089
(lp1090
F1.1299999999999999
assS'3.5.1.9'
p1091
(dp1092
sS'3.5.1.2'
p1093
(dp1094
sS'1.14.18.1'
p1095
(dp1096
sS'1.14.18.2'
p1097
(dp1098
sS'3.5.1.1'
p1099
(dp1100
g433
(lp1101
F3.1899999999999999
asS'KDGAYJIGGCDHPH-UWVGGRQHSA-N'
p1102
(lp1103
F0.80000000000000004
assS'3.5.1.6'
p1104
(dp1105
sS'1.14.15.67'
p1106
(dp1107
sS'1.4.3.3'
p1108
(dp1109
S'QNAYBMKLOCPYGJ-UWTATZPHSA-N'
p1110
(lp1111
F5.2000000000000002
aF5.2000000000000002
aF10
aF10
asS'WTDRDQBEARUVNC-ZCFIWIBFSA-N'
p1112
(lp1113
F21.699999999999999
asS'COLNVLDHVKWLRT-MRVPVSSYSA-N'
p1114
(lp1115
F6.5999999999999996
asS'OUYCCCASQSFEME-MRVPVSSYSA-N'
p1116
(lp1117
F14.800000000000001
asS'CKLJMWTZIZZHCS-UWTATZPHSA-N'
p1118
(lp1119
F6.7000000000000002
asS'MTCFGRXMJLQNBG-UWTATZPHSA-N'
p1120
(lp1121
F3
asS'QIVBCDIJIAJPQS-SECBINFHSA-N'
p1122
(lp1123
F3.2000000000000002
asS'DHMQDGOQFOQNFH-UHFFFAOYSA-N'
p1124
(lp1125
F0.90000000000000002
asS'ONIBWKKTOPOVIA-SCSAIBSYSA-N'
p1126
(lp1127
F10.199999999999999
assS'1.4.3.1'
p1128
(dp1129
sS'2.6.1.52'
p1130
(dp1131
sS'2.6.1.51'
p1132
(dp1133
sS'2.3.1.154'
p1134
(dp1135
sS'6.3.4.16'
p1136
(dp1137
S'QGZKDVFQNNGYKY-UHFFFAOYSA-N'
p1138
(lp1139
F5.7300000000000004
assS'2.6.1.58'
p1140
(dp1141
sS'6.3.4.15'
p1142
(dp1143
sS'1.1.99.5'
p1144
(dp1145
sS'1.1.99.1'
p1146
(dp1147
sS'1.1.1.133'
p1148
(dp1149
sS'4.2.1.55'
p1150
(dp1151
sS'4.2.1.56'
p1152
(dp1153
sS'6.3.2.17'
p1154
(dp1155
S'TVZGACDUOSZQKY-LBPRGKRZSA-N'
p1156
(lp1157
F1.1699999999999999
asS'ZAOGJXDWOQXFBW-KKUMJFAQSA-N'
p1158
(lp1159
F0.81000000000000005
asS'SDUHYPXROSSGGK-GJZGRUSLSA-N'
p1160
(lp1161
F0.81999999999999995
asS'WOLQREOUPKZMEX-BZSNNMDCSA-N'
p1162
(lp1163
F0.55000000000000004
asS'OZRNSSUDZOLUSN-LBPRGKRZSA-N'
p1164
(lp1165
F0.83999999999999997
asS'OVBPIULPVIDEAO-LBPRGKRZSA-N'
p1166
(lp1167
F0.65000000000000002
asS'WZFWQRYNXSDFMH-GJZGRUSLSA-N'
p1168
(lp1169
F0.94999999999999996
asg472
(lp1170
F0.98999999999999999
asS'YMUKRFYNHZWDBN-TUFLPTIASA-N'
p1171
(lp1172
F0.34000000000000002
asS'NJGIFGRWHCGKGC-MRKXFKPJSA-N'
p1173
(lp1174
F0.01
assS'3.6.1.19'
p1175
(dp1176
S'JCHLKIQZUXYLPW-RUVBSYQFSA-N'
p1177
(lp1178
F0.20000000000000001
asS'PCDQPRRSZKQHHS-XVFCMESISA-N'
p1179
(lp1180
F0.80000000000000004
asS'RGWHQCVHVJXOKC-SHYZEUOFSA-N'
p1181
(lp1182
F0.29999999999999999
asS'NHVNXKFIZYSCEB-XLPZGREQSA-N'
p1183
(lp1184
F0.69999999999999996
asS'PGAVKCOVUIYSFO-XVFCMESISA-N'
p1185
(lp1186
F0.69999999999999996
assS'6.3.2.11'
p1187
(dp1188
sS'3.6.1.15'
p1189
(dp1190
sS'3.1.4.3'
p1191
(dp1192
sS'3.5.1.38'
p1193
(dp1194
sS'3.6.1.13'
p1195
(dp1196
S'KMYWVDDIPVNLME-KQYNXXCUSA-N'
p1197
(lp1198
F60
asS'SRNWOUGRCWSEMX-KEOHHSTQSA-N'
p1199
(lp1200
F5.5
aF11.4
aF35
aF8
assS'1.2.1.36'
p1201
(dp1202
sS'6.3.3.2'
p1203
(dp1204
sS'6.3.3.1'
p1205
(dp1206
sS'2.7.7.22'
p1207
(dp1208
sS'2.7.7.23'
p1209
(dp1210
sS'6.3.5.2'
p1211
(dp1212
sS'1.14.13.39'
p1213
(dp1214
g276
(lp1215
F6.5999999999999996
aF8
aF9.5
aF88
aF96
asS'AOJJSUZBOXZQNB-TZSSRYMLSA-N'
p1216
(lp1217
F4.7999999999999998
aF4.9000000000000004
aF5.2999999999999998
aF94
aF95
asS'NWIBSHFKIJFRCO-WUDYKRTCSA-N'
p1218
(lp1219
F0.62
aF0.80000000000000004
aF2.2000000000000002
aF15.800000000000001
aF26
assS'6.3.5.4'
p1220
(dp1221
sS'2.7.7.24'
p1222
(dp1223
sS'2.4.1.47'
p1224
(dp1225
sS'1.14.13.34'
p1226
(dp1227
sS'1.14.13.30'
p1228
(dp1229
sS'2.8.2.5'
p1230
(dp1231
sS'2.8.2.4'
p1232
(dp1233
sS'3.1.2.2'
p1234
(dp1235
sS'2.8.2.1'
p1236
(dp1237
S'DKEIWIJUHWVGRC-UHFFFAOYSA-N'
p1238
(lp1239
F0.00116
aF0.059999999999999998
asS'ZQSIJRDFPHDXIC-UHFFFAOYSA-N'
p1240
(lp1241
F0.00033
aF0.0035000000000000001
aF0.0050000000000000001
aF0.0054999999999999997
aF0.02
aF0.095000000000000001
aF0.1065
asS'CQRHJEVIKOKQMO-UHFFFAOYSA-N'
p1242
(lp1243
F0.00183
aF0.063
asS'AUXMRGLXSPIQNV-UHFFFAOYSA-N'
p1244
(lp1245
F0.00016000000000000001
aF0.075999999999999998
asS'KIWWRRLFZKBEAL-UHFFFAOYSA-N'
p1246
(lp1247
F0.0067000000000000002
aF0.035000000000000003
asS'TZBJGXHYKVUXJN-UHFFFAOYSA-N'
p1248
(lp1249
F0.0015
aF0.0061999999999999998
aF0.012999999999999999
aF0.024
aF0.11
aF0.12
aF0.124
assS'2.8.2.2'
p1250
(dp1251
sS'1.1.1.220'
p1252
(dp1253
sS'2.4.1.22'
p1254
(dp1255
sS'2.4.1.25'
p1256
(dp1257
sS'1.1.1.225'
p1258
(dp1259
sS'2.5.1.18'
p1260
(dp1261
S'YVCOJTATJWDGEU-IONNQARKSA-N'
p1262
(lp1263
F1.1000000000000001
aF2.3999999999999999
aF9
asS'YVCOJTATJWDGEU-APPZFPTMSA-N'
p1264
(lp1265
F17.699999999999999
asS'AWMVMTVKBNGEAK-QMMMGPOBSA-N'
p1266
(lp1267
F4.7999999999999998
aF8.4000000000000004
asS'VYZAHLCBVHPDDF-UHFFFAOYSA-N'
p1268
(lp1269
F4.5
aF18.300000000000001
aF76
aF761
asS'FPIGOBKNDYAZTP-UHFFFAOYSA-N'
p1270
(lp1271
F201
asS'ARCJQKUWGAZPFX-ZIAGYGMSSA-N'
p1272
(lp1273
F0.37
aF1.3
aF7.7000000000000002
asS'ARCJQKUWGAZPFX-KBPBESRZSA-N'
p1274
(lp1275
F0.070000000000000007
aF0.20000000000000001
aF0.46000000000000002
asS'MQVQZTWTXUPFFC-IHWYPQMZSA-N'
p1276
(lp1277
F0.34699999999999998
aF464
asS'LZBOEAUDEFYCDQ-UHFFFAOYSA-N'
p1278
(lp1279
F367
asS'LOTKRQAVGJMPNV-UHFFFAOYSA-N'
p1280
(lp1281
F106
asS'YQHLDYVWEZKEOX-UHFFFAOYSA-N'
p1282
(lp1283
F9600
asS'UOMCKHFTGNAYBX-UHFFFAOYSA-N'
p1284
(lp1285
F0.55000000000000004
aF0.58999999999999997
aF0.81999999999999995
aF13
asS'NTBYINQTYWZXLH-UHFFFAOYSA-N'
p1286
(lp1287
F210
asg207
(lp1288
F7.6699999999999999
aF12.199999999999999
aF108
aF464
aF1370
assS'2.5.1.10'
p1289
(dp1290
sS'2.5.1.17'
p1291
(dp1292
S'ASARMUCNOOHMLO-PPDMUPKDSA-L'
p1293
(lp1294
F166.19999999999999
aF285
aF297.60000000000002
asg75
(lp1295
F166.19999999999999
aF285
aF297.60000000000002
assS'2.5.1.16'
p1296
(dp1297
sS'4.2.1.22'
p1298
(dp1299
g203
(lp1300
F6.2000000000000002
aF34
aF3.2999999999999998
aF4.6600000000000001
aF12.699999999999999
asg474
(lp1301
F0.52000000000000002
aF1.3
aF2.5
aF3.6699999999999999
aF5.4000000000000004
aF7.5
aF14.01
aF19.699999999999999
assS'4.4.1.16'
p1302
(dp1303
sS'3.2.1.76'
p1304
(dp1305
sS'4.2.1.24'
p1306
(dp1307
sS'2.7.4.14'
p1308
(dp1309
g977
(lp1310
F30
aF73
asS'IERHLVCPSMICTF-CCXZUQQUSA-N'
p1311
(lp1312
F45
aF150
asS'IERHLVCPSMICTF-XVFCMESISA-N'
p1313
(lp1314
F72
aF130
asS'DJJCXFVJDGTHFX-XVFCMESISA-N'
p1315
(lp1316
F92
aF130
asS'WUMZLKDCOINBEA-RQJHMYQMSA-N'
p1317
(lp1318
F14
aF36
assS'2.7.4.11'
p1319
(dp1320
sS'2.4.99.4'
p1321
(dp1322
sS'1.11.1.8'
p1323
(dp1324
sS'1.11.1.9'
p1325
(dp1326
g207
(lp1327
F14.48
aF19.5
aF24.5
aF221.69999999999999
aF293.30000000000001
aF361.69999999999999
aF408.30000000000001
asS'MHAJPDPJQMAIIY-UHFFFAOYSA-N'
p1328
(lp1329
F10.550000000000001
aF16.02
aF20.829999999999998
aF316.69999999999999
aF445
aF560
aF670
assS'1.11.1.6'
p1330
(dp1331
sS'2.3.1.50'
p1332
(dp1333
sS'2.3.1.57'
p1334
(dp1335
sS'2.4.99.3'
p1336
(dp1337
sS'3.1.6.18'
p1338
(dp1339
sS'1.5.1.29'
p1340
(dp1341
sS'3.1.3.18'
p1342
(dp1343
S'ASCFNMCAHFUBCO-UHFFFAOYSA-N'
p1344
(lp1345
F19
assS'1.5.1.9'
p1346
(dp1347
sS'1.1.1.30'
p1348
(dp1349
sS'1.1.1.31'
p1350
(dp1351
sS'3.1.6.13'
p1352
(dp1353
sS'3.1.6.12'
p1354
(dp1355
sS'1.1.1.34'
p1356
(dp1357
sS'1.1.1.35'
p1358
(dp1359
S'OJFDKHTZOUZBOS-CITAKDKDSA-N'
p1360
(lp1361
F21.300000000000001
aF23.800000000000001
aF37
aF113
aF252
aF681.70000000000005
aF1287
asS'WPIVBCGRGVNDDT-CECATXLMSA-N'
p1362
(lp1363
F28
asg270
(lp1364
F705
aF1817
asS'CBMYJHIOYJEBSB-YSZCXEEOSA-N'
p1365
(lp1366
F0.092999999999999999
asS'QHHKKMYHDBRONY-VKBDFPRVSA-N'
p1367
(lp1368
F533.29999999999995
aF643.29999999999995
asS'NQMPLXPCRJOSHL-BBECNAHFSA-N'
p1369
(lp1370
F24
asS'VOXZDWNPVJITMN-ZBRFXRBCSA-N'
p1371
(lp1372
F0.010999999999999999
asg514
(lp1373
F0.010999999999999999
assS'3.1.3.10'
p1374
(dp1375
sS'1.1.1.37'
p1376
(dp1377
sS'2.3.1.51'
p1378
(dp1379
sS'1.11.1.7'
p1380
(dp1381
sS'5.4.2.2'
p1382
(dp1383
sS'5.4.2.3'
p1384
(dp1385
S'OVRNDRQMDRJTHS-PVFLNQBWSA-N'
p1386
(lp1387
F1.79
aF2.9399999999999999
assS'5.4.2.1'
p1388
(dp1389
sS'2.4.2.28'
p1390
(dp1391
S'FEUWMZLAKGHCOJ-LSCFUAHRSA-N'
p1392
(lp1393
F2.4900000000000002
asS'LYTIDKQIRXAXFG-XNIJJKJLSA-N'
p1394
(lp1395
F0.80000000000000004
asS'RAVZCFVYBJGXAY-WOUKDFQISA-N'
p1396
(lp1397
F1.5
asS'JDDUQGRUPLKDNT-IDTAVKCVSA-N'
p1398
(lp1399
F2.8999999999999999
asS'JKPIENNMIYUJJP-YXYADJKSSA-N'
p1400
(lp1401
F5.5
asS'YPBFMIZDPCDUOG-LSCFUAHRSA-N'
p1402
(lp1403
F1.5
asS'FAXRUSMAJVYOCY-SCFUHWHPSA-N'
p1404
(lp1405
F2.5
asS'VBZWFEMCJOZUPI-HUKYDQBMSA-N'
p1406
(lp1407
F0.040000000000000001
aF0.00040000000000000002
asS'SZXHSSHDQHZYAO-LSCFUAHRSA-N'
p1408
(lp1409
F2.1400000000000001
asS'HYLJGASTSTUVMR-XLPZGREQSA-N'
p1410
(lp1411
F0.28000000000000003
asS'KLTQZXHABWFANM-MVKOHCKWSA-N'
p1412
(lp1413
F0.0040000000000000001
asS'ZZJZQYJDHAIMJM-SDBHATRESA-N'
p1414
(lp1415
F1.5700000000000001
asS'YIZBUJZFFMODRY-IDTAVKCVSA-N'
p1416
(lp1417
F2.2999999999999998
asS'KTLQJVHQZSXYOD-YEFCAQKCSA-N'
p1418
(lp1419
F3.7999999999999998
asS'LYDGCMAAUJUZIN-PMXXHBEXSA-N'
p1420
(lp1421
F0.23000000000000001
asS'UYVYUNPSTIWZDD-LSCFUAHRSA-N'
p1422
(lp1423
F1.3999999999999999
aF0.29999999999999999
asS'XECCOMIMOJOGCO-WOUKDFQISA-N'
p1424
(lp1425
F5.9000000000000004
asS'HMXHURAGFHWODC-WOUKDFQISA-N'
p1426
(lp1427
F0.67000000000000004
asS'SGSWFEQDPUFITR-BGIGGGFGSA-N'
p1428
(lp1429
F3.4399999999999999
asS'YCKCXPMZAPQBPA-XNIJJKJLSA-N'
p1430
(lp1431
F1.01
asS'XGYIMTFOTBMPFP-KQYNXXCUSA-N'
p1432
(lp1433
F4.7999999999999998
asS'QUZCYTPZYQVRBV-QYVSTXNMSA-N'
p1434
(lp1435
F1.46
asS'CUXKVTIHEHVUNU-SDBHATRESA-N'
p1436
(lp1437
F0.84999999999999998
asS'FGCXULVIORNKMS-HGOJYGERSA-N'
p1438
(lp1439
F4.2000000000000002
asS'WUUGFSXJNOTRMR-IOSLPCCCSA-N'
p1440
(lp1441
F4.5999999999999996
asS'QVFVRQNGWNWFTF-XNIJJKJLSA-N'
p1442
(lp1443
F3.1600000000000001
asS'WMPUQTSDVJBPLH-IWCJZZDYSA-N'
p1444
(lp1445
F2.3999999999999999
assS'3.3.1.1'
p1446
(dp1447
S'FFFHZYDWPBMWHY-UHFFFAOYSA-N'
p1448
(lp1449
F6666
asS'ZJUKTBDSGOFHSH-VLCCZNNZSA-N'
p1450
(lp1451
F3.4500000000000002
aF1908
asg546
(lp1452
F6666
assS'5.4.2.4'
p1453
(dp1454
S'XOHUEYCVLUUEJJ-UHFFFAOYSA-N'
p1455
(lp1456
F0.0037000000000000002
assS'1.14.99.36'
p1457
(dp1458
sS'2.3.1.1'
p1459
(dp1460
sS'2.4.2.26'
p1461
(dp1462
S'NYLIQTKLRSZBPI-OMYGFQLXSA-N'
p1463
(lp1464
F0.036299999999999999
assS'4.1.1.15'
p1465
(dp1466
S'WHUUTDBJXJRKMK-VKHMYHEASA-N'
p1467
(lp1468
F0.40999999999999998
aF1.8
aF6.2000000000000002
aF7.7000000000000002
assS'2.3.1.4'
p1469
(dp1470
S'XHMJOUIAFHJHBW-IVMDWMLBSA-N'
p1471
(lp1472
F9
aF22.100000000000001
assS'2.3.1.7'
p1473
(dp1474
g250
(lp1475
F38.5
assS'2.3.1.6'
p1476
(dp1477
sS'2.3.3.8'
p1478
(dp1479
sS'1.1.1.49'
p1480
(dp1481
g1031
(lp1482
F251
asS'NBSCHQHZLSJFNQ-GASJEMHNSA-N'
p1483
(lp1484
F251
aF275
aF279
aF571
asS'NBSCHQHZLSJFNQ-SVZMEOIVSA-N'
p1485
(lp1486
F157
asS'WKSUSMNNBQFESD-NNYOXOHSSA-N'
p1487
(lp1488
F98
asS'UQJFZAAGZAYVKZ-CERMHHMHSA-N'
p1489
(lp1490
F43
assS'1.1.1.45'
p1491
(dp1492
sS'1.1.1.44'
p1493
(dp1494
S'BIRSGZKFKXLSJQ-SQOUGZDYSA-N'
p1495
(lp1496
F0.217
assS'1.1.1.47'
p1497
(dp1498
sS'2.7.8.11'
p1499
(dp1500
sS'1.1.1.41'
p1501
(dp1502
S'ODBLHEXUDAPZAU-UHFFFAOYSA-N'
p1503
(lp1504
F30
asS'ODBLHEXUDAPZAU-ZAFYKAAXSA-N'
p1505
(lp1506
F30
asg270
(lp1507
F30
assS'1.1.1.40'
p1508
(dp1509
g1031
(lp1510
F113.2
aF126
aF135.80000000000001
asg270
(lp1511
F28.899999999999999
aF34.18
aF51
asS'BJEPYKJPYRNKOW-REOHCLBHSA-N'
p1512
(lp1513
F110.90000000000001
assS'2.3.3.5'
p1514
(dp1515
sS'1.1.1.42'
p1516
(dp1517
sS'2.3.3.10'
p1518
(dp1519
sS'2.8.2.11'
p1520
(dp1521
sS'2.4.1.223'
p1522
(dp1523
sS'2.4.1.224'
p1524
(dp1525
sS'2.4.1.225'
p1526
(dp1527
sS'2.4.1.226'
p1528
(dp1529
sS'2.7.1.33'
p1530
(dp1531
sS'2.7.1.31'
p1532
(dp1533
sS'2.7.1.30'
p1534
(dp1535
sS'2.7.1.36'
p1536
(dp1537
sS'3.1.1.19'
p1538
(dp1539
sS'3.1.1.13'
p1540
(dp1541
sS'2.7.1.151'
p1542
(dp1543
sS'2.7.1.153'
p1544
(dp1545
sS'3.1.1.17'
p1546
(dp1547
sS'2.4.1.11'
p1548
(dp1549
sS'2.4.1.17'
p1550
(dp1551
sS'2.4.1.18'
p1552
(dp1553
sS'3.1.6.15'
p1554
(dp1555
sS'4.1.2.27'
p1556
(dp1557
sS'3.1.6.14'
p1558
(dp1559
sS'3.2.2.6'
p1560
(dp1561
sS'4.3.1.8'
p1562
(dp1563
sS'3.1.3.11'
p1564
(dp1565
S'RNBGYGVWRKECFJ-ARQDHWQXSA-N'
p1566
(lp1567
F16.699999999999999
aF20.800000000000001
aF21.699999999999999
aF23.399999999999999
aF23.5
assS'4.3.1.3'
p1568
(dp1569
sS'5.1.3.1'
p1570
(dp1571
sS'2.4.1.65'
p1572
(dp1573
S'FLUMFXWMGPMKRG-CWYDIIEISA-N'
p1574
(lp1575
F0.0089999999999999993
aF0.40000000000000002
asS'MGSDFCKWGHNUSM-QVPNGJTFSA-N'
p1576
(lp1577
F8.0199999999999996
asS'IOGFYVKKXYYAPL-YTVNPTHBSA-N'
p1578
(lp1579
F0.10000000000000001
assS'4.3.1.17'
p1580
(dp1581
sS'2.7.1.140'
p1582
(dp1583
sS'2.4.1.62'
p1584
(dp1585
sS'1.1.1.146'
p1586
(dp1587
sS'1.1.1.145'
p1588
(dp1589
S'SKFLCXNDKRUHTA-UHFFFAOYSA-N'
p1590
(lp1591
F2
asS'FJPGAMCQJNLTJC-UHFFFAOYSA-N'
p1592
(lp1593
F40.200000000000003
asS'JAAJQSRLGAYGKZ-JTQLQIEISA-N'
p1594
(lp1595
F0.25
asS'NCYCYZXNIZJOKI-OVSJKPMPSA-N'
p1596
(lp1597
F0.050000000000000003
asS'TXIXSLPEABAEHP-UHFFFAOYSA-N'
p1598
(lp1599
F33.299999999999997
asS'ZMTGGXREUMKXBC-UHFFFAOYSA-N'
p1600
(lp1601
F2
asg292
(lp1602
F0.88
asS'BGUWFUQJCDRPTL-UHFFFAOYSA-N'
p1603
(lp1604
F4.7000000000000002
asS'QGXBDMJGAMFCBF-XRJZGPCZSA-N'
p1605
(lp1606
F0.017000000000000001
asS'QQIVKFZWLZJXJT-HLUDHZFRSA-N'
p1607
(lp1608
F0.040000000000000001
aF0.14000000000000001
asS'UWCPWBIMRYXUOU-UHFFFAOYSA-N'
p1609
(lp1610
F41.700000000000003
asS'JXDYKVIHCLTXOP-UHFFFAOYSA-N'
p1611
(lp1612
F31.699999999999999
asS'KIQFUORWRVZTHT-PBDHEXIJSA-N'
p1613
(lp1614
F0.042999999999999997
asg266
(lp1615
F0.75
aF1.6499999999999999
asS'QSJXEFYPDANLFS-UHFFFAOYSA-N'
p1616
(lp1617
F28.300000000000001
asS'TZMFJUDUGYTVRY-UHFFFAOYSA-N'
p1618
(lp1619
F26.699999999999999
asS'HQRWWHIETAKIMO-JTQLQIEISA-N'
p1620
(lp1621
F0.074999999999999997
asS'ZDGPOJYWTVDMDU-UHFFFAOYSA-N'
p1622
(lp1623
F33.299999999999997
asg710
(lp1624
F0.095000000000000001
asS'NVKAWKQGWWIWPM-MISPCMORSA-N'
p1625
(lp1626
F0.083000000000000004
asS'MWVFCEVNXHTDNF-UHFFFAOYSA-N'
p1627
(lp1628
F16.300000000000001
asS'WURBFLDFSFBTLW-UHFFFAOYSA-N'
p1629
(lp1630
F31.699999999999999
asS'DYVGYXXLXQESJE-WTVMURBBSA-N'
p1631
(lp1632
F0.070000000000000007
asg276
(lp1633
F0.65000000000000002
asg772
(lp1634
F16.699999999999999
asS'XKGLSKVNOSHTAD-UHFFFAOYSA-N'
p1635
(lp1636
F2
asg270
(lp1637
F0.02
aF0.021999999999999999
aF0.050000000000000003
aF0.058000000000000003
aF0.059999999999999998
aF0.070000000000000007
aF0.11
aF0.12
asS'XMRPGKVKISIQBV-XWOJZHJZSA-N'
p1638
(lp1639
F0.063
asS'BCWCEHMHCDCJAD-UHFFFAOYSA-N'
p1640
(lp1641
F3.7000000000000002
asS'RAJWOBJTTGJROA-WZNAKSSCSA-N'
p1642
(lp1643
F0.097000000000000003
asg350
(lp1644
F0.02
aF0.021000000000000001
aF0.050000000000000003
aF0.055
aF0.055
aF0.055
aF0.059999999999999998
aF0.14000000000000001
aF0.14499999999999999
asS'CBMYJHIOYJEBSB-VXZRPZIYSA-N'
p1645
(lp1646
F0.017000000000000001
asS'YWYQTGBBEZQBGO-QARKZGPCSA-N'
p1647
(lp1648
F0.014
asg508
(lp1649
F0.17999999999999999
asS'QQIVKFZWLZJXJT-DNKQKWOHSA-N'
p1650
(lp1651
F0.089999999999999997
asS'AURFZBICLPNKBZ-GRWISUQFSA-N'
p1652
(lp1653
F0.041000000000000002
asg665
(lp1654
F11.800000000000001
asS'FFSAXUULYPJSKH-UHFFFAOYSA-N'
p1655
(lp1656
F0.84999999999999998
asS'MAHPVQDVMLWUAG-UHFFFAOYSA-N'
p1657
(lp1658
F2.7000000000000002
asS'RAJWOBJTTGJROA-QJISAEMRSA-N'
p1659
(lp1660
F0.076999999999999999
assS'1.13.11.33'
p1661
(dp1662
g933
(lp1663
F5.0999999999999996
aF5.2000000000000002
aF5.5999999999999996
aF7
aF7.5999999999999996
asS'OYHQOLUKZRVURQ-HZJYTTRNSA-N'
p1664
(lp1665
F10.199999999999999
aF17.800000000000001
asS'YZXBAPSDXZZRGB-DOFZRALJSA-N'
p1666
(lp1667
F14
aF0.56999999999999995
aF0.62
aF0.73999999999999999
aF0.75
aF1.04
aF1.3799999999999999
assS'2.4.1.69'
p1668
(dp1669
S'LQEBEXMHBLQMDB-JGQUBWHWSA-N'
p1670
(lp1671
F0.0070000000000000001
assS'2.4.1.68'
p1672
(dp1673
S'UPORYLBXQJDYFC-XOEKKIKJSA-N'
p1674
(lp1675
F0.45000000000000001
assS'2.5.1.56'
p1676
(dp1677
sS'1.2.1.48'
p1678
(dp1679
g270
(lp1680
F1.28
asS'UHUFTBALEZWWIH-UHFFFAOYSA-N'
p1681
(lp1682
F0.85999999999999999
asS'FWWQKRXKHIRPJY-UHFFFAOYSA-N'
p1683
(lp1684
F1.52
asS'AMTITFMUKRZZEE-WAYWQWQTSA-N'
p1685
(lp1686
F1.3999999999999999
asS'YHRUHBBTQZKMEX-YFVJMOTDSA-N'
p1687
(lp1688
F0.93000000000000005
asS'HFJRKMMYBMWEAD-UHFFFAOYSA-N'
p1689
(lp1690
F2.23
asS'NIOYUNMRJMEDGI-UHFFFAOYSA-N'
p1691
(lp1692
F0.94999999999999996
asS'KSMVZQYAVGTKIV-UHFFFAOYSA-N'
p1693
(lp1694
F2.1800000000000002
assS'2.3.1.65'
p1695
(dp1696
sS'2.7.7.13'
p1697
(dp1698
sS'1.2.1.47'
p1699
(dp1700
sS'1.2.1.40'
p1701
(dp1702
sS'1.2.1.41'
p1703
(dp1704
sS'2.4.2.8'
p1705
(dp1706
S'XPPKVPWEQAFLFU-UHFFFAOYSA-N'
p1707
(lp1708
F0.041000000000000002
asS'FDGQSTZJBFJUBT-UHFFFAOYSA-N'
p1709
(lp1710
F1.1299999999999999
aF2.6000000000000001
aF5.7000000000000002
asS'GRSZFWQUAKGDAV-KQYNXXCUSA-N'
p1711
(lp1712
F0.037999999999999999
asS'PQGCEDQWHSBAJP-TXICZTDVSA-N'
p1713
(lp1714
F2.5
asS'UYTPUPDQBNUYGX-UHFFFAOYSA-N'
p1715
(lp1716
F1.2
aF10.5
asS'LRFVTYWOQMYALW-UHFFFAOYSA-N'
p1717
(lp1718
F2.8999999999999999
assS'2.4.1.88'
p1719
(dp1720
sS'3.6.1.21'
p1721
(dp1722
sS'3.6.1.23'
p1723
(dp1724
S'AHCYMLUZIRLXAA-SHYZEUOFSA-N'
p1725
(lp1726
F5.7999999999999998
aF9.1699999999999999
assS'2.4.1.130'
p1727
(dp1728
sS'2.4.1.131'
p1729
(dp1730
sS'2.4.1.132'
p1731
(dp1732
sS'3.4.24.16'
p1733
(dp1734
sS'4.2.3.12'
p1735
(dp1736
S'DGGUVLXVLHAAGT-XINAWCOVSA-N'
p1737
(lp1738
F0.032000000000000001
assS'2.4.1.86'
p1739
(dp1740
sS'2.7.9.3'
p1741
(dp1742
sS'1.2.4.2'
p1743
(dp1744
sS'5.3.99.2'
p1745
(dp1746
S'YIBNHAJFJUQSRA-YNNPMVKQSA-N'
p1747
(lp1748
F2.6400000000000001
assS'5.3.99.3'
p1749
(dp1750
g207
(lp1751
F21
asg1747
(lp1752
F7
aF50
aF50
asS'SGUKUZOVHSFKPH-YNNPMVKQSA-N'
p1753
(lp1754
F75
aF75
assS'2.3.1.17'
p1755
(dp1756
sS'2.3.1.16'
p1757
(dp1758
sS'4.2.1.96'
p1759
(dp1760
S'KJKIEFUPAPPGBC-JVJCOLAWSA-N'
p1761
(lp1762
F23
aF24
assS'5.3.99.5'
p1763
(dp1764
S'PVTQTOGPOPGQGE-FZUWOZOOSA-N'
p1765
(lp1766
F20.399999999999999
aF59.399999999999999
asg1747
(lp1767
F26.699999999999999
aF27.100000000000001
asg1753
(lp1768
F28.199999999999999
assS'4.2.1.99'
p1769
(dp1770
sS'1.17.3.2'
p1771
(dp1772
sS'4.1.1.19'
p1773
(dp1774
sS'1.1.1.72'
p1775
(dp1776
sS'1.6.99.7'
p1777
(dp1778
sS'1.1.1.78'
p1779
(dp1780
sS'1.1.1.79'
p1781
(dp1782
sS'1.6.99.3'
p1783
(dp1784
g962
(lp1785
F677
assS'2.5.1.6'
p1786
(dp1787
sS'1.17.1.4'
p1788
(dp1789
sS'2.5.1.1'
p1790
(dp1791
sS'5.4.2.7'
p1792
(dp1793
sS'1.1.1.88'
p1794
(dp1795
sS'4.1.1.50'
p1796
(dp1797
sS'2.1.1.13'
p1798
(dp1799
sS'3.6.1.28'
p1800
(dp1801
S'IWLROWZYZPNOFC-UHFFFAOYSA-N'
p1802
(lp1803
F140
aF240
asg75
(lp1804
F0.23999999999999999
assS'2.7.1.7'
p1805
(dp1806
sS'2.7.1.6'
p1807
(dp1808
S'WQZGKKKJIJFFOK-SVZMEOIVSA-N'
p1809
(lp1810
F8.6999999999999993
aF8.6999999999999993
asg75
(lp1811
F8.6999999999999993
assS'2.7.1.1'
p1812
(dp1813
S'PMMURAAUARKVCB-KAZBKCHUSA-N'
p1814
(lp1815
F29
asg75
(lp1816
F54
aF62.299999999999997
asS'WQZGKKKJIJFFOK-GASJEMHNSA-N'
p1817
(lp1818
F0.17999999999999999
aF29
aF37
aF38
aF38
aF60.399999999999999
aF64
aF74
aF75
aF101
assS'2.7.1.3'
p1819
(dp1820
g83
(lp1821
F7.5999999999999996
aF11.1
asS'BJHIKXHVCXFQLS-OTWZMJIISA-N'
p1822
(lp1823
F5.2000000000000002
aF6.5
asS'ZAQJHHRNXZUBTE-NQXXGFSBSA-N'
p1824
(lp1825
F4.7999999999999998
aF7.5999999999999996
asS'RFSUNEUAIZKAJO-VRPWFDPXSA-N'
p1826
(lp1827
F1.7
aF5.9000000000000004
aF6.9000000000000004
aF7.5999999999999996
asS'HMFHBZSHGGEWLO-SOOFDHNKSA-N'
p1828
(lp1829
F1.55
aF8.1999999999999993
assS'5.4.99.7'
p1830
(dp1831
sS'5.4.99.2'
p1832
(dp1833
S'PPQOFITXUZOJDA-MIZDRFBCSA-N'
p1834
(lp1835
F150
aF283
assS'1.14.99.10'
p1836
(dp1837
sS'2.7.1.107'
p1838
(dp1839
S'AJMZUFBKADIAKC-SKTOPKGQSA-N'
p1840
(lp1841
F0.086999999999999994
aF1.23
aF2.7999999999999998
asS'AFSHUZFNMVJNKX-LLWMBOQKSA-N'
p1842
(lp1843
F0.032000000000000001
aF1.2
aF2.4300000000000002
asg75
(lp1844
F0.01
aF8.1999999999999993
aF23
asS'SAEPUUXWQQNLGN-QNGWXLTQSA-N'
p1845
(lp1846
F2.3500000000000001
asS'NSXLMTYRMFVYNT-XDPLQJFFSA-N'
p1847
(lp1848
F0.16200000000000001
aF1.7
aF5.7000000000000002
assS'2.7.1.105'
p1849
(dp1850
sS'2.7.1.108'
p1851
(dp1852
sS'4.1.1.17'
p1853
(dp1854
sS'6.2.1.30'
p1855
(dp1856
sS'1.13.11.6'
p1857
(dp1858
sS'2.7.1.76'
p1859
(dp1860
sS'2.7.1.74'
p1861
(dp1862
S'JTEGQNOMFQHVDC-RQJHMYQMSA-N'
p1863
(lp1864
F0.029999999999999999
aF0.10199999999999999
asS'HBUBKKRHXORPQB-FJFJXFQQSA-N'
p1865
(lp1866
F0.17699999999999999
aF1.3340000000000001
asS'CKTSBUTUHBMZGZ-SHYZEUOFSA-N'
p1867
(lp1868
F0.033000000000000002
aF0.040000000000000001
aF0.043999999999999997
aF0.014999999999999999
aF0.021000000000000001
aF0.064000000000000001
asS'RXRGZNYSEHTMHC-BQBZGAKWSA-N'
p1869
(lp1870
F0.095000000000000001
asS'OLXZPDWKRNYJJZ-RRKCRQDMSA-N'
p1871
(lp1872
F0.33000000000000002
aF0.37
aF0.77000000000000002
aF1.7
aF2.1000000000000001
aF2.1299999999999999
aF3.1000000000000001
asg75
(lp1873
F0.012
aF0.028000000000000001
aF0.029999999999999999
aF0.033000000000000002
aF0.095000000000000001
aF0.40000000000000002
asS'SDUQYLNIPVEERB-QPPQHZFASA-N'
p1874
(lp1875
F0.44
aF0.39000000000000001
asg1185
(lp1876
F0.01
aF0.049000000000000002
aF0.10199999999999999
aF0.17899999999999999
asS'UHDGCWIWMRVCDJ-JDNPWWSISA-N'
p1877
(lp1878
F0.34000000000000002
asS'YKBGVTZYEHREMT-KVQBGUIXSA-N'
p1879
(lp1880
F0.33000000000000002
aF0.53000000000000003
aF0.72999999999999998
aF2.5
aF2.6000000000000001
aF2.6000000000000001
aF3.2599999999999998
asS'WDDPHFBMKLOVOX-AYQXTPAHSA-N'
p1881
(lp1882
F0.48599999999999999
aF1.1100000000000001
asg233
(lp1883
F0.38
asS'PTOAARAWEBMLNO-KVQBGUIXSA-N'
p1884
(lp1885
F0.37
aF0.59999999999999998
aF0.080399999999999999
aF0.17199999999999999
asS'UHDGCWIWMRVCDJ-CCXZUQQUSA-N'
p1886
(lp1887
F0.17000000000000001
aF0.29999999999999999
aF0.32000000000000001
assS'2.7.1.73'
p1888
(dp1889
sS'1.14.13.15'
p1890
(dp1891
S'LINVVMHRTUSXHL-GGVPDPBRSA-N'
p1892
(lp1893
F0.072999999999999995
asS'NSBRSRMPFRZDDF-LTXUFZTJSA-N'
p1894
(lp1895
F0.0183
assS'1.3.1.38'
p1896
(dp1897
sS'1.3.1.34'
p1898
(dp1899
sS'4.1.1.21'
p1900
(dp1901
sS'3.1.3.59'
p1902
(dp1903
sS'3.1.3.27'
p1904
(dp1905
sS'3.2.1.96'
p1906
(dp1907
sS'2.1.1.17'
p1908
(dp1909
sS'3.1.3.51'
p1910
(dp1911
sS'3.1.3.56'
p1912
(dp1913
sS'5.1.3.19'
p1914
(dp1915
sS'5.1.3.14'
p1916
(dp1917
sS'5.1.3.17'
p1918
(dp1919
sS'3.2.1.31'
p1920
(dp1921
S'PRIOPKVBCZTKIT-ZFORQUDYSA-N'
p1922
(lp1923
F0.26000000000000001
asS'JXWGCVLNCGCZRU-JENRNSKYSA-N'
p1924
(lp1925
F1.6499999999999999
asS'XDPLKWRSVXUQBN-LVEHSUOCSA-N'
p1926
(lp1927
F0.34999999999999998
asS'QSUILVWOWLUOEU-GOVZDWNOSA-N'
p1928
(lp1929
F0.67000000000000004
asS'FNTJVYCFNVUBOL-ZUGPOPFOSA-N'
p1930
(lp1931
F0.65000000000000002
asS'MMIBOZXVZLENRZ-ZFORQUDYSA-N'
p1932
(lp1933
F1.0700000000000001
asS'DUBCCGAQYVUYEU-ZUGPOPFOSA-N'
p1934
(lp1935
F1.8999999999999999
assS'2.7.2.11'
p1936
(dp1937
sS'5.3.1.25'
p1938
(dp1939
sS'2.6.1.44'
p1940
(dp1941
S'QNAYBMKLOCPYGJ-REOHCLBHSA-N'
p1942
(lp1943
F0.070000000000000007
aF10.6
aF17.100000000000001
aF19.800000000000001
aF33
aF33
aF33.600000000000001
aF35
aF45
aF45
aF45
asg215
(lp1944
F0.22
asg1124
(lp1945
F0.33000000000000002
asg95
(lp1946
F0.068000000000000005
aF11.1
aF18.300000000000001
aF20.5
aF37
aF37
aF39
aF40
aF45
aF45
aF45
asg369
(lp1947
F0.35999999999999999
assS'4.1.1.9'
p1948
(dp1949
S'LTYOQGRJFJAKNA-DVVLENMVSA-N'
p1950
(lp1951
F13
aF47.299999999999997
assS'2.6.1.40'
p1952
(dp1953
sS'5.3.1.23'
p1954
(dp1955
sS'2.6.1.42'
p1956
(dp1957
S'AGPKZVBTJJNPAG-WHFBIAKZSA-N'
p1958
(lp1959
F371
aF1075
asS'KZSNJWFQEVHDMF-BYPYZUCNSA-N'
p1960
(lp1961
F277
aF1236
asg439
(lp1962
F337
aF898
asg1467
(lp1963
F290
aF1075
asg399
(lp1964
F340
assS'4.1.1.4'
p1965
(dp1966
sS'5.1.3.13'
p1967
(dp1968
sS'4.1.3.7'
p1969
(dp1970
sS'1.1.1.102'
p1971
(dp1972
sS'4.1.3.5'
p1973
(dp1974
sS'2.4.1.212'
p1975
(dp1976
sS'4.1.3.3'
p1977
(dp1978
sS'1.1.1.105'
p1979
(dp1980
S'FPIPGXGPPPQFEQ-OVSJKPMPSA-N'
p1981
(lp1982
F0.02
assS'3.5.2.5'
p1983
(dp1984
sS'3.1.3.25'
p1985
(dp1986
sS'3.5.2.3'
p1987
(dp1988
sS'3.5.2.2'
p1989
(dp1990
sS'1.5.1.34'
p1991
(dp1992
S'SYMNQIBTCYDGIS-UHFFFAOYSA-N'
p1993
(lp1994
F10.9
aF23.699999999999999
aF28.899999999999999
aF113
asS'ARHXUJTYUBUXBB-UHFFFAOYSA-N'
p1995
(lp1996
F510
asg266
(lp1997
F280
asS'ZHQJVZLJDXWFFX-RPDRRWSUSA-N'
p1998
(lp1999
F10.9
aF23.699999999999999
aF28.899999999999999
aF113
asg931
(lp2000
F200
assS'2.7.8.15'
p2001
(dp2002
sS'3.5.2.9'
p2003
(dp2004
sS'3.5.1.25'
p2005
(dp2006
sS'4.2.1.46'
p2007
(dp2008
sS'3.5.1.26'
p2009
(dp2010
sS'3.5.1.23'
p2011
(dp2012
sS'2.4.1.174'
p2013
(dp2014
sS'2.4.1.175'
p2015
(dp2016
sS'2.7.7.9'
p2017
(dp2018
sS'4.1.2.13'
p2019
(dp2020
g1566
(lp2021
F0.010999999999999999
aF0.029000000000000001
aF0.19
aF0.60999999999999999
aF2.1000000000000001
aF5.2000000000000002
aF12.6
aF16.699999999999999
aF20.100000000000001
aF59.700000000000003
asS'RHKKZBWRNHGJEZ-ARQDHWQXSA-N'
p2022
(lp2023
F0.0080000000000000002
aF0.019
aF0.12
aF0.67000000000000004
aF2
aF2.7999999999999998
aF6.0800000000000001
aF1.28
aF1.48
aF10.800000000000001
assS'2.7.7.3'
p2024
(dp2025
sS'2.7.7.2'
p2026
(dp2027
S'DXVIFONVCCHBHO-LXINESAQSA-N'
p2028
(lp2029
F0.070000000000000007
asS'FVTCRASFADXXNN-SCRDCRAPSA-N'
p2030
(lp2031
F0.0035999999999999999
aF0.0035999999999999999
aF0.0047999999999999996
aF0.02
aF0.078
aF0.080000000000000002
assS'2.7.7.1'
p2032
(dp2033
S'JOUIQRNQJGXQDC-ZYUZMQFOSA-O'
p2034
(lp2035
F3.7999999999999998
aF6.9000000000000004
aF42.899999999999999
asS'XQHMUSRSLNRVGA-TURQNECASA-N'
p2036
(lp2037
F3.2999999999999998
aF7.2000000000000002
aF18.600000000000001
asS'DAYLJWODMCOQEW-TURQNECASA-O'
p2038
(lp2039
F2.5
aF8.8000000000000007
aF53.799999999999997
asS'XDDGVTBJYGSVPM-DBRKOABJSA-N'
p2040
(lp2041
F0.41999999999999998
aF0.55000000000000004
aF14.9
asg75
(lp2042
F2.5
aF8.8000000000000007
aF53.899999999999999
assS'2.7.7.4'
p2043
(dp2044
sS'2.7.7.30'
p2045
(dp2046
S'HAEJPQIATWHALX-KQYNXXCUSA-N'
p2047
(lp2048
F1.2
asS'YEUMCUWPACWSLF-VKZRYZQFSA-N'
p2049
(lp2050
F0.02
asS'CABDYDUZLRXGTB-UUOKFMHZSA-N'
p2051
(lp2052
F0.32000000000000001
asS'PTVXQARCLQPGIR-SXUWKVJYSA-N'
p2053
(lp2054
F3.6000000000000001
asS'HXXFSFRBOHSIMQ-QTVWNMPRSA-N'
p2055
(lp2056
F0.20000000000000001
asS'UULMAMAYNIKMIL-XJSXVSLSSA-N'
p2057
(lp2058
F0.089999999999999997
asS'HFAGVQOGJSRBDX-UUOKFMHZSA-N'
p2059
(lp2060
F0.27000000000000002
asS'YMJBYRVFGYXULK-IVMDWMLBSA-N'
p2061
(lp2062
F0.20999999999999999
asg75
(lp2063
F0.0089999999999999993
asS'HXXFSFRBOHSIMQ-GASJEMHNSA-N'
p2064
(lp2065
F0.32000000000000001
asS'YXJDFQJKERBOBM-KLVWXMOXSA-N'
p2066
(lp2067
F0.40000000000000002
asS'RWHOZGRAXYWRNX-GASJEMHNSA-N'
p2068
(lp2069
F0.17999999999999999
asS'HXXFSFRBOHSIMQ-SVZMEOIVSA-N'
p2070
(lp2071
F0.23000000000000001
asS'CAEFEWVYEZABLA-UUOKFMHZSA-N'
p2072
(lp2073
F0.029999999999999999
asg2022
(lp2074
F0.029999999999999999
asS'XKMLYUALXHKNFT-UUOKFMHZSA-N'
p2075
(lp2076
F2.5
aF2.5
asS'IWJONOSHQAAANK-IGOKSWBJSA-N'
p2077
(lp2078
F1.5
asS'YJPQBHBYFRRQBE-DSKATIKOSA-N'
p2079
(lp2080
F0.0089999999999999993
asg1177
(lp2081
F2.6000000000000001
asS'OXGSLGMQACUSDD-BBBNYMBOSA-N'
p2082
(lp2083
F0.28999999999999998
assS'5.4.2.8'
p2084
(dp2085
sS'2.6.1.39'
p2086
(dp2087
sS'5.3.3.5'
p2088
(dp2089
S'CGSJXLIKVBJVRY-XTGBIJOFSA-N'
p2090
(lp2091
F0.42299999999999999
assS'5.2.1.3'
p2092
(dp2093
sS'4.1.1.28'
p2094
(dp2095
g851
(lp2096
F2.48
asS'WTDRDQBEARUVNC-LURJTMIESA-N'
p2097
(lp2098
F0.070000000000000007
assS'5.2.1.7'
p2099
(dp2100
sS'1.1.1.211'
p2101
(dp2102
sS'1.3.3.4'
p2103
(dp2104
S'UHSGPDMIQQYNAX-UHFFFAOYSA-N'
p2105
(lp2106
F0.050000000000000003
aF0.17499999999999999
aF0.17499999999999999
aF0.17499999999999999
assS'1.3.3.6'
p2107
(dp2108
sS'1.3.3.1'
p2109
(dp2110
sS'1.3.3.2'
p2111
(dp2112
sS'2.5.1.29'
p2113
(dp2114
sS'2.5.1.26'
p2115
(dp2116
sS'2.5.1.22'
p2117
(dp2118
S'ATHGHQPFGPMSJY-UHFFFAOYSA-N'
p2119
(lp2120
F32
aF32
assS'2.5.1.21'
p2121
(dp2122
sS'1.2.1.12'
p2123
(dp2124
sS'1.15.1.1'
p2125
(dp2126
S'MXDZWXWHPVATGF-UHFFFAOYSA-N'
p2127
(lp2128
F4600
aF40000
assS'3.2.1.46'
p2129
(dp2130
sS'1.2.1.16'
p2131
(dp2132
sS'5.3.99.4'
p2133
(dp2134
sS'3.2.1.45'
p2135
(dp2136
sS'1.2.1.19'
p2137
(dp2138
sS'3.2.1.49'
p2139
(dp2140
sS'1.5.3.7'
p2141
(dp2142
sS'2.4.1.101'
p2143
(dp2144
sS'2.2.1.1'
p2145
(dp2146
sS'2.2.1.2'
p2147
(dp2148
sS'2.4.1.102'
p2149
(dp2150
sS'1.2.1.27'
p2151
(dp2152
sS'1.5.5.1'
p2153
(dp2154
S'SQQWBSBBCSFQGC-JLHYYAGUSA-N'
p2155
(lp2156
F78.799999999999997
asS'SOECUQMRSRVZQQ-UHFFFAOYSA-N'
p2157
(lp2158
F33.5
asS'XGCJRRDNIMSYNC-INVBOZNNSA-N'
p2159
(lp2160
F35.5
asg101
(lp2161
F21.399999999999999
asS'VMEGFMNVSYVVOM-UHFFFAOYSA-N'
p2162
(lp2163
F74.299999999999997
assS'2.7.7.41'
p2164
(dp2165
sS'2.7.7.43'
p2166
(dp2167
sS'2.3.1.29'
p2168
(dp2169
sS'4.1.3.6'
p2170
(dp2171
sS'1.8.4.4'
p2172
(dp2173
sS'2.3.1.26'
p2174
(dp2175
sS'3.1.6.2'
p2176
(dp2177
S'CZWCKYRVOZZJNM-USOAJAOKSA-N'
p2178
(lp2179
F6.4800000000000004
assS'2.7.3.2'
p2180
(dp2181
g630
(lp2182
F78.299999999999997
aF90
aF350
aF483.30000000000001
asS'DRBBFCLWYRJSJZ-UHFFFAOYSA-N'
p2183
(lp2184
F78.299999999999997
aF90
aF350
aF483.30000000000001
asg75
(lp2185
F51.700000000000003
aF75
aF76
aF88
aF115
aF143
aF155
asS'CVSVTCORWBXHQV-UHFFFAOYSA-N'
p2186
(lp2187
F51.700000000000003
aF75
aF138
aF170
aF238
aF417
assS'2.3.1.21'
p2188
(dp2189
sS'4.2.1.107'
p2190
(dp2191
sS'1.1.1.28'
p2192
(dp2193
sS'2.3.1.87'
p2194
(dp2195
g847
(lp2196
F17.300000000000001
aF20.300000000000001
aF25.899999999999999
assS'1.1.1.22'
p2197
(dp2198
g139
(lp2199
F1.3999999999999999
asg270
(lp2200
F1.8
assS'1.1.1.21'
p2201
(dp2202
S'CRDAMVZIKSXKFV-YFVJMOTDSA-N'
p2203
(lp2204
F0.155
aF0.5
asS'MNQZXJOMYWMBOU-UHFFFAOYSA-N'
p2205
(lp2206
F0.43099999999999999
asS'HLZKNKRTKFSKGZ-UHFFFAOYSA-N'
p2207
(lp2208
F0.017000000000000001
asS'ZWRUINPWMLAQRD-UHFFFAOYSA-N'
p2209
(lp2210
F0.065000000000000002
asg1689
(lp2211
F1.25
asS'ZGCHLOWZNKRZSN-PHDIDXHHSA-N'
p2212
(lp2213
F0.75
asg734
(lp2214
F2.5
asS'SRBFZHDQGSBBOR-IOVATXLUSA-N'
p2215
(lp2216
F1.7
asS'MLUCVPSAIODCQM-NSCUHMNNSA-N'
p2217
(lp2218
F0.78000000000000003
asg1611
(lp2219
F1.1200000000000001
asS'NUJGJRNETVAIRJ-UHFFFAOYSA-N'
p2220
(lp2221
F1.3700000000000001
asg722
(lp2222
F1.73
asS'OJISWRZIEWCUBN-QIRCYJPOSA-N'
p2223
(lp2224
F0.078
aF0.16500000000000001
asS'LEQAOMBKQFMDFZ-UHFFFAOYSA-N'
p2225
(lp2226
F1.1200000000000001
asS'QAAQQTDJEXMIMF-UHFFFAOYSA-N'
p2227
(lp2228
F0.0060000000000000001
asS'RWBRUCCWZPSBFC-SJOKZOANSA-N'
p2229
(lp2230
F0.0040000000000000001
asS'DYVGYXXLXQESJE-XPLLOJBJSA-N'
p2231
(lp2232
F0.0080000000000000002
asS'BSAIUMLZVGUGKX-BQYQJAHWSA-N'
p2233
(lp2234
F1.3400000000000001
asS'JGEGJYXHCFUMJF-UHFFFAOYSA-N'
p2235
(lp2236
F1.4299999999999999
asS'BSABBBMNWQWLLU-GSVOUGTGSA-N'
p2237
(lp2238
F1.8700000000000001
asS'ZTQSAGDEMFDKMZ-UHFFFAOYSA-N'
p2239
(lp2240
F1.3
asS'IAJILQKETJEXLJ-QTBDOELSSA-N'
p2241
(lp2242
F2.2999999999999998
asg1817
(lp2243
F0.183
asS'FXHGMKSSBGDXIY-UHFFFAOYSA-N'
p2244
(lp2245
F2
asS'OJUGVDODNPJEEC-UHFFFAOYSA-N'
p2246
(lp2247
F0.76000000000000001
asS'MWKFXSUHUHTGQN-UHFFFAOYSA-N'
p2248
(lp2249
F0.050000000000000003
asS'KTPNTAOLZMSACI-UJPCIWJBSA-N'
p2250
(lp2251
F0.47999999999999998
asS'GLZPCOQZEFWAFX-JXMROGBWSA-N'
p2252
(lp2253
F0.56699999999999995
asS'YWYQTGBBEZQBGO-ZVPCKFNKSA-N'
p2254
(lp2255
F0.012
asS'GYHFUZHODSMOHU-UHFFFAOYSA-N'
p2256
(lp2257
F1.3799999999999999
asg1809
(lp2258
F0.23300000000000001
asS'MVQVNTPHUGQQHK-UHFFFAOYSA-N'
p2259
(lp2260
F0.042000000000000003
asg1028
(lp2261
F2.3700000000000001
asS'ZSIAUFGUXNUGDI-UHFFFAOYSA-N'
p2262
(lp2263
F0.158
asS'MMFCJPPRCYDLLZ-CMDGGOBGSA-N'
p2264
(lp2265
F1.8300000000000001
asS'WGCNASOHLSPBMP-UHFFFAOYSA-N'
p2266
(lp2267
F0.57999999999999996
asg1627
(lp2268
F1.3200000000000001
asS'GLZPCOQZEFWAFX-YFHOEESVSA-N'
p2269
(lp2270
F0.11700000000000001
asS'MNQZXJOMYWMBOU-VKHMYHEASA-N'
p2271
(lp2272
F0.55000000000000004
asg1035
(lp2273
F0.81999999999999995
asS'SNSWNKAIXNDOKX-SLLBYLKQSA-N'
p2274
(lp2275
F0.64000000000000001
asS'WVDDGKGOMKODPV-UHFFFAOYSA-N'
p2276
(lp2277
F0.16700000000000001
assS'1.1.1.20'
p2278
(dp2279
sS'1.1.1.27'
p2280
(dp2281
sS'2.7.1.113'
p2282
(dp2283
sS'3.5.4.9'
p2284
(dp2285
sS'3.5.4.3'
p2286
(dp2287
sS'1.3.1.70'
p2288
(dp2289
sS'1.6.5.4'
p2290
(dp2291
sS'3.5.4.6'
p2292
(dp2293
sS'3.5.4.5'
p2294
(dp2295
sS'3.5.4.4'
p2296
(dp2297
g546
(lp2298
F180
assS'3.1.2.22'
p2299
(dp2300
sS'4.1.1.65'
p2301
(dp2302
sS'2.4.1.198'
p2303
(dp2304
sS'1.3.5.1'
p2305
(dp2306
sS'3.4.11.4'
p2307
(dp2308
S'VENMDXUVHSKEIN-GUBZILKMSA-N'
p2309
(lp2310
F0.56000000000000005
asS'SGYSTDWPNPKJPP-GUBZILKMSA-N'
p2311
(lp2312
F5.2999999999999998
assS'1.2.1.29'
p2313
(dp2314
sS'3.6.3.1'
p2315
(dp2316
sS'3.6.3.6'
p2317
(dp2318
sS'3.5.99.6'
p2319
(dp2320
sS'3.6.3.9'
p2321
(dp2322
sS'1.14.13.9'
p2323
(dp2324
sS'1.14.13.8'
p2325
(dp2326
S'SRVJKTDHMYAMHA-WUXMJOGZSA-N'
p2327
(lp2328
F0.023
aF0.085000000000000006
aF1.335
asS'AEOCXXJPGCBFJA-UHFFFAOYSA-N'
p2329
(lp2330
F0.97299999999999998
asS'PMRYVIKBURPHAH-UHFFFAOYSA-N'
p2331
(lp2332
F0.037999999999999999
aF0.042999999999999997
aF0.52500000000000002
assS'1.5.1.8'
p2333
(dp2334
sS'1.14.11.4'
p2335
(dp2336
sS'1.14.11.1'
p2337
(dp2338
g399
(lp2339
F0.39000000000000001
aF0.55000000000000004
aF5.0999999999999996
assS'2.8.2.17'
p2340
(dp2341
sS'1.14.11.2'
p2342
(dp2343
S'RXTODGGZGCUMON-VXKWHMMOSA-N'
p2344
(lp2345
F6
asS'XKJACYXSYALHFD-BVSLBCMMSA-N'
p2346
(lp2347
F4.2000000000000002
asS'VVVNOTZJSFQXKB-CHWRWOIISA-N'
p2348
(lp2349
F0.22
asS'QRWOQKWSTQIQPU-SFTDATJTSA-N'
p2350
(lp2351
F7.7999999999999998
asS'XBSXQNFDBJWWOT-BDYUSTAISA-N'
p2352
(lp2353
F0.14999999999999999
assS'1.5.1.2'
p2354
(dp2355
g1031
(lp2356
F55
asS'OMGHIGVFLOPEHJ-BYPYZUCNSA-N'
p2357
(lp2358
F10
assS'1.5.1.3'
p2359
(dp2360
g960
(lp2361
F51
asg1166
(lp2362
F1.0800000000000001
asg1164
(lp2363
F8.3300000000000001
aF10
aF10
aF51
assS'1.5.1.5'
p2364
(dp2365
g1031
(lp2366
F3.7999999999999998
aF10
asS'QYNUQALWYRSVHF-ABLWVSNPSA-N'
p2367
(lp2368
F3.2000000000000002
aF9.4000000000000004
assS'1.5.1.6'
p2369
(dp2370
sS'3.4.21.35'
p2371
(dp2372
S'GHPYVMAXHWZRHO-ROUUACIJSA-N'
p2373
(lp2374
F0.0035000000000000001
asS'LATXIQYQVGEJJC-HJOGWXRNSA-N'
p2375
(lp2376
F6.0999999999999996
asS'RUAVTBUGJWJRRE-VABKMULXSA-N'
p2377
(lp2378
F0.040000000000000001
asS'CCOBFOPWDBZKQO-IPJJNNNSSA-N'
p2379
(lp2380
F0.0074999999999999997
asS'CBECFYSOGJBLKH-FKBYEOEOSA-N'
p2381
(lp2382
F0.0064999999999999997
asS'XNWUNAVBWQXOGO-WWWPNJDSSA-N'
p2383
(lp2384
F0.33000000000000002
asS'BTCWZEKYFOKVMQ-DZUOILHNSA-N'
p2385
(lp2386
F0.031
asS'UHDMYWFHWBHIAJ-NUQJMHIBSA-N'
p2387
(lp2388
F17.699999999999999
asS'CDWDQCWCHDTVHU-FXXABNLPSA-N'
p2389
(lp2390
F3.1000000000000001
asS'SJTRFFLMKSZGRQ-JQFCIGGWSA-N'
p2391
(lp2392
F0.0038
asS'USFWOAQSHMLTIU-LHPDDAPDSA-N'
p2393
(lp2394
F0.72999999999999998
asS'YTUDUOMORVJATA-SNRMKQJTSA-N'
p2395
(lp2396
F0.12
asS'OBJGWCXLPDIAKS-LJWNLINESA-N'
p2397
(lp2398
F0.91700000000000004
asS'GXOKQACKPQXZQC-HZLPDVBGSA-N'
p2399
(lp2400
F0.026700000000000002
assS'2.7.1.149'
p2401
(dp2402
sS'6.4.1.2'
p2403
(dp2404
g75
(lp2405
F0.155
asg250
(lp2406
F0.192
aF10.1
aF11.800000000000001
assS'6.4.1.3'
p2407
(dp2408
sS'6.4.1.1'
p2409
(dp2410
sS'1.14.19.1'
p2411
(dp2412
sS'3.4.21.39'
p2413
(dp2414
S'BSMIMUOMFFQXMO-ZGDGUDBWSA-N'
p2415
(lp2416
F56
asS'FRNYCQUVWVZCDR-FKBYEOEOSA-N'
p2417
(lp2418
F56
aF86
asS'UOHWRCYZPQVZLY-KCHLEUMXSA-N'
p2419
(lp2420
F7.5
asS'HGLWNAAKEQVSEW-BFYRRKHWSA-N'
p2421
(lp2422
F210
asS'CCKUMEZOVJIKNK-MGQBIDJDSA-N'
p2423
(lp2424
F68
asS'LKXGYPZLEFOYGZ-LQGLAIQGSA-N'
p2425
(lp2426
F10
asS'LKDMKWNDBAVNQZ-WJNSRDFLSA-N'
p2427
(lp2428
F65
aF2.5
aF3.6000000000000001
asS'PMDVINIXNOAYGX-QKDODKLFSA-N'
p2429
(lp2430
F120
asS'WMNLHPCAOHRAON-BOPPZIMTSA-N'
p2431
(lp2432
F160
asS'BAQAGSKMSJLKSP-MNKWLDRPSA-N'
p2433
(lp2434
F24.699999999999999
aF25.600000000000001
asS'QGHNLMGVRPPREV-YRUYCOJQSA-N'
p2435
(lp2436
F58
asS'FNQRFPHVWWKSCE-VABKMULXSA-N'
p2437
(lp2438
F100
asS'MTZBOHHLCSOETA-IPJJNNNSSA-N'
p2439
(lp2440
F21
aF21
asS'MKTCKIYGFQCTIS-VZTVMPNDSA-N'
p2441
(lp2442
F53
asS'YHDWQNOFCGFTQL-YRUYCOJQSA-N'
p2443
(lp2444
F79
asS'XZOZFJSPNPKSLH-GSDHBNRESA-N'
p2445
(lp2446
F3.8999999999999999
asS'WXLJMJFAMYVXHX-HWBMXIPRSA-N'
p2447
(lp2448
F75
aF75
asS'CFXDFGWREFEKMF-ACRUOGEOSA-N'
p2449
(lp2450
F38
asS'XOLDYOMGVDACAQ-HJOGWXRNSA-N'
p2451
(lp2452
F77
asS'QFOPGAYQILHLSR-GSDHBNRESA-N'
p2453
(lp2454
F8.4000000000000004
asS'NZPNSJNHMRBFQP-QLPRNTKGSA-N'
p2455
(lp2456
F10
asS'ADFSKYNAASCKOQ-WFXMLNOXSA-N'
p2457
(lp2458
F1.2
aF8.6999999999999993
aF8.6999999999999993
asS'FOPKXFSCSMKBTK-ZEZDXWPOSA-N'
p2459
(lp2460
F4
asS'VGQSFPRHTFAOCG-YAJHFMINSA-N'
p2461
(lp2462
F6.7000000000000002
asS'FFYPQBXBRUILGA-SDHOMARFSA-N'
p2463
(lp2464
F6.2000000000000002
asS'XNPAPYMJZRSQNE-HWBMXIPRSA-N'
p2465
(lp2466
F19
asS'XNTNHYLNJTWETI-USJZOSNVSA-N'
p2467
(lp2468
F23
asS'FGIROCKRKVGUJN-HJOGWXRNSA-N'
p2469
(lp2470
F14
asS'ORWYRWWVDCYOMK-HBZPZAIKSA-N'
p2471
(lp2472
F65
aF140
aF143
asS'PIWNYCMHNGJHLM-KCHLEUMXSA-N'
p2473
(lp2474
F5.9000000000000004
asS'RLTPUJDOELVTRF-FKBYEOEOSA-N'
p2475
(lp2476
F61
asS'LRADSKUFXJUEHR-VVWQDTPRSA-N'
p2477
(lp2478
F2.5
asS'JJYSJBMKKZTIOY-LNMJFAINSA-N'
p2479
(lp2480
F19.300000000000001
asS'SDUAKMPTDHAQKJ-XRQBVDHJSA-N'
p2481
(lp2482
F51
asS'ZCWMSMLAGCXPPA-FHQLIMNDSA-N'
p2483
(lp2484
F143
assS'6.4.1.4'
p2485
(dp2486
sS'3.3.2.6'
p2487
(dp2488
S'VUUNELJIFNFWJC-NSHDSACASA-N'
p2489
(lp2490
F0.040000000000000001
asS'PXFUDSMGEYRNNC-LURJTMIESA-N'
p2491
(lp2492
F0.59999999999999998
aF1.7
asS'PXFUDSMGEYRNNC-UHFFFAOYSA-N'
p2493
(lp2494
F1.8999999999999999
asg2309
(lp2495
F0.56000000000000005
asS'TWYRZWVFWYSNBU-UHFFFAOYSA-N'
p2496
(lp2497
F0.14999999999999999
asS'AVVSPQJVXCWBDF-UHFFFAOYSA-N'
p2498
(lp2499
F0.14999999999999999
aF0.34999999999999998
asg361
(lp2500
F0.14999999999999999
aF0.84999999999999998
aF0.84999999999999998
aF1.5
aF2.0800000000000001
asS'JWXPYNYNEUYKOW-JTQLQIEISA-N'
p2501
(lp2502
F0.14999999999999999
asS'TWYRZWVFWYSNBU-JTQLQIEISA-N'
p2503
(lp2504
F1.8999999999999999
assS'4.2.1.47'
p2505
(dp2506
S'MVMSCBBUIHUTGJ-GDJBGNAASA-N'
p2507
(lp2508
F0.80000000000000004
assS'2.4.1.119'
p2509
(dp2510
sS'1.13.11.52'
p2511
(dp2512
g418
(lp2513
F0.87
aF1
aF1.3
aF1.3999999999999999
aF1.3999999999999999
aF1.7
aF2.2000000000000002
aF2.2400000000000002
aF2.5
aF3
aF3.1000000000000001
aF3.2000000000000002
aF3.3999999999999999
aF3.5
aF4.2000000000000002
aF6.4000000000000004
aF8.0999999999999996
aF10
aF12
asS'LDCYZAJDBXYCGN-VIFPVBQESA-N'
p2514
(lp2515
F0.025000000000000001
asS'HUNCSWANZMJLPM-JTQLQIEISA-N'
p2516
(lp2517
F3.7799999999999998
asg1122
(lp2518
F0.20000000000000001
aF3.9300000000000002
aF5.9000000000000004
asS'ZADWXFSZEAPBJS-JTQLQIEISA-N'
p2519
(lp2520
F0.064000000000000001
asS'INPQIVHQSQUEAJ-VIFPVBQESA-N'
p2521
(lp2522
F0.76000000000000001
asg933
(lp2523
F2.8999999999999999
assS'5.3.1.8'
p2524
(dp2525
S'NBSCHQHZLSJFNQ-RWOPYEJCSA-N'
p2526
(lp2527
F3
assS'4.1.3.25'
p2528
(dp2529
sS'1.13.11.5'
p2530
(dp2531
S'IGMNYECMUMZDDF-UHFFFAOYSA-N'
p2532
(lp2533
F10.1
aF32.200000000000003
aF43.399999999999999
assS'1.7.14.1'
p2534
(dp2535
sS'3.4.19.9'
p2536
(dp2537
sS'3.3.2.9'
p2538
(dp2539
sS'3.1.4.37'
p2540
(dp2541
sS'5.3.3.12'
p2542
(dp2543
sS'4.1.1.23'
p2544
(dp2545
g954
(lp2546
F0.75
aF8.0999999999999996
assS'5.1.99.4'
p2547
(dp2548
S'SAHWFIOQEWXFSQ-TZQJYCFMSA-N'
p2549
(lp2550
F0.0094999999999999998
asS'KHEIXDLMIXBLRR-WAJDXPIUSA-N'
p2551
(lp2552
F0.014999999999999999
asS'IERLRQNOXCBECM-RQOYCFECSA-N'
p2553
(lp2554
F0.031
aF0.070000000000000007
assS'1.1.1.153'
p2555
(dp2556
sS'2.4.1.143'
p2557
(dp2558
sS'2.6.1.5'
p2559
(dp2560
g414
(lp2561
F1.2
asg437
(lp2562
F1
aF83
asg1467
(lp2563
F3.7999999999999998
aF69
asg399
(lp2564
F0.25
assS'1.13.11.27'
p2565
(dp2566
sS'2.4.99.7'
p2567
(dp2568
sS'1.13.11.20'
p2569
(dp2570
g215
(lp2571
F1.7
assS'5.3.1.1'
p2572
(dp2573
sS'2.3.1.76'
p2574
(dp2575
sS'3.5.1.14'
p2576
(dp2577
S'XUYPXLNMDZIRQH-LURJTMIESA-N'
p2578
(lp2579
F65
aF38.299999999999997
aF38.299999999999997
asS'BXHXAMZDCPRECC-QMMMGPOBSA-N'
p2580
(lp2581
F16.199999999999999
asS'IGIFWQPGFGHFQY-JTQLQIEISA-N'
p2582
(lp2583
F0.0062300000000000003
asS'RBAAEQRITQHPJM-LURJTMIESA-N'
p2584
(lp2585
F25.699999999999999
asS'WUVVOUFAPBDGTP-VIFPVBQESA-N'
p2586
(lp2587
F16.100000000000001
asS'OMVFHSRJYHNQFU-ZETCQYMHSA-N'
p2588
(lp2589
F0.52900000000000003
aF6.0800000000000001
asS'PEDXUVCGOLSNLQ-WUJLRWPWSA-N'
p2590
(lp2591
F2.23
asS'JDMCEGLQFSOMQH-ZETCQYMHSA-N'
p2592
(lp2593
F156
asS'BVCAPFTWLHLMJP-ZETCQYMHSA-N'
p2594
(lp2595
F12.4
asS'WXNXCEHXYPACJF-ZETCQYMHSA-N'
p2596
(lp2597
F55.5
asS'SCOFHFUTEYTKHR-VIFPVBQESA-N'
p2598
(lp2599
F13.300000000000001
asS'KSMRODHGGIIXDV-YFKPBYRVSA-N'
p2600
(lp2601
F30.699999999999999
asS'JCOYMIGUZVEFJA-QMMMGPOBSA-N'
p2602
(lp2603
F0.105
asS'IHYJTAOFMMMOPX-LURJTMIESA-N'
p2604
(lp2605
F14.699999999999999
asS'LPJXPACOXRZCCP-VIFPVBQESA-N'
p2606
(lp2607
F0.0101
asS'NZIOTNYOYJRBSN-ZETCQYMHSA-N'
p2608
(lp2609
F139
asS'PWKSKIMOESPYIA-BYPYZUCNSA-N'
p2610
(lp2611
F30
aF28.100000000000001
asS'ORGKYHFOPHPHQL-AGROOBSYSA-N'
p2612
(lp2613
F120
asS'KBOJOGQFRVVWBH-ZETCQYMHSA-N'
p2614
(lp2615
F1.2
asS'SNCJTJSQAMLIQZ-ZETCQYMHSA-N'
p2616
(lp2617
F0.0015
asS'UEDFZGJQHLHYIX-SBKAZOPESA-N'
p2618
(lp2619
F150
asS'CBQJSKKFNMDLON-JTQLQIEISA-N'
p2620
(lp2621
F0.14000000000000001
asS'PYUSHNKNPOHWEZ-YFKPBYRVSA-N'
p2622
(lp2623
F177
asS'RFMMMVDNIPUKGG-YFKPBYRVSA-N'
p2624
(lp2625
F156
aF156
asS'OKJIRPAQVSHGFK-UHFFFAOYSA-N'
p2626
(lp2627
F31.699999999999999
asS'PPFRJEXUPZWQPI-JTQLQIEISA-N'
p2628
(lp2629
F0.158
asS'XXMMIIWNECFPCS-SJQFFEKCSA-N'
p2630
(lp2631
F80
assS'3.5.1.15'
p2632
(dp2633
S'OTCCIMWXFLJLIA-BYPYZUCNSA-N'
p2634
(lp2635
F37.5
assS'3.5.1.16'
p2636
(dp2637
sS'2.3.1.78'
p2638
(dp2639
sS'3.4.11.1'
p2640
(dp2641
sS'3.5.1.12'
p2642
(dp2643
sS'3.4.11.2'
p2644
(dp2645
S'RQHPADKWNYTHOH-VIFPVBQESA-N'
p2646
(lp2647
F303
assS'3.1.3.4'
p2648
(dp2649
S'FAZBDRGXCKPVJU-MRXNPFEDSA-N'
p2650
(lp2651
F354
asS'WRGQSWVCFNIUNZ-GDCKJWNLSA-N'
p2652
(lp2653
F177
assS'3.1.3.5'
p2654
(dp2655
S'RQFCJASXJCIDSX-UUOKFMHZSA-N'
p2656
(lp2657
F132
asg1315
(lp2658
F289
asS'UGQMRVRMYYASKQ-KQYNXXCUSA-N'
p2659
(lp2660
F19
aF22
asg1711
(lp2661
F104
asg632
(lp2662
F187
asg606
(lp2663
F40
asS'KHWCHTKSEGGWEX-RRKCRQDMSA-N'
p2664
(lp2665
F174
asS'IWUCXVSUMQZMFG-AFCXAGJDSA-N'
p2666
(lp2667
F0.023
aF0.027
aF0.067000000000000004
aF0.14999999999999999
asg1313
(lp2668
F202
assS'3.1.3.7'
p2669
(dp2670
sS'2.4.1.149'
p2671
(dp2672
sS'3.1.3.1'
p2673
(dp2674
S'NGVDGCNFYWLIFO-UHFFFAOYSA-N'
p2675
(lp2676
F92
asg1707
(lp2677
F244
assS'3.1.3.2'
p2678
(dp2679
S'ZWIADYZPOWUWEW-XVFCMESISA-N'
p2680
(lp2681
F58
asS'QGWNDRXFNXRZMB-UUOKFMHZSA-N'
p2682
(lp2683
F86
asg1179
(lp2684
F93
asS'BCHIXGBGRHLSBE-UHFFFAOYSA-N'
p2685
(lp2686
F121
asg1185
(lp2687
F119
asS'UJLXYODCHAELLY-XLPZGREQSA-N'
p2688
(lp2689
F69
asS'XZKIHKMTEMTJQX-UHFFFAOYSA-N'
p2690
(lp2691
F198
asg75
(lp2692
F119
asS'YNXICDMQCQPQEW-UHFFFAOYSA-N'
p2693
(lp2694
F53
asS'XCCTYIAWTASOJW-XVFCMESISA-N'
p2695
(lp2696
F79
asg630
(lp2697
F73
asS'WMDDNKROYKCDJC-UHFFFAOYSA-N'
p2698
(lp2699
F109
asS'DTBNBXWJWCWCIK-UHFFFAOYSA-N'
p2700
(lp2701
F2
asg1183
(lp2702
F107
asS'CMPQUABWPXYYSH-UHFFFAOYSA-N'
p2703
(lp2704
F62
asg2075
(lp2705
F113
assS'3.1.3.3'
p2706
(dp2707
sS'2.4.1.145'
p2708
(dp2709
sS'2.4.1.144'
p2710
(dp2711
sS'3.4.17.1'
p2712
(dp2713
S'YFGBQHOOROIVKG-UHFFFAOYSA-N'
p2714
(lp2715
F3.4300000000000002
asS'QAUUDNIGJSLPSX-UHFFFAOYSA-N'
p2716
(lp2717
F0.042000000000000003
asS'KTQKWSPZOZKAEE-LJADHVKFSA-N'
p2718
(lp2719
F1.45
asS'FLGYJBNDDWLTQR-INIZCTEOSA-N'
p2720
(lp2721
F48.299999999999997
aF112
asS'JAPJOLBDXOXSKE-WQICJITCSA-N'
p2722
(lp2723
F44.299999999999997
asS'NOTCFISCFHKOHX-AULVFQMTSA-N'
p2724
(lp2725
F24.300000000000001
asS'LFGVVNZHOSLHJR-MIMFYIINSA-N'
p2726
(lp2727
F13.4
asS'HXJYLPIYSIXEAK-UZEKWKPYSA-N'
p2728
(lp2729
F57.299999999999997
asS'AQWSWFXLHMHNPN-UKMAJIJPSA-N'
p2730
(lp2731
F19.399999999999999
asS'PCJGZPGTCUMMOT-ISULXFBGSA-N'
p2732
(lp2733
F0.23999999999999999
asg2471
(lp2734
F8.2300000000000004
asS'URLZCHNOLZSCCA-VABKMULXSA-N'
p2735
(lp2736
F2.3300000000000001
asS'ZUBMCRJZWDZYHC-VCVRMXLYSA-N'
p2737
(lp2738
F23.899999999999999
asS'CCLJGZGVIQBNDH-HNNXBMFYSA-N'
p2739
(lp2740
F11.699999999999999
aF66.700000000000003
asS'SHXQCNAHTBAAMT-KDHVSHQXSA-N'
p2741
(lp2742
F12.4
asS'AULZEWXDQALHSZ-INIZCTEOSA-N'
p2743
(lp2744
F13.300000000000001
assS'2.4.1.141'
p2745
(dp2746
sS'3.1.3.9'
p2747
(dp2748
sS'3.6.1.39'
p2749
(dp2750
sS'2.4.1.142'
p2751
(dp2752
sS'3.6.1.1'
p2753
(dp2754
sS'4.1.2.14'
p2755
(dp2756
sS'3.6.1.5'
p2757
(dp2758
sS'3.6.1.7'
p2759
(dp2760
sS'1.6.1.2'
p2761
(dp2762
sS'3.6.1.9'
p2763
(dp2764
sS'3.6.1.6'
p2765
(dp2766
sS'4.1.3.4'
p2767
(dp2768
S'CABVTRNMFUVUDM-VRHQGPGLSA-N'
p2769
(lp2770
F0.105
aF0.127
assS'2.6.19.4'
p2771
(dp2772
sS'3.1.1.7'
p2773
(dp2774
S'GFFIJCYHQYHUHB-UHFFFAOYSA-N'
p2775
(lp2776
F6500
assS'3.1.1.4'
p2777
(dp2778
sS'3.1.1.2'
p2779
(dp2780
S'YEEDHQQUIZYWJP-UHFFFAOYSA-N'
p2781
(lp2782
F403
asg2716
(lp2783
F26
aF1300
asS'DQPGSVFUEXLEFB-UHFFFAOYSA-N'
p2784
(lp2785
F145
asS'IAWZWMGUTKRLQB-UHFFFAOYSA-N'
p2786
(lp2787
F571
asS'YKYONYBAUNKHLG-UHFFFAOYSA-N'
p2788
(lp2789
F0.40000000000000002
asS'DKPFZGUDAPQIHT-UHFFFAOYSA-N'
p2790
(lp2791
F0.27000000000000002
asS'PFJLHSIZFYNAHH-UHFFFAOYSA-N'
p2792
(lp2793
F0.81999999999999995
asS'PVDYNYCZGYOXAF-UHFFFAOYSA-N'
p2794
(lp2795
F0.5
asS'XEKOWRVHYACXOJ-UHFFFAOYSA-N'
p2796
(lp2797
F0.24199999999999999
asS'HSNBGFVFXQYLMI-UHFFFAOYSA-N'
p2798
(lp2799
F125
asS'HWCUCNKPBMGSSC-UHFFFAOYSA-N'
p2800
(lp2801
F1
asS'KEUPLGRNURQXAR-UHFFFAOYSA-N'
p2802
(lp2803
F117
asS'ZOWSJJBOQDKOHI-UHFFFAOYSA-N'
p2804
(lp2805
F4
asS'GEYKMXGLAWGAEY-UHFFFAOYSA-N'
p2806
(lp2807
F0.24399999999999999
asS'QUKGYYKBILRGFE-UHFFFAOYSA-N'
p2808
(lp2809
F0.00080000000000000004
aF0.02
asS'SEVSMVUOKAMPDO-UHFFFAOYSA-N'
p2810
(lp2811
F26
asS'SJMMFGNAJFFWNL-UHFFFAOYSA-N'
p2812
(lp2813
F334
asS'CJGXWABHYYJNJH-UHFFFAOYSA-N'
p2814
(lp2815
F23
asS'PGJQPLVEUVHSFQ-UHFFFAOYSA-N'
p2816
(lp2817
F14
asS'VIBOGIYPPWLDTI-UHFFFAOYSA-N'
p2818
(lp2819
F18
asS'BXMJPAFREVJCQB-UHFFFAOYSA-N'
p2820
(lp2821
F59
asS'CDJJKTLOZJAGIZ-UHFFFAOYSA-N'
p2822
(lp2823
F68
asS'IPBVNPXQWQGGJP-UHFFFAOYSA-N'
p2824
(lp2825
F454
aF503
aF659
aF698
aF796
aF843.60000000000002
aF843.60000000000002
aF850
aF854
aF1200
aF1541
aF1901
aF3373
aF4778
asS'ZFIOOTIKKICLOR-UHFFFAOYSA-N'
p2826
(lp2827
F51
asS'SMIOEQSLJNNKQF-UHFFFAOYSA-N'
p2828
(lp2829
F13
asS'PUNIIEHHUHGISF-UHFFFAOYSA-N'
p2830
(lp2831
F431
assS'1.1.1.62'
p2832
(dp2833
g1371
(lp2834
F4.4000000000000004
asg710
(lp2835
F0.33000000000000002
asg350
(lp2836
F0.16
asS'DNXHEGUUPJUMQT-CBZIJGRNSA-N'
p2837
(lp2838
F5.7999999999999998
assS'3.1.1.1'
p2839
(dp2840
S'DVDUMIQZEUTAGK-UHFFFAOYSA-N'
p2841
(lp2842
F190
asg2716
(lp2843
F17
aF70
asS'JLNOMNLFFZKXRM-MUUNZHRXSA-N'
p2844
(lp2845
F3.0000000000000001e-06
aF0.00027
aF0.0040000000000000001
asS'QLHFGNPCPMZWQU-JTQLQIEISA-N'
p2846
(lp2847
F651
asS'VEMKTZHHVJILDY-UXHICEINSA-N'
p2848
(lp2849
F0.034000000000000002
asS'GLVVKKSPKXTQRB-UHFFFAOYSA-N'
p2850
(lp2851
F31
asS'FRMYXXQXSOWFIV-MGBGTMOVSA-N'
p2852
(lp2853
F0.00040999999999999999
asS'UIWXSTHGICQLQT-UHFFFAOYSA-N'
p2854
(lp2855
F105
asS'UYXTWWCETRIEDR-UHFFFAOYSA-N'
p2856
(lp2857
F18
asS'RLLPVAHGXHCWKJ-MJGOQNOKSA-N'
p2858
(lp2859
F0.00080000000000000004
aF0.0028
asS'XTXRWKRVRITETP-UHFFFAOYSA-N'
p2860
(lp2861
F140
asS'XIVJNRXPRQKFRZ-UHFFFAOYSA-N'
p2862
(lp2863
F48
asS'RLLPVAHGXHCWKJ-HKUYNNGSSA-N'
p2864
(lp2865
F0.028000000000000001
aF0.056000000000000001
asS'MEGHWIAOTJPCHQ-UHFFFAOYSA-N'
p2866
(lp2867
F210
asS'YZWRNSARCRTXDS-UHFFFAOYSA-N'
p2868
(lp2869
F7
asS'GPAKSCDFLIZRDC-MGBGTMOVSA-N'
p2870
(lp2871
F1.5e-05
aF8.0000000000000007e-05
aF0.017000000000000001
assS'3.4.15.1'
p2872
(dp2873
g2714
(lp2874
F58.299999999999997
asg169
(lp2875
F2.2000000000000002
aF2.7000000000000002
aF4.2000000000000002
asS'CFRYZAQXODRSQB-CQJMVLFOSA-N'
p2876
(lp2877
F13.699999999999999
aF28.600000000000001
asS'BYMBPTPTFQSUNY-KRCBVYEFSA-N'
p2878
(lp2879
F31
aF79
aF79.900000000000006
aF101.7
asS'CSRXXRXRLYZXJK-CZZXPTITSA-N'
p2880
(lp2881
F0.20000000000000001
aF13.9
aF82
asS'QGYPBQRIGDHXNE-KRCBVYEFSA-N'
p2882
(lp2883
F7
aF28.899999999999999
aF62.5
asS'ZLAXQKOXPCIAPB-UJKKYYSESA-N'
p2884
(lp2885
F0.29999999999999999
aF0.59999999999999998
aF2
asS'ZEWJTBVOMMZVAU-YDPTYEFTSA-N'
p2886
(lp2887
F26.699999999999999
aF54.899999999999999
aF69.200000000000003
asS'QXZGBUJJYSLZLT-FDISYFBBSA-N'
p2888
(lp2889
F8.3300000000000001
asS'YGDCTOGHNZNNSC-MIPYRDRASA-N'
p2890
(lp2891
F550
asS'QMMQWUIHTBDYPV-ASQDNUSESA-N'
p2892
(lp2893
F1400
asS'YRQNNWNMKQDSMS-SKGSPYGFSA-N'
p2894
(lp2895
F0.80000000000000004
aF2
aF2.2999999999999998
asS'WVCBSRFDEBSSQR-UJKKYYSESA-N'
p2896
(lp2897
F1.8
aF3.2999999999999998
aF3.7999999999999998
asS'GQKRRZAUNABSCW-OALUTQOASA-N'
p2898
(lp2899
F383
asS'CYQZRSVDAIOAIY-UHFFFAOYSA-N'
p2900
(lp2901
F283
asS'ACMLDDRMYJNXEC-QRJIKESZSA-N'
p2902
(lp2903
F0.059999999999999998
aF1.1000000000000001
aF18.699999999999999
aF36.299999999999997
asS'MHWYEMQVORTTCS-ZCGNUHBKSA-N'
p2904
(lp2905
F368
asS'XHWDVRRNQHMAPE-CUZNLEPHSA-N'
p2906
(lp2907
F3.75
asS'GMKYRHRAUUXWAX-ZJZGAYNASA-N'
p2908
(lp2909
F0.10000000000000001
aF24.600000000000001
aF44.200000000000003
asg2732
(lp2910
F0.56699999999999995
asS'BODOSSIKMQLZKC-IDNKWEKWSA-N'
p2911
(lp2912
F1
aF2
aF3.2999999999999998
asS'YBSJCQWQTKKJKR-WGXSSYHUSA-N'
p2913
(lp2914
F0.90000000000000002
aF1
aF1.3999999999999999
asS'JWJYYPIBSUEZRQ-FQEQRRFLSA-N'
p2915
(lp2916
F2.3999999999999999
aF10.1
aF12.6
asS'VKSXBRRMCBLXTN-UJKKYYSESA-N'
p2917
(lp2918
F0.90000000000000002
aF1.3
aF2.3999999999999999
asS'MSPGIYUPGNCJRC-UJKKYYSESA-N'
p2919
(lp2920
F2.2000000000000002
asS'ZDLZKMDMBBMJLI-FDMDGMSGSA-N'
p2921
(lp2922
F179
asS'AZSPINRRKIHBAB-RMWOQXJUSA-N'
p2923
(lp2924
F460
asS'SOCTVSMLGYTVEC-DEWCAVSXSA-N'
p2925
(lp2926
F3.3999999999999999
aF5
aF10.4
asg2471
(lp2927
F0.57999999999999996
aF8.3300000000000001
aF8.6999999999999993
aF52
asS'JQPHXASFDMFJDK-YDPTYEFTSA-N'
p2928
(lp2929
F1.01
aF58.799999999999997
aF85.599999999999994
asg2735
(lp2930
F11.699999999999999
asS'AAXWBCKQYLBQKY-IRXDYDNUSA-N'
p2931
(lp2932
F76.700000000000003
aF196
aF414
aF545
asS'CKPBASVDHBIVNU-KODIBZKNSA-N'
p2933
(lp2934
F2.6000000000000001
aF2.8999999999999999
aF8.6999999999999993
asS'YLUZUCSDKWAKGR-RYICAFHUSA-N'
p2935
(lp2936
F1
aF1.3999999999999999
aF4.2000000000000002
asS'XCTDNJFYSVYEAC-WGXSSYHUSA-N'
p2937
(lp2938
F3
aF3.7000000000000002
aF4.7999999999999998
assS'4.4.1.1'
p2939
(dp2940
g215
(lp2941
F0.40000000000000002
aF0.67000000000000004
asg203
(lp2942
F3.5
aF3.7000000000000002
asS'ILRYLPWNYFXEMH-WHFBIAKZSA-N'
p2943
(lp2944
F1.8999999999999999
aF1.7
aF1.8999999999999999
aF7.5
assS'4.4.1.5'
p2945
(dp2946
S'JKRODHBGNBKZLE-YUMQZZPRSA-N'
p2947
(lp2948
F164
asS'NEDQLXHBVHSKNV-STQMWFEESA-N'
p2949
(lp2950
F83
asg207
(lp2951
F1360
asg280
(lp2952
F104
asS'AIJULSRZWUXGPQ-UHFFFAOYSA-N'
p2953
(lp2954
F1130
aF1130
asg2246
(lp2955
F1070
aF1070
asS'MVNCPACIPXNJIW-IUCAKERBSA-N'
p2956
(lp2957
F222
assS'3.2.1.18'
p2958
(dp2959
sS'3.2.2.5'
p2960
(dp2961
sS'3.2.1.10'
p2962
(dp2963
sS'3.2.1.14'
p2964
(dp2965
S'GLFUTORXYSMPOK-WOIRZSRHSA-N'
p2966
(lp2967
F0.050000000000000003
assS'2.4.1.80'
p2968
(dp2969
sS'3.5.1.89'
p2970
(dp2971
sS'4.2.1.1'
p2972
(dp2973
S'CURLTUGMZLYLDI-UHFFFAOYSA-N'
p2974
(lp2975
F0.00040000000000000002
aF800
aF13000
aF13000
aF18300
aF130000
aF150000
aF150000
aF150000
aF200000
aF1400000
aF1400000
asS'BVKZGUZCCUSVTD-UHFFFAOYSA-M'
p2976
(lp2977
F28700
aF29500
assS'1.3.1.2'
p2978
(dp2979
sS'1.3.1.1'
p2980
(dp2981
sS'3.4.13.3'
p2982
(dp2983
sS'3.5.4.1'
p2984
(dp2985
sS'2.7.1.137'
p2986
(dp2987
sS'2.7.1.134'
p2988
(dp2989
sS'2.1.4.1'
p2990
(dp2991
sS'3.1.3.36'
p2992
(dp2993
sS'2.7.1.138'
p2994
(dp2995
sS'2.7.1.48'
p2996
(dp2997
S'UHDGCWIWMRVCDJ-XVFCMESISA-N'
p2998
(lp2999
F3.2000000000000002
assS'3.5.1.3'
p3000
(dp3001
sS'2.1.2.5'
p3002
(dp3003
sS'2.7.1.40'
p3004
(dp3005
sS'1.1.1.188'
p3006
(dp3007
S'AEMFNILZOJDQLW-QAGGRKNESA-N'
p3008
(lp3009
F0.0027000000000000001
asg665
(lp3010
F1.3999999999999999
assS'2.7.1.47'
p3011
(dp3012
sS'2.1.2.2'
p3013
(dp3014
S'QHUBQNFYSLRYQG-KRWDZBQOSA-N'
p3015
(lp3016
F0.0019
aF0.0058999999999999999
aF0.017999999999999999
aF0.031
aF0.042999999999999997
aF0.10199999999999999
asS'OBQMLSFOUZUIOB-SHUUEZRQSA-N'
p3017
(lp3018
F0.0033999999999999998
aF0.026200000000000001
aF0.066199999999999995
aF0.26200000000000001
aF0.29299999999999998
aF0.63
aF7.5
assS'6.2.1.24'
p3019
(dp3020
sS'6.2.1.4'
p3021
(dp3022
sS'6.2.1.5'
p3023
(dp3024
sS'6.2.1.7'
p3025
(dp3026
sS'6.2.1.1'
p3027
(dp3028
sS'6.2.1.2'
p3029
(dp3030
sS'6.2.1.3'
p3031
(dp3032
sS'1.13.99.1'
p3033
(dp3034
sS'1.1.1.184'
p3035
(dp3036
g960
(lp3037
F179
asg650
(lp3038
F3.4700000000000002
aF6.7000000000000002
asg276
(lp3039
F0.010999999999999999
aF0.28000000000000003
aF0.29999999999999999
aF0.68000000000000005
aF110
asg1590
(lp3040
F0.0103
aF0.29999999999999999
aF1.2
asg1611
(lp3041
F0.17000000000000001
aF9.7699999999999996
asg1627
(lp3042
F0.32000000000000001
aF5.1299999999999999
asg1216
(lp3043
F0.0103
aF0.20999999999999999
asS'XEYBRNLFEZDVAW-ARSRFYASSA-N'
p3044
(lp3045
F25
asg292
(lp3046
F0.25
aF0.55000000000000004
asS'STQGQHZAVUOBTE-VGBVRHCVSA-N'
p3047
(lp3048
F1.9399999999999999
aF91
asg522
(lp3049
F2.6200000000000001
asg665
(lp3050
F3.5699999999999998
aF5.25
aF6.7000000000000002
assS'4.1.1.33'
p3051
(dp3052
S'DKXZSGIZFNWMLJ-ZCFIWIBFSA-N'
p3053
(lp3054
F4.5
assS'4.1.1.32'
p3055
(dp3056
sS'2.1.1.20'
p3057
(dp3058
g480
(lp3059
F1.6000000000000001
asg1124
(lp3060
F1.6000000000000001
assS'4.1.1.30'
p3061
(dp3062
sS'4.1.1.37'
p3063
(dp3064
sS'4.1.1.36'
p3065
(dp3066
S'XQYALQVLCNHCFT-CBAPKCEASA-N'
p3067
(lp3068
F2.8999999999999999
assS'4.1.1.35'
p3069
(dp3070
sS'4.1.1.34'
p3071
(dp3072
sS'2.1.1.28'
p3073
(dp3074
S'ULSIYEODSMZIPX-UHFFFAOYSA-N'
p3075
(lp3076
F0.042999999999999997
aF0.044999999999999998
aF0.047
asS'QHGUCRYDKWKLMG-UHFFFAOYSA-N'
p3077
(lp3078
F0.02
aF0.021000000000000001
asS'IIMSEFZOOYSTDO-VHSXEESVSA-N'
p3079
(lp3080
F0.0047999999999999996
asg480
(lp3081
F0.047300000000000002
asS'QFRCSJBYSNCGPY-UHFFFAOYSA-N'
p3082
(lp3083
F0.0061999999999999998
asS'RRBRWAPWPGAJMA-UHFFFAOYSA-N'
p3084
(lp3085
F0.0080000000000000002
aF0.0083000000000000001
assS'3.1.3.46'
p3086
(dp3087
sS'3.1.3.41'
p3088
(dp3089
sS'1.2.1.4'
p3090
(dp3091
sS'1.13.11.11'
p3092
(dp3093
g2514
(lp3094
F0.065000000000000002
asg418
(lp3095
F1.55
aF0.59999999999999998
aF1.3999999999999999
aF1.3999999999999999
aF2.1000000000000001
aF6.1200000000000001
asg2521
(lp3096
F0.17999999999999999
asg1122
(lp3097
F2.0699999999999998
aF0.20000000000000001
assS'4.6.1.2'
p3098
(dp3099
sS'4.6.1.1'
p3100
(dp3101
sS'2.8.3.5'
p3102
(dp3103
sS'1.13.11.19'
p3104
(dp3105
sS'3.5.3.1'
p3106
(dp3107
S'ODKSFYDXXFIFQN-BYPYZUCNSA-N'
p3108
(lp3109
F190
aF190
assS'3.1.1.3'
p3110
(dp3111
sS'5.5.1.4'
p3112
(dp3113
sS'4.3.1.4'
p3114
(dp3115
sS'5.2.1.2'
p3116
(dp3117
S'GACSIVHAIFQKTC-UPHRSURJSA-N'
p3118
(lp3119
F464
asg1284
(lp3120
F0.55000000000000004
aF0.58999999999999997
aF0.81999999999999995
aF1.3
assS'5.3.1.9'
p3121
(dp3122
g1483
(lp3123
F500
asS'BGWGXPAPYGQALX-VRPWFDPXSA-N'
p3124
(lp3125
F3330
assS'2.4.1.201'
p3126
(dp3127
sS'1.5.3.11'
p3128
(dp3129
sS'1.1.1.9'
p3130
(dp3131
sS'2.4.99.6'
p3132
(dp3133
sS'2.4.1.148'
p3134
(dp3135
sS'1.2.4.4'
p3136
(dp3137
g426
(lp3138
F3.2999999999999998
aF9.4000000000000004
aF0.1983
assS'3.10.1.1'
p3139
(dp3140
sS'1.14.11.18'
p3141
(dp3142
sS'2.1.2.10'
p3143
(dp3144
sS'2.4.99.1'
p3145
(dp3146
sS'2.4.99.8'
p3147
(dp3148
sS'1.5.1.20'
p3149
(dp3150
sS'2.4.1.147'
p3151
(dp3152
sS'3.1.6.4'
p3153
(dp3154
sS'3.2.1.1'
p3155
(dp3156
S'RDZZHXLYJSZTDQ-QUYVBRFLSA-N'
p3157
(lp3158
F443
asS'KMYYNUOXSFGLNX-XFNLHOCBSA-N'
p3159
(lp3160
F2.98
aF1.8999999999999999
aF2
aF2.1000000000000001
aF2.2000000000000002
aF2.3999999999999999
aF3.5
aF4.4000000000000004
aF15.800000000000001
asS'FFFVUJZCDBUWRY-WUZXSGHDSA-N'
p3161
(lp3162
F283
aF285
asS'XRWPEPZTMTVFPI-UYDBUFRNSA-N'
p3163
(lp3164
F175
asS'MPJMJSVSVMGORJ-PICCSMPSSA-N'
p3165
(lp3166
F150
assS'2.4.1.1'
p3167
(dp3168
sS'3.2.1.3'
p3169
(dp3170
sS'4.2.1.4'
p3171
(dp3172
sS'4.2.1.2'
p3173
(dp3174
sS'4.2.1.3'
p3175
(dp3176
sS'6.3.2.5'
p3177
(dp3178
g1179
(lp3179
F0.53000000000000003
asg75
(lp3180
F0.56000000000000005
assS'1.1.1.50'
p3181
(dp3182
S'MUMGGOZAMZWBJJ-DYKIIFRCSA-N'
p3183
(lp3184
F0.075700000000000003
asS'YLEUWNOTNJZCBN-CZTKNSHGSA-N'
p3185
(lp3186
F1.5999999999999999e-05
aF0.012
asS'AURFZBICLPNKBZ-SYBPFIFISA-N'
p3187
(lp3188
F0.00017000000000000001
asS'RAJWOBJTTGJROA-RNQTWYFASA-N'
p3189
(lp3190
F1.8999999999999999
asg960
(lp3191
F0.0030000000000000001
asg1638
(lp3192
F0.0167
aF0.017999999999999999
aF0.050000000000000003
asS'YLEUWNOTNJZCBN-XAAPQAIWSA-N'
p3193
(lp3194
F1.5999999999999999e-05
aF0.00050000000000000001
aF0.0040000000000000001
aF0.016
asS'IBMZAHKIAAJREF-MZQZJKNOSA-N'
p3195
(lp3196
F0.0023
aF0.0025000000000000001
aF0.045999999999999999
aF0.073499999999999996
asg710
(lp3197
F0.0038
aF0.02
aF0.039800000000000002
aF0.096500000000000002
aF0.114
aF0.0167
asg1031
(lp3198
F0.00017000000000000001
asS'XQARIKRDYJHYTM-UHFFFAOYSA-N'
p3199
(lp3200
F0.14000000000000001
asS'XMRPGKVKISIQBV-BJMCWZGWSA-N'
p3201
(lp3202
F0.0030000000000000001
aF0.0040000000000000001
aF0.0080000000000000002
aF0.040000000000000001
asg665
(lp3203
F18.899999999999999
asg514
(lp3204
F0.0078300000000000002
aF0.13300000000000001
asS'SDQLXVZKRIGEKD-UHFFFAOYSA-N'
p3205
(lp3206
F0.0040000000000000001
aF0.0167
aF0.20300000000000001
aF0.32000000000000001
aF0.50700000000000001
asg772
(lp3207
F1.0800000000000001
assS'3.2.1.25'
p3208
(dp3209
sS'1.14.13.17'
p3210
(dp3211
S'UCTLRSWJYQTBFZ-DDPQNLDTSA-N'
p3212
(lp3213
F0.040000000000000001
asS'IZVFFXVYBHFIHY-SKCNUYALSA-N'
p3214
(lp3215
F0.059999999999999998
aF0.12
assS'2.6.1.22'
p3216
(dp3217
sS'2.6.1.21'
p3218
(dp3219
sS'6.3.4.1'
p3220
(dp3221
sS'6.3.4.3'
p3222
(dp3223
sS'4.99.1.1'
p3224
(dp3225
S'PTFCDOFLOPIGGS-UHFFFAOYSA-N'
p3226
(lp3227
F3.2000000000000002
aF3.5
asS'RKCAIXNGYQCCAL-CEVVSZFKSA-N'
p3228
(lp3229
F0.057299999999999997
asS'CWYNVVGOOAEACU-UHFFFAOYSA-N'
p3230
(lp3231
F0.017999999999999999
aF0.10000000000000001
assS'3.5.3.11'
p3232
(dp3233
S'QYPPJABKJHAVHS-UHFFFAOYSA-N'
p3234
(lp3235
F3
assS'1.1.1.204'
p3236
(dp3237
sS'1.1.1.205'
p3238
(dp3239
g1711
(lp3240
F0.023300000000000001
aF0.029999999999999999
aF0.17999999999999999
aF0.31
aF1.3999999999999999
aF1.47
aF1.8
asg270
(lp3241
F0.021700000000000001
aF0.025000000000000001
aF0.39000000000000001
assS'1.1.1.161'
p3242
(dp3243
sS'2.4.1.41'
p3244
(dp3245
S'HRJMVSYHSVDIJI-LQVRMVFCSA-N'
p3246
(lp3247
F0.040000000000000001
aF0.058000000000000003
aF0.13700000000000001
aF0.14999999999999999
aF0.218
aF0.22
aF0.23999999999999999
aF0.33000000000000002
asS'LKWXSPWZGSKEOP-LQVRMVFCSA-N'
p3248
(lp3249
F0.127
asS'CUMMJFMZAPUHSK-GFRUNGTMSA-N'
p3250
(lp3251
F0.040000000000000001
aF0.050000000000000003
aF0.051999999999999998
aF0.052999999999999999
aF0.123
aF0.193
asS'RMOHKJTUZKUWFK-LQVRMVFCSA-N'
p3252
(lp3253
F0.067000000000000004
aF0.074999999999999997
aF0.10299999999999999
aF0.108
aF0.17000000000000001
aF0.28999999999999998
aF0.31
aF0.40000000000000002
asS'GPFLHPRUUZLGFP-PPNNXVHVSA-N'
p3254
(lp3255
F0.52000000000000002
aF0.76000000000000001
aF1.3999999999999999
assS'2.3.1.88'
p3256
(dp3257
sS'1.2.1.32'
p3258
(dp3259
sS'3.2.1.113'
p3260
(dp3261
S'YCSLVHWAMHEXLV-IPSCQJQJSA-N'
p3262
(lp3263
F3.7000000000000002
asS'XKWOYMOGTLQCQM-ODUOZAIISA-N'
p3264
(lp3265
F3.7000000000000002
assS'2.3.1.86'
p3266
(dp3267
sS'3.2.1.114'
p3268
(dp3269
S'IFBHRQDFSNCLOZ-GCHJQGSQSA-N'
p3270
(lp3271
F0.0025000000000000001
asS'QIGJYVCQYDKYDW-LBGGPIGOSA-N'
p3272
(lp3273
F4.6699999999999999
assS'2.3.1.85'
p3274
(dp3275
g1950
(lp3276
F2.7000000000000002
asg250
(lp3277
F2.7000000000000002
assS'3.5.1.42'
p3278
(dp3279
sS'1.2.1.24'
p3280
(dp3281
sS'3.2.1.51'
p3282
(dp3283
sS'3.2.1.50'
p3284
(dp3285
sS'3.2.1.52'
p3286
(dp3287
sS'3.6.1.45'
p3288
(dp3289
sS'3.6.1.43'
p3290
(dp3291
sS'2.1.1.114'
p3292
(dp3293
sS'2.4.1.117'
p3294
(dp3295
sS'1.3.3.3'
p3296
(dp3297
S'TYUUJNDMZMREDW-UHFFFAOYSA-N'
p3298
(lp3299
F6.0000000000000002e-06
asS'XZGOFAVRAJJBHF-UHFFFAOYSA-N'
p3300
(lp3301
F0.000165
asS'POZPKGHGQULZAO-UHFFFAOYSA-N'
p3302
(lp3303
F0.01167
aF0.028299999999999999
aF0.042999999999999997
asS'HTOLCBBKGVOLFK-IUNJRDNESA-N'
p3304
(lp3305
F0.0063299999999999997
asS'BXZUJYPTQMCSAD-UHFFFAOYSA-N'
p3306
(lp3307
F0.0063
asS'HINHRTVWFJENDG-UJJXFSCMSA-N'
p3308
(lp3309
F0.027
asS'WGFZINXENRCSBF-UHFFFAOYSA-N'
p3310
(lp3311
F0.0016999999999999999
asS'NIUVHXTXUXOFEB-UHFFFAOYSA-N'
p3312
(lp3313
F0.0033
aF0.0033
aF0.012500000000000001
aF0.016160000000000001
aF0.026700000000000002
aF0.044999999999999998
aF0.055
aF0.059999999999999998
aF0.059999999999999998
aF0.059999999999999998
aF1.8
aF16
asS'NJOHCPMVGKOWTE-UHFFFAOYSA-N'
p3314
(lp3315
F0.13170000000000001
asS'KRQBHRDDDQYZMF-UHFFFAOYSA-N'
p3316
(lp3317
F0.0089999999999999993
asS'UPVGACOTQJVOMR-UHFFFAOYSA-N'
p3318
(lp3319
F0.028299999999999999
asS'XDBLMRUKSLSFGO-UHFFFAOYSA-N'
p3320
(lp3321
F0.0063
assS'1.14.13.67'
p3322
(dp3323
sS'2.3.1.39'
p3324
(dp3325
sS'2.3.1.38'
p3326
(dp3327
sS'2.3.1.37'
p3328
(dp3329
sS'1.14.11.8'
p3330
(dp3331
sS'4.2.1.74'
p3332
(dp3333
sS'4.2.1.75'
p3334
(dp3335
S'WDFJYRZCZIUBPR-UHFFFAOYSA-N'
p3336
(lp3337
F5.8300000000000001
aF30
aF890
assS'6.3.4.4'
p3338
(dp3339
sS'1.1.1.19'
p3340
(dp3341
sS'1.1.1.14'
p3342
(dp3343
sS'1.1.1.15'
p3344
(dp3345
sS'1.1.1.12'
p3346
(dp3347
sS'1.1.1.10'
p3348
(dp3349
S'YTBSYETUWUMLBZ-IMJSIDKUSA-N'
p3350
(lp3351
F0.52000000000000002
asg83
(lp3352
F0.10000000000000001
asS'YTBSYETUWUMLBZ-QWWZWVQMSA-N'
p3353
(lp3354
F0.81999999999999995
asS'RXKJFZQQPQGTFL-UHFFFAOYSA-N'
p3355
(lp3356
F0.23000000000000001
asg270
(lp3357
F1.5
asg2205
(lp3358
F0.52000000000000002
asg960
(lp3359
F1.5
asS'HEBKCHPVOIAQTA-SCDXWVJYSA-N'
p3360
(lp3361
F0.59999999999999998
asg1616
(lp3362
F1.5700000000000001
aF1.6000000000000001
asS'UQPHVQVXLPRNCX-VKHMYHEASA-N'
p3363
(lp3364
F0.59999999999999998
asg1031
(lp3365
F0.65000000000000002
asg266
(lp3366
F3.7999999999999998
asg1824
(lp3367
F0.52000000000000002
asS'ROWKJAVDOGWPAT-UHFFFAOYSA-N'
p3368
(lp3369
F0.65000000000000002
asS'UNXHWFMMPAWVPI-QWWZWVQMSA-N'
p3370
(lp3371
F0.47999999999999998
asS'YTBSYETUWUMLBZ-IUYQGCFVSA-N'
p3372
(lp3373
F0.42999999999999999
asS'LQXVFWRQNMEDEE-PYHARJCCSA-N'
p3374
(lp3375
F0.65000000000000002
assS'2.4.1.228'
p3376
(dp3377
sS'2.7.1.82'
p3378
(dp3379
S'HZAXFHJVJLSVMW-UHFFFAOYSA-N'
p3380
(lp3381
F0.00016000000000000001
assS'1.1.1.1'
p3382
(dp3383
S'AMQJEAYHLZJPGS-UHFFFAOYSA-N'
p3384
(lp3385
F0.183
aF0.245
aF0.66700000000000004
aF8
aF16
asg1596
(lp3386
F0.017999999999999999
aF0.55000000000000004
aF1.8300000000000001
asS'MBBOMCVGYCRMEA-UHFFFAOYSA-N'
p3387
(lp3388
F1.8300000000000001
asS'PDWIQYODPROSQH-PYHARJCCSA-N'
p3389
(lp3390
F2.8300000000000001
asS'PLILDISEFZJECC-ITCDGTHUSA-N'
p3391
(lp3392
F0.16700000000000001
aF7.8300000000000001
aF20
asg2259
(lp3393
F0.68300000000000005
asg2220
(lp3394
F3.3300000000000001
asg525
(lp3395
F2.9500000000000002
aF3.0299999999999998
aF4
aF0.33300000000000002
asS'ZENOXNGFMSCLLL-UHFFFAOYSA-N'
p3396
(lp3397
F0.46700000000000003
aF8.6699999999999999
asS'FPIPGXGPPPQFEQ-BOOMUCAASA-N'
p3398
(lp3399
F0.087999999999999995
aF2.5
asS'LFQSCWFLJHTTHZ-UHFFFAOYSA-N'
p3400
(lp3401
F0.69999999999999996
aF2.5
aF3.8300000000000001
aF4
aF7.8300000000000001
aF30.699999999999999
asS'KFZMGEQAYNKOFK-UHFFFAOYSA-N'
p3402
(lp3403
F0.75
asS'KBPLFHHGFOOTCA-UHFFFAOYSA-N'
p3404
(lp3405
F2.8300000000000001
aF4.3300000000000001
aF7.3300000000000001
aF8.3300000000000001
asS'BDERNNFJNOPAEC-UHFFFAOYSA-N'
p3406
(lp3407
F17.199999999999999
asS'UGAGPNKCDRTDHP-UHFFFAOYSA-N'
p3408
(lp3409
F6.1699999999999999
asg1981
(lp3410
F0.028000000000000001
aF0.25
aF0.40000000000000002
aF0.90000000000000002
asS'HPXRVTGHNJAIIH-UHFFFAOYSA-N'
p3411
(lp3412
F0.58299999999999996
asg270
(lp3413
F0.71699999999999997
asS'LRHPLDYGYMQRHN-UHFFFAOYSA-N'
p3414
(lp3415
F0.69999999999999996
aF34.799999999999997
asS'NCYCYZXNIZJOKI-HWCYFHEPSA-N'
p3416
(lp3417
F0.22
aF1.22
asg2262
(lp3418
F19.5
asS'OKKJLVBELUTLKV-UHFFFAOYSA-N'
p3419
(lp3420
F0.10199999999999999
asS'LYCAIKOWRPUZTN-UHFFFAOYSA-N'
p3421
(lp3422
F0.75
asS'BTANRVKWQNVYAZ-BYPYZUCNSA-N'
p3423
(lp3424
F2.1699999999999999
asS'IOELQUUUYMBPSA-ITCDGTHUSA-N'
p3425
(lp3426
F0.091999999999999998
aF2.8300000000000001
aF34.200000000000003
asS'VAJVDSVGBWFCLW-UHFFFAOYSA-N'
p3427
(lp3428
F7.5
asg2276
(lp3429
F4.6699999999999999
aF9.1699999999999999
assS'1.1.1.2'
p3430
(dp3431
S'WRMNZCZEMHIOCP-UHFFFAOYSA-N'
p3432
(lp3433
F0.028299999999999999
asg3396
(lp3434
F0.14799999999999999
asS'DNIAPMSPPWPWGF-UHFFFAOYSA-N'
p3435
(lp3436
F0.043299999999999998
asS'PWMWNFMRSKOCEY-UHFFFAOYSA-N'
p3437
(lp3438
F0.080000000000000002
asg772
(lp3439
F9.5
asg2276
(lp3440
F0.073300000000000004
asS'PEDCQBHIVMGVHV-UHFFFAOYSA-N'
p3441
(lp3442
F0.028299999999999999
assS'1.13.11.31'
p3443
(dp3444
g1666
(lp3445
F2.5
aF14
aF17.800000000000001
aF46
aF1.3999999999999999
aF20
asg933
(lp3446
F13.1
assS'1.1.1.8'
p3447
(dp3448
sS'4.3.1.19'
p3449
(dp3450
sS'3.2.1.20'
p3451
(dp3452
sS'3.2.1.21'
p3453
(dp3454
sS'3.2.1.22'
p3455
(dp3456
sS'3.2.1.23'
p3457
(dp3458
sS'3.2.1.24'
p3459
(dp3460
sS'4.2.3.1'
p3461
(dp3462
sS'4.2.3.2'
p3463
(dp3464
sS'4.2.3.3'
p3465
(dp3466
sS'3.2.1.28'
p3467
(dp3468
sS'1.13.11.34'
p3469
(dp3470
sS'1.2.1.21'
p3471
(dp3472
sS'2.8.2.23'
p3473
(dp3474
sS'2.3.2.4'
p3475
(dp3476
sS'2.3.2.2'
p3477
(dp3478
S'TYMLOMAKGOJONV-UHFFFAOYSA-N'
p3479
(lp3480
F1150
assa(lp3481
g9
ag11
ag13
ag15
ag17
ag19
ag21
ag23
ag25
ag27
ag29
ag31
ag33
ag35
ag37
ag39
ag41
ag43
ag45
ag47
ag49
ag51
ag53
ag55
ag57
ag59
ag61
ag63
ag65
ag67
ag69
ag75
ag83
ag93
ag95
ag97
ag99
ag101
ag103
ag109
ag119
ag121
ag123
ag125
ag127
ag129
ag131
ag133
ag135
ag137
ag139
ag141
ag143
ag145
ag161
ag163
ag165
ag167
ag169
ag171
ag173
ag175
ag177
ag179
ag181
ag183
ag185
ag187
ag189
ag191
ag193
ag195
ag197
ag199
ag203
ag205
ag207
ag209
ag211
ag213
ag215
ag217
ag233
ag235
ag239
ag248
ag250
ag258
ag264
ag266
ag268
ag270
ag274
ag276
ag278
ag280
ag282
ag284
ag286
ag288
ag290
ag292
ag294
ag296
ag316
ag319
ag321
ag336
ag338
ag350
ag352
ag361
ag363
ag369
ag379
ag381
ag383
ag391
ag393
ag395
ag397
ag399
ag401
ag403
ag405
ag407
ag410
ag412
ag414
ag416
ag418
ag420
ag422
ag424
ag426
ag428
ag431
ag433
ag435
ag437
ag439
ag454
ag472
ag474
ag480
ag504
ag506
ag508
ag510
ag512
ag514
ag520
ag522
ag525
ag534
ag536
ag538
ag540
ag546
ag550
ag552
ag554
ag556
ag558
ag560
ag562
ag564
ag566
ag589
ag591
ag593
ag595
ag597
ag599
ag601
ag604
ag606
ag608
ag610
ag612
ag614
ag616
ag618
ag620
ag622
ag630
ag632
ag645
ag650
ag652
ag654
ag656
ag660
ag662
ag665
ag672
ag674
ag676
ag678
ag680
ag682
ag690
ag692
ag710
ag720
ag722
ag724
ag726
ag728
ag730
ag732
ag734
ag736
ag738
ag740
ag742
ag744
ag746
ag748
ag750
ag752
ag754
ag756
ag758
ag760
ag762
ag764
ag766
ag768
ag770
ag772
ag775
ag777
ag779
ag781
ag783
ag785
ag787
ag789
ag791
ag793
ag795
ag797
ag799
ag801
ag803
ag805
ag807
ag815
ag817
ag819
ag821
ag823
ag825
ag835
ag837
ag841
ag843
ag845
ag847
ag849
ag851
ag853
ag855
ag857
ag859
ag875
ag881
ag883
ag885
ag887
ag889
ag911
ag913
ag931
ag933
ag952
ag954
ag956
ag960
ag962
ag965
ag977
ag981
ag989
ag991
ag1028
ag1031
ag1033
ag1035
ag1037
ag1041
ag1043
ag1045
ag1057
ag1063
ag1065
ag1067
ag1069
ag1072
ag1074
ag1076
ag1080
ag1082
ag1089
ag1102
ag1110
ag1112
ag1114
ag1116
ag1118
ag1120
ag1122
ag1124
ag1126
ag1138
ag1156
ag1158
ag1160
ag1162
ag1164
ag1166
ag1168
ag1171
ag1173
ag1177
ag1179
ag1181
ag1183
ag1185
ag1197
ag1199
ag1216
ag1218
ag1238
ag1240
ag1242
ag1244
ag1246
ag1248
ag1262
ag1264
ag1266
ag1268
ag1270
ag1272
ag1274
ag1276
ag1278
ag1280
ag1282
ag1284
ag1286
ag1293
ag1311
ag1313
ag1315
ag1317
ag1328
ag1344
ag1360
ag1362
ag1365
ag1367
ag1369
ag1371
ag1386
ag1392
ag1394
ag1396
ag1398
ag1400
ag1402
ag1404
ag1406
ag1408
ag1410
ag1412
ag1414
ag1416
ag1418
ag1420
ag1422
ag1424
ag1426
ag1428
ag1430
ag1432
ag1434
ag1436
ag1438
ag1440
ag1442
ag1444
ag1448
ag1450
ag1455
ag1463
ag1467
ag1471
ag1483
ag1485
ag1487
ag1489
ag1495
ag1503
ag1505
ag1512
ag1566
ag1574
ag1576
ag1578
ag1590
ag1592
ag1594
ag1596
ag1598
ag1600
ag1603
ag1605
ag1607
ag1609
ag1611
ag1613
ag1616
ag1618
ag1620
ag1622
ag1625
ag1627
ag1629
ag1631
ag1635
ag1638
ag1640
ag1642
ag1645
ag1647
ag1650
ag1652
ag1655
ag1657
ag1659
ag1664
ag1666
ag1670
ag1674
ag1681
ag1683
ag1685
ag1687
ag1689
ag1691
ag1693
ag1707
ag1709
ag1711
ag1713
ag1715
ag1717
ag1725
ag1737
ag1747
ag1753
ag1761
ag1765
ag1802
ag1809
ag1814
ag1817
ag1822
ag1824
ag1826
ag1828
ag1834
ag1840
ag1842
ag1845
ag1847
ag1863
ag1865
ag1867
ag1869
ag1871
ag1874
ag1877
ag1879
ag1881
ag1884
ag1886
ag1892
ag1894
ag1922
ag1924
ag1926
ag1928
ag1930
ag1932
ag1934
ag1942
ag1950
ag1958
ag1960
ag1981
ag1993
ag1995
ag1998
ag2022
ag2028
ag2030
ag2034
ag2036
ag2038
ag2040
ag2047
ag2049
ag2051
ag2053
ag2055
ag2057
ag2059
ag2061
ag2064
ag2066
ag2068
ag2070
ag2072
ag2075
ag2077
ag2079
ag2082
ag2090
ag2097
ag2105
ag2119
ag2127
ag2155
ag2157
ag2159
ag2162
ag2178
ag2183
ag2186
ag2203
ag2205
ag2207
ag2209
ag2212
ag2215
ag2217
ag2220
ag2223
ag2225
ag2227
ag2229
ag2231
ag2233
ag2235
ag2237
ag2239
ag2241
ag2244
ag2246
ag2248
ag2250
ag2252
ag2254
ag2256
ag2259
ag2262
ag2264
ag2266
ag2269
ag2271
ag2274
ag2276
ag2309
ag2311
ag2327
ag2329
ag2331
ag2344
ag2346
ag2348
ag2350
ag2352
ag2357
ag2367
ag2373
ag2375
ag2377
ag2379
ag2381
ag2383
ag2385
ag2387
ag2389
ag2391
ag2393
ag2395
ag2397
ag2399
ag2415
ag2417
ag2419
ag2421
ag2423
ag2425
ag2427
ag2429
ag2431
ag2433
ag2435
ag2437
ag2439
ag2441
ag2443
ag2445
ag2447
ag2449
ag2451
ag2453
ag2455
ag2457
ag2459
ag2461
ag2463
ag2465
ag2467
ag2469
ag2471
ag2473
ag2475
ag2477
ag2479
ag2481
ag2483
ag2489
ag2491
ag2493
ag2496
ag2498
ag2501
ag2503
ag2507
ag2514
ag2516
ag2519
ag2521
ag2526
ag2532
ag2549
ag2551
ag2553
ag2578
ag2580
ag2582
ag2584
ag2586
ag2588
ag2590
ag2592
ag2594
ag2596
ag2598
ag2600
ag2602
ag2604
ag2606
ag2608
ag2610
ag2612
ag2614
ag2616
ag2618
ag2620
ag2622
ag2624
ag2626
ag2628
ag2630
ag2634
ag2646
ag2650
ag2652
ag2656
ag2659
ag2664
ag2666
ag2675
ag2680
ag2682
ag2685
ag2688
ag2690
ag2693
ag2695
ag2698
ag2700
ag2703
ag2714
ag2716
ag2718
ag2720
ag2722
ag2724
ag2726
ag2728
ag2730
ag2732
ag2735
ag2737
ag2739
ag2741
ag2743
ag2769
ag2775
ag2781
ag2784
ag2786
ag2788
ag2790
ag2792
ag2794
ag2796
ag2798
ag2800
ag2802
ag2804
ag2806
ag2808
ag2810
ag2812
ag2814
ag2816
ag2818
ag2820
ag2822
ag2824
ag2826
ag2828
ag2830
ag2837
ag2841
ag2844
ag2846
ag2848
ag2850
ag2852
ag2854
ag2856
ag2858
ag2860
ag2862
ag2864
ag2866
ag2868
ag2870
ag2876
ag2878
ag2880
ag2882
ag2884
ag2886
ag2888
ag2890
ag2892
ag2894
ag2896
ag2898
ag2900
ag2902
ag2904
ag2906
ag2908
ag2911
ag2913
ag2915
ag2917
ag2919
ag2921
ag2923
ag2925
ag2928
ag2931
ag2933
ag2935
ag2937
ag2943
ag2947
ag2949
ag2953
ag2956
ag2966
ag2974
ag2976
ag2998
ag3008
ag3015
ag3017
ag3044
ag3047
ag3053
ag3067
ag3075
ag3077
ag3079
ag3082
ag3084
ag3108
ag3118
ag3124
ag3157
ag3159
ag3161
ag3163
ag3165
ag3183
ag3185
ag3187
ag3189
ag3193
ag3195
ag3199
ag3201
ag3205
ag3212
ag3214
ag3226
ag3228
ag3230
ag3234
ag3246
ag3248
ag3250
ag3252
ag3254
ag3262
ag3264
ag3270
ag3272
ag3298
ag3300
ag3302
ag3304
ag3306
ag3308
ag3310
ag3312
ag3314
ag3316
ag3318
ag3320
ag3336
ag3350
ag3353
ag3355
ag3360
ag3363
ag3368
ag3370
ag3372
ag3374
ag3380
ag3384
ag3387
ag3389
ag3391
ag3396
ag3398
ag3400
ag3402
ag3404
ag3406
ag3408
ag3411
ag3414
ag3416
ag3419
ag3421
ag3423
ag3425
ag3427
ag3432
ag3435
ag3437
ag3441
ag3479
aa(lp3482
NaNaNaNaNaNaNaNaNaNaNaNaNaNaNaNaNaNaNaNaNaNaNaNaNaNaNaNaNaNaNa(lp3483
S'15422'
p3484
aaNa(lp3485
S'17375'
p3486
aS'17497'
p3487
aS'17893'
p3488
aS'52618'
p3489
aa(lp3490
S'16891'
p3491
aS'35910'
p3492
aS'53274'
p3493
aaNa(lp3494
S'32800'
p3495
aaNa(lp3496
S'422'
p3497
aaNaNaNa(lp3498
S'16082'
p3499
aaNaNa(lp3500
S'35373'
p3501
aS'84373'
p3502
aaNaNaNa(lp3503
S'50670'
p3504
aa(lp3505
S'46229'
p3506
aS'52249'
p3507
aa(lp3508
S'17200'
p3509
aa(lp3510
S'17029'
p3511
aS'61631'
p3512
aa(lp3513
S'67119'
p3514
aaNaNaNaNaNaNaNaNaNaNaNaNaNaNaNaNaNaNaNaNa(lp3515
S'17588'
p3516
aS'58199'
p3517
aa(lp3518
S'18047'
p3519
aa(lp3520
S'16856'
p3521
aS'60836'
p3522
aaNa(lp3523
S'18379'
p3524
aS'18407'
p3525
aaNa(lp3526
S'17561'
p3527
aS'35235'
p3528
aS'47910'
p3529
aS'58717'
p3530
aS'61894'
p3531
aaNa(lp3532
S'17748'
p3533
aaNa(lp3534
S'17709'
p3535
aa(lp3536
S'18420'
p3537
aa(lp3538
S'15351'
p3539
aaNa(lp3540
S'17694'
p3541
aa(lp3542
S'16908'
p3543
aa(lp3544
S'17460'
p3545
aa(lp3546
S'15846'
p3547
aa(lp3548
S'80708'
p3549
aa(lp3550
S'28869'
p3551
aaNa(lp3552
S'17842'
p3553
aa(lp3554
S'80707'
p3555
aaNaNaNa(lp3556
S'17858'
p3557
aa(lp3558
S'27418'
p3559
aa(lp3560
S'78492'
p3561
aaNa(lp3562
S'77012'
p3563
aa(lp3564
S'30314'
p3565
aaNa(lp3566
S'17359'
p3567
aaNa(lp3568
S'28689'
p3569
aa(lp3570
S'83865'
p3571
aa(lp3572
S'15651'
p3573
aaNa(lp3574
S'32816'
p3575
aa(lp3576
S'17622'
p3577
aaNa(lp3578
S'1989'
p3579
aa(lp3580
S'35932'
p3581
aa(lp3582
S'17295'
p3583
aS'58095'
p3584
aaNa(lp3585
S'17640'
p3586
aa(lp3587
S'30915'
p3588
aa(lp3589
S'15971'
p3590
aS'57595'
p3591
aaNa(lp3592
S'35177'
p3593
aa(lp3594
S'28644'
p3595
aa(lp3596
S'18050'
p3597
aS'58359'
p3598
aa(lp3599
S'16723'
p3600
aa(lp3601
S'15999'
p3602
aa(lp3603
S'30851'
p3604
aa(lp3605
S'16828'
p3606
aS'57912'
p3607
aa(lp3608
S'16643'
p3609
aS'57844'
p3610
aaNa(lp3611
S'30831'
p3612
aa(lp3613
S'16530'
p3614
aa(lp3615
S'16946'
p3616
aS'57959'
p3617
aa(lp3618
S'57678'
p3619
aa(lp3620
S'17196'
p3621
aS'58048'
p3622
aa(lp3623
S'15753'
p3624
aa(lp3625
S'17895'
p3626
aS'58315'
p3627
aa(lp3628
S'15603'
p3629
aS'57427'
p3630
aa(lp3631
S'28401'
p3632
aS'506227'
p3633
aa(lp3634
S'15635'
p3635
aa(lp3636
S'17115'
p3637
aa(lp3638
S'15414'
p3639
aS'59789'
p3640
aa(lp3641
S'16359'
p3642
aaNaNaNaNa(lp3643
S'16032'
p3644
aaNa(lp3645
S'50091'
p3646
aaNaNa(lp3647
S'48058'
p3648
aa(lp3649
S'32585'
p3650
aS'58968'
p3651
aaNa(lp3652
S'16335'
p3653
aa(lp3654
S'10110'
p3655
aaNaNaNaNaNaNaNaNaNaNaNaNaNaNaNaNa(lp3656
S'17013'
p3657
aaNaNaNaNaNaNaNaNa(lp3658
S'16761'
p3659
aa(lp3660
S'16027'
p3661
aa(lp3662
S'18385'
p3663
aa(lp3664
S'34055'
p3665
aaNa(lp3666
S'15368'
p3667
aS'51688'
p3668
aS'51689'
p3669
aaNa(lp3670
S'61722'
p3671
aaNa(lp3672
S'37454'
p3673
aaNaNaNa(lp3674
S'9661'
p3675
aaNaNa(lp3676
S'16356'
p3677
aa(lp3678
S'17489'
p3679
aa(lp3680
S'16330'
p3681
aaNa(lp3682
S'17169'
p3683
aaNa(lp3684
S'16424'
p3685
aaNa(lp3686
S'51910'
p3687
aaNaNaNaNaNaNa(lp3688
S'17153'
p3689
aS'49188'
p3690
aS'84587'
p3691
aaNa(lp3692
S'28476'
p3693
aa(lp3694
S'17098'
p3695
aa(lp3696
S'28617'
p3697
aaNaNaNaNaNaNaNaNaNa(lp3698
S'66926'
p3699
aaNa(lp3700
S'18086'
p3701
aaNaNa(lp3702
S'16842'
p3703
aS'17087'
p3704
aS'17478'
p3705
aS'18044'
p3706
aaNaNa(lp3707
S'16731'
p3708
aaNaNaNa(lp3709
S'52368'
p3710
aa(lp3711
S'16207'
p3712
aaNaNa(lp3713
S'27434'
p3714
aa(lp3715
S'66927'
p3716
aa(lp3717
S'15473'
p3718
aS'36926'
p3719
aa(lp3720
S'11814'
p3721
aa(lp3722
S'15497'
p3723
aa(lp3724
S'15486'
p3725
aa(lp3726
S'37050'
p3727
aa(lp3728
S'15488'
p3729
aaNa(lp3730
S'28803'
p3731
aa(lp3732
S'40538'
p3733
aa(lp3734
S'18397'
p3735
aaNa(lp3736
S'28790'
p3737
aaNa(lp3738
S'18243'
p3739
aa(lp3740
S'17963'
p3741
aa(lp3742
S'15760'
p3743
aa(lp3744
S'73472'
p3745
aaNa(lp3746
S'30164'
p3747
aaNaNa(lp3748
S'17491'
p3749
aa(lp3750
S'15694'
p3751
aaNa(lp3752
S'1547'
p3753
aa(lp3754
S'17380'
p3755
aS'58125'
p3756
aa(lp3757
S'59560'
p3758
aa(lp3759
S'15379'
p3760
aS'27140'
p3761
aa(lp3762
S'25722'
p3763
aa(lp3764
S'15842'
p3765
aa(lp3766
S'15732'
p3767
aa(lp3768
S'16474'
p3769
aa(lp3770
S'5020'
p3771
aaNa(lp3772
S'15918'
p3773
aa(lp3774
S'18381'
p3775
aa(lp3776
S'1905'
p3777
aaNaNa(lp3778
S'18009'
p3779
aa(lp3780
S'15343'
p3781
aS'60379'
p3782
aa(lp3783
S'19591'
p3784
aa(lp3785
S'27871'
p3786
aa(lp3787
S'27540'
p3788
aaNa(lp3789
S'15479'
p3790
aa(lp3791
S'17154'
p3792
aa(lp3793
S'23053'
p3794
aa(lp3795
S'62845'
p3796
aaNa(lp3797
S'76125'
p3798
aa(lp3799
S'33569'
p3800
aa(lp3801
S'28744'
p3802
aaNa(lp3803
S'17728'
p3804
aS'58252'
p3805
aa(lp3806
S'17750'
p3807
aaNaNa(lp3808
S'15570'
p3809
aS'57416'
p3810
aa(lp3811
S'49169'
p3812
aa(lp3813
S'16998'
p3814
aa(lp3815
S'28479'
p3816
aS'58570'
p3817
aa(lp3818
S'17364'
p3819
aa(lp3820
S'16523'
p3821
aS'35247'
p3822
aa(lp3823
S'16296'
p3824
aS'57719'
p3825
aa(lp3826
S'15428'
p3827
aS'15705'
p3828
aS'16228'
p3829
aS'46874'
p3830
aS'59869'
p3831
aS'59871'
p3832
aS'62031'
p3833
aS'66884'
p3834
aS'66933'
p3835
aa(lp3836
S'16313'
p3837
aS'57726'
p3838
aa(lp3839
S'13759'
p3840
aS'16134'
p3841
aS'32863'
p3842
aS'32876'
p3843
aS'32877'
p3844
aa(lp3845
S'22526'
p3846
aaNaNaNa(lp3847
S'15633'
p3848
aa(lp3849
S'27470'
p3850
aaNaNaNaNa(lp3851
S'17677'
p3852
aa(lp3853
S'16311'
p3854
aa(lp3855
S'18077'
p3856
aa(lp3857
S'15713'
p3858
aa(lp3859
S'27844'
p3860
aaNa(lp3861
S'28748'
p3862
aa(lp3863
S'27504'
p3864
aaNa(lp3865
S'28197'
p3866
aaNaNaNa(lp3867
S'28088'
p3868
aaNaNa(lp3869
S'45389'
p3870
aa(lp3871
S'34718'
p3872
aa(lp3873
S'508'
p3874
aaNaNaNaNa(lp3875
S'53049'
p3876
aa(lp3877
S'78673'
p3878
aaNaNaNaNa(lp3879
S'17361'
p3880
aa(lp3881
S'16695'
p3882
aaNa(lp3883
S'16240'
p3884
aS'35924'
p3885
aa(lp3886
S'17150'
p3887
aa(lp3888
S'15345'
p3889
aa(lp3890
S'28264'
p3891
aa(lp3892
S'18329'
p3893
aa(lp3894
S'15453'
p3895
aa(lp3896
S'15491'
p3897
aa(lp3898
S'16469'
p3899
aa(lp3900
S'27425'
p3901
aS'44278'
p3902
aaNaNaNaNaNaNaNaNaNaNaNaNaNaNaNaNaNa(lp3903
S'74046'
p3904
aaNaNa(lp3905
S'17319'
p3906
aaNaNaNa(lp3907
S'17509'
p3908
aaNaNa(lp3909
S'17230'
p3910
aS'58065'
p3911
aaNa(lp3912
S'28907'
p3913
aaNa(lp3914
S'16015'
p3915
aS'53374'
p3916
aa(lp3917
S'47987'
p3918
aaNa(lp3919
S'4141'
p3920
aaNa(lp3921
S'84756'
p3922
aaNa(lp3923
S'30887'
p3924
aa(lp3925
S'151'
p3926
aa(lp3927
S'30797'
p3928
aa(lp3929
S'28013'
p3930
aaNa(lp3931
S'59296'
p3932
aaNaNaNaNa(lp3933
S'17898'
p3934
aaNaNaNaNaNaNa(lp3935
S'27539'
p3936
aaNa(lp3937
S'16583'
p3938
aa(lp3939
S'52774'
p3940
aaNaNa(lp3941
S'2150'
p3942
aaNa(lp3943
S'51507'
p3944
aaNa(lp3945
S'36812'
p3946
aa(lp3947
S'30154'
p3948
aaNa(lp3949
S'15994'
p3950
aa(lp3951
S'36715'
p3952
aaNa(lp3953
S'27771'
p3954
aa(lp3955
S'16229'
p3956
aaNaNa(lp3957
S'16985'
p3958
aa(lp3959
S'17351'
p3960
aa(lp3961
S'15843'
p3962
aa(lp3963
S'13332'
p3964
aa(lp3965
S'32982'
p3966
aS'58648'
p3967
aa(lp3968
S'84067'
p3969
aa(lp3970
S'17034'
p3971
aaNa(lp3972
S'15894'
p3973
aS'24012'
p3974
aa(lp3975
S'27836'
p3976
aa(lp3977
S'17600'
p3978
aa(lp3979
S'31457'
p3980
aa(lp3981
S'29888'
p3982
aa(lp3983
S'17368'
p3984
aa(lp3985
S'17202'
p3986
aa(lp3987
S'17111'
p3988
aa(lp3989
S'16235'
p3990
aa(lp3991
S'17712'
p3992
aS'48517'
p3993
aa(lp3994
S'17625'
p3995
aaNa(lp3996
S'15554'
p3997
aa(lp3998
S'27647'
p3999
aaNaNaNaNaNaNa(lp4000
S'13172'
p4001
aa(lp4002
S'17173'
p4003
aaNaNaNa(lp4004
S'77097'
p4005
aa(lp4006
S'52333'
p4007
aaNaNaNaNa(lp4008
S'15698'
p4009
aaNa(lp4010
S'17256'
p4011
aa(lp4012
S'175901'
p4013
aaNa(lp4014
S'17172'
p4015
aa(lp4016
S'681569'
p4017
aa(lp4018
S'567361'
p4019
aa(lp4020
S'28680'
p4021
aa(lp4022
S'61829'
p4023
aaNaNaNaNaNa(lp4024
S'75721'
p4025
aaNa(lp4026
S'66395'
p4027
aa(lp4028
S'16977'
p4029
aS'57972'
p4030
aa(lp4031
S'15531'
p4032
aS'84127'
p4033
aa(lp4034
S'17191'
p4035
aS'58045'
p4036
aa(lp4037
S'16414'
p4038
aS'57762'
p4039
aa(lp4040
S'17336'
p4041
aaNaNaNaNaNa(lp4042
S'17621'
p4043
aa(lp4044
S'15763'
p4045
aa(lp4046
S'74452'
p4047
aa(lp4048
S'14648'
p4049
aaNa(lp4050
S'16039'
p4051
aaNaNa(lp4052
S'12387'
p4053
aa(lp4054
S'35374'
p4055
aaNaNaNa(lp4056
S'16077'
p4057
aaNaNa(lp4058
S'37480'
p4059
aa(lp4060
S'10049'
p4061
aa(lp4062
S'15996'
p4063
aaNaNaNa(lp4064
S'18252'
p4065
aa(lp4066
S'15765'
p4067
aS'57504'
p4068
aa(lp4069
S'15435'
p4070
aa(lp4071
S'16610'
p4072
aaNaNa(lp4073
S'16389'
p4074
aaNa(lp4075
S'52020'
p4076
aa(lp4077
S'16814'
p4078
aa(lp4079
S'17287'
p4080
aa(lp4081
S'16919'
p4082
aS'57947'
p4083
aa(lp4084
S'16619'
p4085
aS'26199'
p4086
aS'28600'
p4087
aa(lp4088
S'15693'
p4089
aS'5445'
p4090
aa(lp4091
S'77417'
p4092
aa(lp4093
S'35986'
p4094
aaNa(lp4095
S'53455'
p4096
aa(lp4097
S'41607'
p4098
aa(lp4099
S'17935'
p4100
aaNa(lp4101
S'34779'
p4102
aaNa(lp4103
S'36729'
p4104
aa(lp4105
S'78594'
p4106
aa(lp4107
S'61726'
p4108
aa(lp4109
S'17998'
p4110
aa(lp4111
S'17167'
p4112
aa(lp4113
S'15743'
p4114
aa(lp4115
S'47953'
p4116
aa(lp4117
S'34787'
p4118
aaNa(lp4119
S'28903'
p4120
aaNa(lp4121
S'17447'
p4122
aaNa(lp4123
S'84268'
p4124
aaNaNa(lp4125
S'61727'
p4126
aa(lp4127
S'17071'
p4128
aS'52501'
p4129
aa(lp4130
S'29452'
p4131
aa(lp4132
S'17378'
p4133
aaNa(lp4134
S'17987'
p4135
aaNaNaNa(lp4136
S'4885'
p4137
aa(lp4138
S'50673'
p4139
aaNaNaNaNaNaNa(lp4140
S'20502'
p4141
aaNaNaNaNaNaNaNaNaNaNaNaNaNaNaNaNaNaNaNaNaNaNaNaNaNaNaNaNaNaNaNaNaNaNaNaNaNaNaNaNaNaNa(lp4142
S'2718'
p4143
aaNaNaNaNaNaNaNaNaNaNaNaNaNa(lp4144
S'15820'
p4145
aa(lp4146
S'17780'
p4147
aS'58266'
p4148
aaNaNaNa(lp4149
S'49728'
p4150
aaNaNaNaNa(lp4151
S'21557'
p4152
aaNaNaNaNaNa(lp4153
S'45826'
p4154
aaNaNa(lp4155
S'17786'
p4156
aaNa(lp4157
S'21553'
p4158
aaNaNaNaNa(lp4159
S'28939'
p4160
aS'47911'
p4161
aaNa(lp4162
S'16437'
p4163
aaNaNa(lp4164
S'16259'
p4165
aa(lp4166
S'16552'
p4167
aa(lp4168
S'17533'
p4169
aa(lp4170
S'21501'
p4171
aS'40410'
p4172
aaNaNa(lp4173
S'21547'
p4174
aaNa(lp4175
S'62833'
p4176
aa(lp4177
S'62837'
p4178
aa(lp4179
S'17345'
p4180
aa(lp4181
S'17596'
p4182
aa(lp4183
S'17713'
p4184
aa(lp4185
S'63580'
p4186
aa(lp4187
S'18405'
p4188
aa(lp4189
S'17239'
p4190
aa(lp4191
S'17552'
p4192
aaNa(lp4193
S'18075'
p4194
aa(lp4195
S'17440'
p4196
aa(lp4197
S'75442'
p4198
aa(lp4199
S'17659'
p4200
aaNaNa(lp4201
S'37548'
p4202
aaNa(lp4203
S'82635'
p4204
aaNaNaNaNaNaNaNaNaNaNaNaNaNa(lp4205
S'15467'
p4206
aS'61659'
p4207
aaNaNaNaNa(lp4208
S'40116'
p4209
aa(lp4210
S'31328'
p4211
aaNaNa(lp4212
S'27750'
p4213
aaNaNaNaNaNa(lp4214
S'52051'
p4215
aaNaNaNaNaNaNa(lp4216
S'9627'
p4217
aa(lp4218
S'8082'
p4219
aaNaNaNa(lp4220
S'17263'
p4221
aa(lp4222
S'85867'
p4223
aaNaNaNaNaNaNa(lp4224
S'35020'
p4225
aaNaNaNaNaNaNaNaNaNaNaNaNaNa(lp4226
S'3165'
p4227
aaNaNaNaNaNaNaNaNaNaNaNaNaNaNaNaNaNaNaNaNaNaNaNa(lp4228
S'17482'
p4229
aS'58161'
p4230
aaNa(lp4231
S'16613'
p4232
aa(lp4233
S'17158'
p4234
aaNaNa(lp4235
S'16526'
p4236
aa(lp4237
S'17544'
p4238
aa(lp4239
S'17562'
p4240
aa(lp4241
S'16422'
p4242
aaNaNa(lp4243
S'15551'
p4244
aaNa(lp4245
S'83574'
p4246
aa(lp4247
S'15769'
p4248
aa(lp4249
S'16343'
p4250
aa(lp4251
S'17134'
p4252
aaNaNaNa(lp4253
S'16467'
p4254
aa(lp4255
S'47904'
p4256
aa(lp4257
S'61553'
p4258
aaNaNaNaNaNa(lp4259
S'17347'
p4260
aaNa(lp4261
S'50169'
p4262
aa(lp4263
S'22542'
p4264
aaNaNaNa(lp4265
S'28952'
p4266
aaNa(lp4267
S'17759'
p4268
aa(lp4269
S'17168'
p4270
aa(lp4271
S'29105'
p4272
aa(lp4273
S'8337'
p4274
aa(lp4275
S'29033'
p4276
aa(lp4277
S'17431'
p4278
aaNaNaNaNaNaNaNaNa(lp4279
S'61663'
p4280
aaNaNaNaNaNaNaNaNaNaNaNaNa(lp4281
S'16645'
p4282
aa(lp4283
S'21405'
p4284
aa(lp4285
S'28587'
p4286
aa(lp4287
S'16016'
p4288
aS'17567'
p4289
aa(lp4290
S'17151'
p4291
aa(lp4292
S'27913'
p4293
aa(lp4294
S'15688'
p4295
aa(lp4296
S'48300'
p4297
aa(lp4298
S'27904'
p4299
aaNa(lp4300
S'16000'
p4301
aa(lp4302
S'44884'
p4303
aa(lp4304
S'17890'
p4305
aaNaNa(lp4306
S'18353'
p4307
aaNa(lp4308
S'16236'
p4309
aS'17246'
p4310
aa(lp4311
S'17824'
p4312
aa(lp4313
S'16188'
p4314
aa(lp4315
S'28831'
p4316
aa(lp4317
S'55328'
p4318
aa(lp4319
S'18099'
p4320
aa(lp4321
S'28885'
p4322
aaNa(lp4323
S'15734'
p4324
aS'17790'
p4325
aS'73312'
p4326
aa(lp4327
S'27636'
p4328
aS'30742'
p4329
aaNaNaNa(lp4330
S'49000'
p4331
aa(lp4332
S'16997'
p4333
aaNa(lp4334
S'15850'
p4335
aS'17522'
p4336
aS'17754'
p4337
aa(lp4338
S'17064'
p4339
aaa(lp4340
NaNaNaNaNaNaNaNaNaNaNaNaNaNaNaNaNaNaNaNaNaNaNaNaNaNaNaNaNaNaNa(lp4341
S'C00002'
p4342
aS'D08646'
p4343
aa(lp4344
S'C00310'
p4345
aa(lp4346
S'C00160'
p4347
aS'C03547'
p4348
aa(lp4349
S'C00048'
p4350
aaNa(lp4351
S'C01984'
p4352
aaNa(lp4353
S'C00186'
p4354
aa(lp4355
S'C03406'
p4356
aaNaNaNaNaNa(lp4357
S'C00734'
p4358
aS'C06023'
p4359
aaNaNaNaNa(lp4360
S'C00029'
p4361
aa(lp4362
S'C00167'
p4363
aa(lp4364
S'C03878'
p4365
aaNaNaNaNaNaNaNaNaNaNaNaNaNaNaNaNaNaNaNaNaNa(lp4366
S'C00155'
p4367
aa(lp4368
S'C02147'
p4369
aa(lp4370
S'C00051'
p4371
aS'C02471'
p4372
aS'D00014'
p4373
aaNa(lp4374
S'C01326'
p4375
aaNa(lp4376
S'C00097'
p4377
aS'D00026'
p4378
aa(lp4379
S'C00928'
p4380
aa(lp4381
S'C00214'
p4382
aaNa(lp4383
S'C00224'
p4384
aa(lp4385
S'C00305'
p4386
aa(lp4387
S'C00024'
p4388
aaNa(lp4389
S'C00579'
p4390
aa(lp4391
S'C00004'
p4392
aa(lp4393
S'C00248'
p4394
aS'D00048'
p4395
aa(lp4396
S'C00003'
p4397
aS'D00002'
p4398
aa(lp4399
S'C16758'
p4400
aa(lp4401
S'C05377'
p4402
aaNa(lp4403
S'C02090'
p4404
aa(lp4405
S'C16757'
p4406
aaNaNaNa(lp4407
S'C00127'
p4408
aS'D00031'
p4409
aa(lp4410
S'C02617'
p4411
aaNaNa(lp4412
S'C18902'
p4413
aa(lp4414
S'C16241'
p4415
aaNaNaNa(lp4416
S'C01227'
p4417
aS'D08409'
p4418
aa(lp4419
S'C20252'
p4420
aa(lp4421
S'C00909'
p4422
aaNa(lp4423
S'C00022'
p4424
aa(lp4425
S'C00365'
p4426
aaNaNa(lp4427
S'C03465'
p4428
aa(lp4429
S'C00079'
p4430
aS'D00021'
p4431
aa(lp4432
S'C00036'
p4433
aaNa(lp4434
S'C00026'
p4435
aa(lp4436
S'C00135'
p4437
aS'D00032'
p4438
aa(lp4439
S'C00233'
p4440
aaNaNa(lp4441
S'C00064'
p4442
aS'D00015'
p4443
aaNa(lp4444
S'C01179'
p4445
aa(lp4446
S'C00166'
p4447
aa(lp4448
S'C00078'
p4449
aS'D00020'
p4450
aa(lp4451
S'C00073'
p4452
aS'D00019'
p4453
aaNa(lp4454
S'C00109'
p4455
aa(lp4456
S'C00141'
p4457
aa(lp4458
S'C00328'
p4459
aaNa(lp4460
S'C00152'
p4461
aa(lp4462
S'C00322'
p4463
aa(lp4464
S'C00082'
p4465
aS'D00022'
p4466
aa(lp4467
S'C00123'
p4468
aS'D00030'
p4469
aa(lp4470
S'C00140'
p4471
aaNa(lp4472
S'C00065'
p4473
aS'D00016'
p4474
aaNa(lp4475
S'C00695'
p4476
aaNaNaNa(lp4477
S'C04221'
p4478
aa(lp4479
S'C00523'
p4480
aa(lp4481
S'C14180'
p4482
aaNa(lp4483
S'C08317'
p4484
aaNa(lp4485
S'C20701'
p4486
aaNaNa(lp4487
S'C00212'
p4488
aS'D00045'
p4489
aa(lp4490
S'C07210'
p4491
aS'D00413'
p4492
aaNaNaNaNaNaNaNaNaNaNaNaNaNaNaNaNa(lp4493
S'C00364'
p4494
aaNaNaNaNaNaNaNaNa(lp4495
S'C00008'
p4496
aa(lp4497
S'C00020'
p4498
aS'D02769'
p4499
aa(lp4500
S'C00378'
p4501
aa(lp4502
S'C14783'
p4503
aaNa(lp4504
S'C01471'
p4505
aaNaNaNa(lp4506
S'C03243'
p4507
aaNaNaNa(lp4508
S'D00384'
p4509
aaNaNa(lp4510
S'C00942'
p4511
aa(lp4512
S'C00575'
p4513
aa(lp4514
S'C03917'
p4515
aS'D07456'
p4516
aaNa(lp4517
S'C00193'
p4518
aS'C00261'
p4519
aaNa(lp4520
S'C00601'
p4521
aaNaNaNa(lp4522
S'C07327'
p4523
aaNaNaNaNa(lp4524
S'C00479'
p4525
aaNa(lp4526
S'C07209'
p4527
aa(lp4528
S'C02201'
p4529
aa(lp4530
S'C06758'
p4531
aaNaNaNaNaNaNaNaNaNaNaNa(lp4532
S'C00637'
p4533
aaNaNa(lp4534
S'C00067'
p4535
aS'D00017'
p4536
aS'D01494'
p4537
aaNaNa(lp4538
S'C00903'
p4539
aaNa(lp4540
S'C10761'
p4541
aaNa(lp4542
S'C14099'
p4543
aa(lp4544
S'C03067'
p4545
aaNaNa(lp4546
S'C07214'
p4547
aaNa(lp4548
S'C00877'
p4549
aaNa(lp4550
S'C02411'
p4551
aa(lp4552
S'C03069'
p4553
aa(lp4554
S'C05116'
p4555
aaNaNa(lp4556
S'C00627'
p4557
aa(lp4558
S'C15562'
p4559
aa(lp4560
S'C05332'
p4561
aaNa(lp4562
S'C00780'
p4563
aaNa(lp4564
S'C03758'
p4565
aS'D07870'
p4566
aa(lp4567
S'C04599'
p4568
aa(lp4569
S'C00483'
p4570
aaNaNa(lp4571
S'C11526'
p4572
aaNaNaNa(lp4573
S'C03451'
p4574
aaNa(lp4575
S'C02794'
p4576
aa(lp4577
S'C03227'
p4578
aa(lp4579
S'C00272'
p4580
aS'D08505'
p4581
aa(lp4582
S'C00007'
p4583
aS'D00003'
p4584
aaNa(lp4585
S'C01103'
p4586
aa(lp4587
S'C05682'
p4588
aa(lp4589
S'C00005'
p4590
aa(lp4591
S'C00324'
p4592
aaNa(lp4593
S'C00239'
p4594
aa(lp4595
S'C04734'
p4596
aa(lp4597
S'C11585'
p4598
aaNaNa(lp4599
S'C00006'
p4600
aa(lp4601
S'C00084'
p4602
aa(lp4603
S'C08497'
p4604
aa(lp4605
S'C06754'
p4606
aa(lp4607
S'C05270'
p4608
aaNa(lp4609
S'C00630'
p4610
aa(lp4611
S'C00153'
p4612
aS'D00036'
p4613
aa(lp4614
S'C17590'
p4615
aa(lp4616
S'C14209'
p4617
aaNa(lp4618
S'C09728'
p4619
aaNa(lp4620
S'C05301'
p4621
aa(lp4622
S'D05688'
p4623
aa(lp4624
S'C03172'
p4625
aa(lp4626
S'C00719'
p4627
aS'D07523'
p4628
aaNaNa(lp4629
S'C00133'
p4630
aaNa(lp4631
S'C02265'
p4632
aa(lp4633
S'C06420'
p4634
aa(lp4635
S'C00402'
p4636
aa(lp4637
S'C00740'
p4638
aa(lp4639
S'C00525'
p4640
aa(lp4641
S'C00037'
p4642
aS'D00011'
p4643
aa(lp4644
S'C00763'
p4645
aa(lp4646
S'C00014'
p4647
aS'D02916'
p4648
aaNaNaNaNa(lp4649
S'C00415'
p4650
aa(lp4651
S'C00504'
p4652
aS'D00070'
p4653
aaNaNaNaNa(lp4654
S'C00063'
p4655
aa(lp4656
S'C00458'
p4657
aa(lp4658
S'C00459'
p4659
aa(lp4660
S'C00075'
p4661
aa(lp4662
S'C02353'
p4663
aa(lp4664
S'C00301'
p4665
aa(lp4666
S'C01661'
p4667
aa(lp4668
S'C06681'
p4669
aS'D00208'
p4670
aaNa(lp4671
S'C10208'
p4672
aaNaNaNa(lp4673
S'C06563'
p4674
aaNaNaNa(lp4675
S'C14397'
p4676
aa(lp4677
S'C04274'
p4678
aaNaNaNaNaNaNaNaNaNaNa(lp4679
S'C00055'
p4680
aa(lp4681
S'C00105'
p4682
aaNa(lp4683
S'C00027'
p4684
aS'D00008'
p4685
aa(lp4686
S'C00988'
p4687
aa(lp4688
S'C00332'
p4689
aa(lp4690
S'C05267'
p4691
aa(lp4692
S'C12525'
p4693
aa(lp4694
S'C01144'
p4695
aa(lp4696
S'C05259'
p4697
aa(lp4698
S'C00951'
p4699
aS'D00105'
p4700
aa(lp4701
S'C20328'
p4702
aaNaNaNaNaNaNaNaNaNaNaNaNaNaNaNaNaNaNaNaNa(lp4703
S'C05198'
p4704
aaNaNaNa(lp4705
S'C00170'
p4706
aaNaNa(lp4707
S'C05330'
p4708
aaNa(lp4709
S'C03339'
p4710
aaNa(lp4711
S'C00025'
p4712
aS'D00007'
p4713
aa(lp4714
S'C00352'
p4715
aa(lp4716
S'C00092'
p4717
aa(lp4718
S'C01113'
p4719
aaNa(lp4720
S'C06369'
p4721
aa(lp4722
S'C00345'
p4723
aa(lp4724
S'C00311'
p4725
aa(lp4726
S'C00451'
p4727
aa(lp4728
S'C00149'
p4729
aa(lp4730
S'C05378'
p4731
aaNaNaNaNaNaNa(lp4732
S'C00376'
p4733
aaNaNaNaNaNaNa(lp4734
S'C11129'
p4735
aaNa(lp4736
S'C00741'
p4737
aaNaNaNa(lp4738
S'C05293'
p4739
aaNa(lp4740
S'C20226'
p4741
aaNaNa(lp4742
S'C05479'
p4743
aaNa(lp4744
S'C00674'
p4745
aaNaNa(lp4746
S'C05139'
p4747
aa(lp4748
S'C11825'
p4749
aaNaNa(lp4750
S'C03772'
p4751
aa(lp4752
S'C01595'
p4753
aa(lp4754
S'C00219'
p4755
aa(lp4756
S'C00325'
p4757
aaNaNa(lp4758
S'C01838'
p4759
aaNa(lp4760
S'C03461'
p4761
aa(lp4762
S'C02278'
p4763
aa(lp4764
S'C00517'
p4765
aa(lp4766
S'C12307'
p4767
aa(lp4768
S'C00013'
p4769
aa(lp4770
S'C00262'
p4771
aa(lp4772
S'C00130'
p4773
aa(lp4774
S'C00119'
p4775
aa(lp4776
S'C00242'
p4777
aa(lp4778
S'C00385'
p4779
aa(lp4780
S'C00460'
p4781
aa(lp4782
S'C04895'
p4783
aa(lp4784
S'C00427'
p4785
aa(lp4786
S'C05956'
p4787
aaNaNaNa(lp4788
S'C00124'
p4789
aaNa(lp4790
S'C00031'
p4791
aS'D00009'
p4792
aaNaNa(lp4793
S'C00095'
p4794
aa(lp4795
S'C00121'
p4796
aaNaNaNaNaNaNa(lp4797
S'D07966'
p4798
aa(lp4799
S'C00881'
p4800
aa(lp4801
S'D06255'
p4802
aa(lp4803
S'C00559'
p4804
aa(lp4805
S'C07650'
p4806
aS'D02368'
p4807
aaNa(lp4808
S'C00330'
p4809
aa(lp4810
S'D03546'
p4811
aa(lp4812
S'D01370'
p4813
aa(lp4814
S'C02961'
p4815
aS'D00168'
p4816
aa(lp4817
S'D03583'
p4818
aaNaNaNaNaNaNaNaNa(lp4819
S'C00041'
p4820
aS'D00012'
p4821
aa(lp4822
S'C00083'
p4823
aS'C03188'
p4824
aa(lp4825
S'C00407'
p4826
aS'D00065'
p4827
aa(lp4828
S'C00183'
p4829
aS'D00039'
p4830
aa(lp4831
S'C00473'
p4832
aS'C17276'
p4833
aS'D06543'
p4834
aaNaNa(lp4835
S'C00268'
p4836
aaNaNa(lp4837
S'C00061'
p4838
aa(lp4839
S'C01185'
p4840
aaNaNaNa(lp4841
S'C00081'
p4842
aaNaNa(lp4843
S'C02985'
p4844
aaNaNaNaNaNaNaNa(lp4845
S'C03384'
p4846
aa(lp4847
S'C00700'
p4848
aa(lp4849
S'C00044'
p4850
aaNaNaNa(lp4851
S'C05437'
p4852
aa(lp4853
S'C00355'
p4854
aS'D00059'
p4855
aa(lp4856
S'C01079'
p4857
aa(lp4858
S'C00315'
p4859
aaNa(lp4860
S'C00399'
p4861
aaNaNa(lp4862
S'C15494'
p4863
aa(lp4864
S'C04555'
p4865
aa(lp4866
S'C02305'
p4867
aa(lp4868
S'C00300'
p4869
aa(lp4870
S'C01126'
p4871
aS'C06081'
p4872
aa(lp4873
S'C02154'
p4874
aa(lp4875
S'D05097'
p4876
aa(lp4877
S'C14696'
p4878
aaNa(lp4879
S'C00181'
p4880
aS'D06346'
p4881
aa(lp4882
S'C19377'
p4883
aa(lp4884
S'C01545'
p4885
aa(lp4886
S'C09094'
p4887
aa(lp4888
S'C14448'
p4889
aaNaNaNaNa(lp4890
S'C02373'
p4891
aa(lp4892
S'C00937'
p4893
aa(lp4894
S'C01412'
p4895
aa(lp4896
S'C16245'
p4897
aa(lp4898
S'C14390'
p4899
aaNa(lp4900
S'C01633'
p4901
aaNa(lp4902
S'C01500'
p4903
aaNaNa(lp4904
S'D05158'
p4905
aaNaNa(lp4906
S'C00266'
p4907
aa(lp4908
S'C09871'
p4909
aa(lp4910
S'C00577'
p4911
aaNa(lp4912
S'C00556'
p4913
aS'C03485'
p4914
aS'D00077'
p4915
aaNaNa(lp4916
S'D08584'
p4917
aa(lp4918
S'C07665'
p4919
aS'D00591'
p4920
aa(lp4921
S'C07190'
p4922
aS'D00401'
p4923
aaNaNaNaNaNaNaNaNaNaNaNaNaNaNaNaNaNaNaNaNaNaNaNaNaNaNaNaNaNaNaNaNaNaNaNaNaNaNaNaNaNaNaNaNaNaNaNaNaNa(lp4924
S'C00873'
p4925
aaNaNaNaNaNaNaNaNaNaNaNaNaNa(lp4926
S'C00096'
p4927
aa(lp4928
S'C00643'
p4929
aS'D07339'
p4930
aaNaNaNaNa(lp4931
S'C00544'
p4932
aaNaNaNa(lp4933
S'C02712'
p4934
aaNaNaNaNaNaNaNaNa(lp4935
S'C02710'
p4936
aaNa(lp4937
S'D07063'
p4938
aaNaNaNaNa(lp4939
S'C06809'
p4940
aS'D00221'
p4941
aaNa(lp4942
S'C02997'
p4943
aaNaNa(lp4944
S'C03519'
p4945
aa(lp4946
S'C03145'
p4947
aa(lp4948
S'C00624'
p4949
aaNaNaNa(lp4950
S'C01042'
p4951
aaNaNaNa(lp4952
S'C00144'
p4953
aa(lp4954
S'C00294'
p4955
aS'D00054'
p4956
aa(lp4957
S'C00360'
p4958
aa(lp4959
S'D00423'
p4960
aa(lp4961
S'C00018'
p4962
aa(lp4963
S'C00112'
p4964
aa(lp4965
S'C00035'
p4966
aaNa(lp4967
S'C00363'
p4968
aa(lp4969
S'C03360'
p4970
aaNa(lp4971
S'C00015'
p4972
aaNa(lp4973
S'C00074'
p4974
aa(lp4975
S'C02734'
p4976
aaNaNaNaNaNaNaNaNaNaNaNaNaNaNaNa(lp4977
S'C00356'
p4978
aaNaNaNaNaNa(lp4979
S'C12304'
p4980
aaNaNa(lp4981
S'C00849'
p4982
aaNaNaNaNaNa(lp4983
S'C15513'
p4984
aaNaNaNaNaNaNa(lp4985
S'C01963'
p4986
aa(lp4987
S'C00548'
p4988
aS'C15583'
p4989
aaNaNaNa(lp4990
S'C00468'
p4991
aS'D00067'
p4992
aaNaNaNa(lp4993
S'C16810'
p4994
aaNaNaNa(lp4995
S'C13870'
p4996
aaNa(lp4997
S'C19309'
p4998
aaNaNaNaNaNaNaNaNaNaNaNa(lp4999
S'C00306'
p5000
aaNaNaNaNaNaNaNaNaNaNaNaNaNaNaNaNaNaNaNaNaNaNaNa(lp5001
S'C02291'
p5002
aaNa(lp5003
S'C05730'
p5004
aa(lp5005
S'C00546'
p5006
aaNaNa(lp5007
S'C00011'
p5008
aS'D00004'
p5009
aa(lp5010
S'C00288'
p5011
aa(lp5012
S'C00475'
p5013
aS'D07769'
p5014
aa(lp5015
S'C00280'
p5016
aS'D00051'
p5017
aaNa(lp5018
S'C03838'
p5019
aa(lp5020
S'C00584'
p5021
aS'D00079'
p5022
aa(lp5023
S'C01907'
p5024
aS'D07776'
p5025
aaNa(lp5026
S'C04352'
p5027
aa(lp5028
S'C02735'
p5029
aaNaNaNaNa(lp5030
S'C00062'
p5031
aS'D02982'
p5032
aa(lp5033
S'C01036'
p5034
aa(lp5035
S'C00085'
p5036
aaNaNaNaNaNa(lp5037
S'C00535'
p5038
aS'D00075'
p5039
aaNa(lp5040
S'C13712'
p5041
aaNaNaNaNa(lp5042
S'C03681'
p5043
aaNa(lp5044
S'C01164'
p5045
aa(lp5046
S'C01189'
p5047
aa(lp5048
S'C00038'
p5049
aa(lp5050
S'C05113'
p5051
aa(lp5052
S'C14818'
p5053
aa(lp5054
S'C00179'
p5055
aaNaNaNaNaNaNaNaNa(lp5056
S'C19773'
p5057
aaNaNaNaNaNaNaNa(lp5058
S'C03263'
p5059
aaNaNaNaNa(lp5060
S'C01024'
p5061
aaNaNa(lp5062
S'C00184'
p5063
aS'D07841'
p5064
aa(lp5065
S'C00379'
p5066
aa(lp5067
S'C02045'
p5068
aa(lp5069
S'C00466'
p5070
aa(lp5071
S'C16884'
p5072
aaNa(lp5073
S'C00312'
p5074
aa(lp5075
S'C00189'
p5076
aS'D05074'
p5077
aa(lp5078
S'C16834'
p5079
aa(lp5080
S'C00955'
p5081
aa(lp5082
S'C01801'
p5083
aaNa(lp5084
S'C06317'
p5085
aaNa(lp5086
S'C00469'
p5087
aS'D00068'
p5088
aa(lp5089
S'C01845'
p5090
aS'D00137'
p5091
aa(lp5092
S'C00756'
p5093
aa(lp5094
S'C05979'
p5095
aa(lp5096
S'C18218'
p5097
aa(lp5098
S'C00854'
p5099
aa(lp5100
S'C06142'
p5101
aS'D03200'
p5102
aaNa(lp5103
S'C00132'
p5104
aa(lp5105
S'C01380'
p5106
aS'C15588'
p5107
aS'D03370'
p5108
aS'D06418'
p5109
aS'D06419'
p5110
aS'D06420'
p5111
aS'D06421'
p5112
aS'D06422'
p5113
aS'D06423'
p5114
aaNaNaNa(lp5115
S'C05853'
p5116
aS'D00192'
p5117
aa(lp5118
S'C00583'
p5119
aS'D00078'
p5120
aaNa(lp5121
S'C00116'
p5122
aS'D00028'
p5123
aS'D05073'
p5124
aa(lp5125
S'C02126'
p5126
aaa(lp5127
NaNa(lp5128
S'66704001'
p5129
aa(lp5130
S'122333'
p5131
aaNa(lp5132
S'14853363'
p5133
aaNa(lp5134
S'21120970'
p5135
aaNaNa(lp5136
S'10482368'
p5137
aaNaNaNaNaNa(lp5138
S'193656'
p5139
aaNa(lp5140
S'2728026'
p5141
aa(lp5142
S'72699209'
p5143
aaNa(lp5144
S'25108645'
p5145
aaNa(lp5146
S'25108603'
p5147
aaNaNaNaNaNaNaNa(lp5148
S'5957'
p5149
aa(lp5150
S'439204'
p5151
aa(lp5152
S'3698251'
p5153
aS'757'
p5154
aa(lp5155
S'760'
p5156
aa(lp5157
S'67600'
p5158
aa(lp5159
S'439616'
p5160
aaNa(lp5161
S'107689'
p5162
aa(lp5163
S'16950'
p5164
aa(lp5165
S'92229'
p5166
aaNa(lp5167
S'19235'
p5168
aa(lp5169
S'10705'
p5170
aa(lp5171
S'10306552'
p5172
aa(lp5173
S'3086191'
p5174
aa(lp5175
S'91509'
p5176
aaNaNa(lp5177
S'439326'
p5178
aa(lp5179
S'8629'
p5180
aa(lp5181
S'17473'
p5182
aa(lp5183
S'24139'
p5184
aa(lp5185
S'18068'
p5186
aaNaNaNaNaNaNaNaNaNaNaNaNaNaNaNaNaNaNaNaNa(lp5187
S'6971015'
p5188
aS'91552'
p5189
aa(lp5190
S'421'
p5191
aa(lp5192
S'124886'
p5193
aS'25246407'
p5194
aaNa(lp5195
S'768'
p5196
aa(lp5197
S'446094'
p5198
aa(lp5199
S'5862'
p5200
aS'6419722'
p5201
aa(lp5202
S'1567'
p5203
aa(lp5204
S'5789'
p5205
aaNa(lp5206
S'10238'
p5207
aa(lp5208
S'888'
p5209
aa(lp5210
S'444493'
p5211
aaNa(lp5212
S'663'
p5213
aa(lp5214
S'439153'
p5215
aa(lp5216
S'863'
p5217
aa(lp5218
S'5893'
p5219
aa(lp5220
S'5386591'
p5221
aa(lp5222
S'4055'
p5223
aa(lp5224
S'11355645'
p5225
aa(lp5226
S'449517'
p5227
aa(lp5228
S'9881148'
p5229
aa(lp5230
S'68372406'
p5231
aa(lp5232
S'12300225'
p5233
aa(lp5234
S'23525632'
p5235
aa(lp5236
S'11215652'
p5237
aS'65359'
p5238
aa(lp5239
S'8530'
p5240
aa(lp5241
S'16315'
p5242
aa(lp5243
S'388306'
p5244
aa(lp5245
S'161597'
p5246
aa(lp5247
S'6112'
p5248
aa(lp5249
S'7000011'
p5250
aa(lp5251
S'1099'
p5252
aaNa(lp5253
S'5881'
p5254
aa(lp5255
S'160531'
p5256
aa(lp5257
S'5280383'
p5258
aa(lp5259
S'6478221'
p5260
aa(lp5261
S'1060'
p5262
aa(lp5263
S'65063'
p5264
aaNa(lp5265
S'445117'
p5266
aa(lp5267
S'47'
p5268
aa(lp5269
S'6140'
p5270
aS'6925665'
p5271
aa(lp5272
S'970'
p5273
aa(lp5274
S'5460337'
p5275
aa(lp5276
S'51'
p5277
aa(lp5278
S'6274'
p5279
aS'6971009'
p5280
aa(lp5281
S'70'
p5282
aa(lp5283
S'6419709'
p5284
aa(lp5285
S'5460364'
p5286
aa(lp5287
S'5961'
p5288
aS'6992086'
p5289
aa(lp5290
S'4584184'
p5291
aa(lp5292
S'979'
p5293
aa(lp5294
S'997'
p5295
aa(lp5296
S'6305'
p5297
aS'6923516'
p5298
aa(lp5299
S'6137'
p5300
aS'6992087'
p5301
aa(lp5302
S'21889526'
p5303
aa(lp5304
S'58'
p5305
aa(lp5306
S'49'
p5307
aa(lp5308
S'161166'
p5309
aS'6971029'
p5310
aa(lp5311
S'4182595'
p5312
aa(lp5313
S'6267'
p5314
aS'6992089'
p5315
aa(lp5316
S'71'
p5317
aa(lp5318
S'6057'
p5319
aS'6942100'
p5320
aa(lp5321
S'6106'
p5322
aS'7045798'
p5323
aa(lp5324
S'439174'
p5325
aa(lp5326
S'5460413'
p5327
aa(lp5328
S'5951'
p5329
aS'6857581'
p5330
aa(lp5331
S'24762165'
p5332
aS'34756'
p5333
aa(lp5334
S'221493'
p5335
aa(lp5336
S'22750'
p5337
aa(lp5338
S'6971242'
p5339
aaNa(lp5340
S'149186'
p5341
aa(lp5342
S'5879'
p5343
aa(lp5344
S'447123'
p5345
aa(lp5346
S'104858'
p5347
aa(lp5348
S'79034'
p5349
aa(lp5350
S'5283314'
p5351
aa(lp5352
S'6570'
p5353
aa(lp5354
S'5283344'
p5355
aa(lp5356
S'17166'
p5357
aa(lp5358
S'60961'
p5359
aa(lp5360
S'35370'
p5361
aa(lp5362
S'71575003'
p5363
aaNaNaNaNaNaNa(lp5364
S'71575002'
p5365
aa(lp5366
S'162501'
p5367
aa(lp5368
S'93036'
p5369
aa(lp5370
S'50993950'
p5371
aa(lp5372
S'165151'
p5373
aa(lp5374
S'50994033'
p5375
aa(lp5376
S'24853891'
p5377
aa(lp5378
S'50993797'
p5379
aa(lp5380
S'50994032'
p5381
aa(lp5382
S'9700'
p5383
aa(lp5384
S'461278'
p5385
aa(lp5386
S'53323156'
p5387
aa(lp5388
S'15986886'
p5389
aa(lp5390
S'447405'
p5391
aa(lp5392
S'15986888'
p5393
aa(lp5394
S'23624139'
p5395
aa(lp5396
S'50925436'
p5397
aa(lp5398
S'24853892'
p5399
aa(lp5400
S'6022'
p5401
aa(lp5402
S'6083'
p5403
aa(lp5404
S'1130'
p5405
aa(lp5406
S'10667'
p5407
aa(lp5408
S'5317045'
p5409
aa(lp5410
S'7847'
p5411
aa(lp5412
S'10460'
p5413
aa(lp5414
S'5364752'
p5415
aa(lp5416
S'637920'
p5417
aa(lp5418
S'6763'
p5419
aa(lp5420
S'104731'
p5421
aa(lp5422
S'8164'
p5423
aaNa(lp5424
S'5541'
p5425
aa(lp5426
S'2502'
p5427
aa(lp5428
S'108157'
p5429
aa(lp5430
S'24316'
p5431
aa(lp5432
S'6076'
p5433
aa(lp5434
S'10635'
p5435
aa(lp5436
S'34804'
p5437
aa(lp5438
S'240'
p5439
aa(lp5440
S'20315173'
p5441
aa(lp5442
S'998'
p5443
aa(lp5444
S'85217'
p5445
aa(lp5446
S'25195386'
p5447
aa(lp5448
S'7707'
p5449
aa(lp5450
S'10371'
p5451
aa(lp5452
S'58609191'
p5453
aa(lp5454
S'15179612'
p5455
aa(lp5456
S'285477'
p5457
aa(lp5458
S'53699002'
p5459
aa(lp5460
S'527'
p5461
aa(lp5462
S'11569'
p5463
aa(lp5464
S'12105'
p5465
aa(lp5466
S'8419'
p5467
aa(lp5468
S'7725'
p5469
aa(lp5470
S'87303054'
p5471
aa(lp5472
S'83641'
p5473
aaNa(lp5474
S'57453872'
p5475
aa(lp5476
S'10681169'
p5477
aa(lp5478
S'7479'
p5479
aa(lp5480
S'78437'
p5481
aa(lp5482
S'7146'
p5483
aaNa(lp5484
S'541'
p5485
aa(lp5486
S'8658'
p5487
aa(lp5488
S'800'
p5489
aa(lp5490
S'2749252'
p5491
aa(lp5492
S'78072'
p5493
aa(lp5494
S'712'
p5495
aa(lp5496
S'68250'
p5497
aa(lp5498
S'10420437'
p5499
aa(lp5500
S'637511'
p5501
aa(lp5502
S'15614'
p5503
aa(lp5504
S'31244'
p5505
aa(lp5506
S'280725'
p5507
aa(lp5508
S'6201'
p5509
aa(lp5510
S'101'
p5511
aa(lp5512
S'226046'
p5513
aa(lp5514
S'5284506'
p5515
aa(lp5516
S'10722'
p5517
aa(lp5518
S'11101'
p5519
aa(lp5520
S'5497143'
p5521
aa(lp5522
S'91506'
p5523
aa(lp5524
S'9543050'
p5525
aa(lp5526
S'9549326'
p5527
aa(lp5528
S'644065'
p5529
aa(lp5530
S'11966117'
p5531
aa(lp5532
S'16204483'
p5533
aa(lp5534
S'1055'
p5535
aa(lp5536
S'7504'
p5537
aa(lp5538
S'1001'
p5539
aa(lp5540
S'83242'
p5541
aa(lp5542
S'5202'
p5543
aa(lp5544
S'29147'
p5545
aa(lp5546
S'681'
p5547
aa(lp5548
S'1388'
p5549
aa(lp5550
S'5610'
p5551
aa(lp5552
S'9692'
p5553
aa(lp5554
S'95153'
p5555
aaNaNaNa(lp5556
S'20841668'
p5557
aa(lp5558
S'440018'
p5559
aa(lp5560
S'193846'
p5561
aa(lp5562
S'25244175'
p5563
aS'89'
p5564
aa(lp5565
S'11811'
p5566
aS'49791998'
p5567
aa(lp5568
S'44257'
p5569
aa(lp5570
S'977'
p5571
aa(lp5572
S'92751'
p5573
aa(lp5574
S'160617'
p5575
aa(lp5576
S'546'
p5577
aa(lp5578
S'5884'
p5579
aaNaNa(lp5580
S'13945'
p5581
aa(lp5582
S'166760'
p5583
aa(lp5584
S'84843'
p5585
aa(lp5586
S'182042'
p5587
aa(lp5588
S'6184'
p5589
aa(lp5590
S'5886'
p5591
aa(lp5592
S'177'
p5593
aa(lp5594
S'5281168'
p5595
aa(lp5596
S'33'
p5597
aa(lp5598
S'449118'
p5599
aaNa(lp5600
S'3036931'
p5601
aa(lp5602
S'936'
p5603
aa(lp5604
S'1203'
p5605
aa(lp5606
S'5282360'
p5607
aa(lp5608
S'133728'
p5609
aa(lp5610
S'182232'
p5611
aa(lp5612
S'951'
p5613
aa(lp5614
S'247304'
p5615
aa(lp5616
S'4866774'
p5617
aS'838'
p5618
aa(lp5619
S'145692'
p5620
aS'7098638'
p5621
aa(lp5622
S'247'
p5623
aa(lp5624
S'87247'
p5625
aa(lp5626
S'7020415'
p5627
aa(lp5628
S'71080'
p5629
aS'7311725'
p5630
aa(lp5631
S'6989908'
p5632
aS'92222'
p5633
aa(lp5634
S'6919011'
p5635
aS'71567'
p5636
aa(lp5637
S'6919035'
p5638
aS'71098'
p5639
aa(lp5640
S'83887'
p5641
aa(lp5642
S'6857549'
p5643
aS'71077'
p5644
aa(lp5645
S'6923517'
p5646
aS'9060'
p5647
aa(lp5648
S'5257127'
p5649
aS'750'
p5650
aa(lp5651
S'6971012'
p5652
aS'8988'
p5653
aa(lp5654
S'222'
p5655
aa(lp5656
S'169371'
p5657
aa(lp5658
S'90658597'
p5659
aa(lp5660
S'25245141'
p5661
aa(lp5662
S'12314743'
p5663
aa(lp5664
S'98792'
p5665
aa(lp5666
S'6037'
p5667
aa(lp5668
S'90658192'
p5669
aa(lp5670
S'21155395'
p5671
aaNaNa(lp5672
S'6176'
p5673
aa(lp5674
S'65091'
p5675
aa(lp5676
S'64968'
p5677
aa(lp5678
S'6133'
p5679
aa(lp5680
S'101812'
p5681
aa(lp5682
S'445794'
p5683
aa(lp5684
S'31703'
p5685
aa(lp5686
S'5746'
p5687
aa(lp5688
S'10291508'
p5689
aa(lp5690
S'5281708'
p5691
aa(lp5692
S'12114463'
p5693
aa(lp5694
S'12114465'
p5695
aa(lp5696
S'53997099'
p5697
aa(lp5698
S'5280961'
p5699
aa(lp5700
S'119448'
p5701
aa(lp5702
S'10953562'
p5703
aa(lp5704
S'114705'
p5705
aa(lp5706
S'6'
aa(lp5707
S'21327'
p5708
aa(lp5709
S'185583'
p5710
aa(lp5711
S'91504'
p5712
aaNa(lp5713
S'67315'
p5714
aa(lp5715
S'6264'
p5716
aa(lp5717
S'6629'
p5718
aa(lp5719
S'265266'
p5720
aa(lp5721
S'7443'
p5722
aaNa(lp5723
S'65177'
p5724
aa(lp5725
S'6131'
p5726
aa(lp5727
S'6030'
p5728
aa(lp5729
S'515708'
p5730
aa(lp5731
S'22326046'
p5732
aS'784'
p5733
aa(lp5734
S'529'
p5735
aa(lp5736
S'92153'
p5737
aa(lp5738
S'11966162'
p5739
aa(lp5740
S'242332'
p5741
aa(lp5742
S'9543037'
p5743
aa(lp5744
S'169621'
p5745
aa(lp5746
S'5757'
p5747
aa(lp5748
S'82313'
p5749
aa(lp5750
S'44401736'
p5751
aa(lp5752
S'44401737'
p5753
aa(lp5754
S'44401451'
p5755
aa(lp5756
S'123674'
p5757
aa(lp5758
S'44401733'
p5759
aa(lp5760
S'14162705'
p5761
aa(lp5762
S'44401401'
p5763
aa(lp5764
S'60074385'
p5765
aa(lp5766
S'44401783'
p5767
aa(lp5768
S'11601597'
p5769
aa(lp5770
S'44401137'
p5771
aa(lp5772
S'44401920'
p5773
aa(lp5774
S'44401683'
p5775
aaNa(lp5776
S'44401807'
p5777
aa(lp5778
S'44401912'
p5779
aa(lp5780
S'9862185'
p5781
aa(lp5782
S'10041129'
p5783
aa(lp5784
S'44401963'
p5785
aa(lp5786
S'44401867'
p5787
aa(lp5788
S'439182'
p5789
aa(lp5790
S'44401786'
p5791
aa(lp5792
S'44401400'
p5793
aaNa(lp5794
S'439176'
p5795
aa(lp5796
S'14162703'
p5797
aa(lp5798
S'44401900'
p5799
aa(lp5800
S'49791978'
p5801
aS'778'
p5802
aaNa(lp5803
S'61'
p5804
aaNa(lp5805
S'33032'
p5806
aS'44272391'
p5807
aS'88747398'
p5808
aa(lp5809
S'440997'
p5810
aa(lp5811
S'5958'
p5812
aa(lp5813
S'439404'
p5814
aa(lp5815
S'6323443'
p5816
aa(lp5817
S'440992'
p5818
aa(lp5819
S'91493'
p5820
aa(lp5821
S'1198'
p5822
aa(lp5823
S'5318532'
p5824
aa(lp5825
S'222656'
p5826
aa(lp5827
S'10267'
p5828
aaNa(lp5829
S'5326971'
p5830
aaNa(lp5831
S'26731'
p5832
aa(lp5833
S'60983'
p5834
aa(lp5835
S'7058029'
p5836
aa(lp5837
S'638015'
p5838
aa(lp5839
S'25775'
p5840
aa(lp5841
S'24840751'
p5842
aa(lp5843
S'13389'
p5844
aa(lp5845
S'247732'
p5846
aa(lp5847
S'6451197'
p5848
aa(lp5849
S'12884'
p5850
aa(lp5851
S'7054'
p5852
aa(lp5853
S'10068031'
p5854
aa(lp5855
S'650'
p5856
aa(lp5857
S'11747'
p5858
aa(lp5859
S'179386'
p5860
aa(lp5861
S'53887514'
p5862
aa(lp5863
S'11302'
p5864
aa(lp5865
S'19707'
p5866
aa(lp5867
S'8651'
p5868
aa(lp5869
S'71308401'
p5870
aa(lp5871
S'66093'
p5872
aa(lp5873
S'92745'
p5874
aa(lp5875
S'76996'
p5876
aa(lp5877
S'222865'
p5878
aa(lp5879
S'9922115'
p5880
aa(lp5881
S'165234'
p5882
aa(lp5883
S'102030'
p5884
aa(lp5885
S'228491'
p5886
aa(lp5887
S'10315'
p5888
aa(lp5889
S'70337'
p5890
aa(lp5891
S'440114'
p5892
aa(lp5893
S'5280450'
p5894
aa(lp5895
S'444899'
p5896
aa(lp5897
S'10918995'
p5898
aa(lp5899
S'45266709'
p5900
aS'5460252'
p5901
aa(lp5902
S'31291'
p5903
aa(lp5904
S'12533'
p5905
aa(lp5906
S'5364495'
p5907
aa(lp5908
S'5280598'
p5909
aa(lp5910
S'8194'
p5911
aa(lp5912
S'984'
p5913
aa(lp5914
S'8175'
p5915
aa(lp5916
S'1023'
p5917
aS'21961011'
p5918
aa(lp5919
S'790'
p5920
aa(lp5921
S'8582'
p5922
aa(lp5923
S'7339'
p5924
aa(lp5925
S'764'
p5926
aa(lp5927
S'1188'
p5928
aa(lp5929
S'65070'
p5930
aa(lp5931
S'121885'
p5932
aa(lp5933
S'445049'
p5934
aa(lp5935
S'5280883'
p5936
aaNaNa(lp5937
S'18989'
p5938
aS'76968449'
p5939
aa(lp5940
S'6036'
p5941
aa(lp5942
S'7057906'
p5943
aa(lp5944
S'5793'
p5945
aa(lp5946
S'6904'
p5947
aa(lp5948
S'151261'
p5949
aa(lp5950
S'439163'
p5951
aa(lp5952
S'5779'
p5953
aaNa(lp5954
S'6441562'
p5955
aa(lp5956
S'9543716'
p5957
aa(lp5958
S'191288'
p5959
aaNa(lp5960
S'73339'
p5961
aa(lp5962
S'657237'
p5963
aa(lp5964
S'13711'
p5965
aa(lp5966
S'454194'
p5967
aa(lp5968
S'13730'
p5969
aa(lp5970
S'60750'
p5971
aa(lp5972
S'16760387'
p5973
aa(lp5974
S'187790'
p5975
aa(lp5976
S'119182'
p5977
aa(lp5978
S'20279'
p5979
aa(lp5980
S'6253'
p5981
aa(lp5982
S'10046567'
p5983
aaNaNa(lp5984
S'11641481'
p5985
aa(lp5986
S'29979359'
p5987
aa(lp5988
S'82565'
p5989
aa(lp5990
S'5318759'
p5991
aa(lp5992
S'11316354'
p5993
aa(lp5994
S'5274585'
p5995
aa(lp5996
S'5950'
p5997
aS'7311724'
p5998
aa(lp5999
S'644066'
p6000
aa(lp6001
S'6306'
p6002
aS'7043901'
p6003
aa(lp6004
S'6287'
p6005
aS'6971018'
p6006
aS'88733505'
p6007
aa(lp6008
S'445354'
p6009
aa(lp6010
S'13844706'
p6011
aa(lp6012
S'73579'
p6013
aa(lp6014
S'133246'
p6015
aa(lp6016
S'10400369'
p6017
aaNa(lp6018
S'643976'
p6019
aa(lp6020
S'121992'
p6021
aa(lp6022
S'9974249'
p6023
aa(lp6024
S'14181'
p6025
aa(lp6026
S'10020119'
p6027
aa(lp6028
S'8583'
p6029
aaNa(lp6030
S'24984804'
p6031
aa(lp6032
S'65369'
p6033
aa(lp6034
S'644175'
p6035
aaNaNa(lp6036
S'54515863'
p6037
aa(lp6038
S'439165'
p6039
aa(lp6040
S'57148008'
p6041
aa(lp6042
S'10404962'
p6043
aa(lp6044
S'439995'
p6045
aa(lp6046
S'439296'
p6047
aa(lp6048
S'6830'
p6049
aaNaNaNa(lp6050
S'92746'
p6051
aa(lp6052
S'6047'
p6053
aS'6971033'
p6054
aa(lp6055
S'121893'
p6056
aa(lp6057
S'1102'
p6058
aaNa(lp6059
S'5280346'
p6060
aa(lp6061
S'4462'
p6062
aa(lp6063
S'5283545'
p6064
aa(lp6065
S'2971'
p6066
aa(lp6067
S'12594'
p6068
aa(lp6069
S'5359254'
p6070
aS'587'
p6071
aS'9548602'
p6072
aa(lp6073
S'586'
p6074
aS'59098743'
p6075
aa(lp6076
S'445070'
p6077
aa(lp6078
S'751'
p6079
aa(lp6080
S'8209'
p6081
aa(lp6082
S'8914'
p6083
aa(lp6084
S'55297134'
p6085
aa(lp6086
S'135191'
p6087
aa(lp6088
S'447466'
p6089
aa(lp6090
S'454'
p6091
aa(lp6092
S'5281365'
p6093
aa(lp6094
S'7860'
p6095
aa(lp6096
S'542673'
p6097
aa(lp6098
S'92747'
p6099
aa(lp6100
S'22211699'
p6101
aa(lp6102
S'5283335'
p6103
aa(lp6104
S'129'
p6105
aa(lp6106
S'439350'
p6107
aa(lp6108
S'261'
p6109
aa(lp6110
S'65041'
p6111
aa(lp6112
S'8130'
p6113
aa(lp6114
S'14090'
p6115
aa(lp6116
S'8174'
p6117
aaNa(lp6118
S'637566'
p6119
aa(lp6120
S'101767'
p6121
aa(lp6122
S'31289'
p6123
aa(lp6124
S'7510'
p6125
aa(lp6126
S'8103'
p6127
aa(lp6128
S'5283345'
p6129
aa(lp6130
S'756'
p6131
aa(lp6132
S'643820'
p6133
aa(lp6134
S'79014'
p6135
aaNa(lp6136
S'244'
p6137
aa(lp6138
S'10158928'
p6139
aa(lp6140
S'10135684'
p6141
aa(lp6142
S'9568512'
p6143
aa(lp6144
S'2761171'
p6145
aa(lp6146
S'1349907'
p6147
aaNaNaNaNaNa(lp6148
S'7000109'
p6149
aS'94284'
p6150
aa(lp6151
S'108194'
p6152
aaNa(lp6153
S'21125192'
p6154
aaNa(lp6155
S'53714117'
p6156
aaNaNaNaNaNa(lp6157
S'87354148'
p6158
aaNaNaNaNaNaNaNaNaNaNa(lp6159
S'5496888'
p6160
aaNaNaNaNaNaNaNaNaNaNaNaNaNaNaNaNaNaNaNaNaNa(lp6161
S'3081372'
p6162
aS'90657349'
p6163
aaNaNaNa(lp6164
S'89854604'
p6165
aaNa(lp6166
S'68578808'
p6167
aa(lp6168
S'151405'
p6169
aa(lp6170
S'150936'
p6171
aa(lp6172
S'541605'
p6173
aa(lp6174
S'195970'
p6175
aaNa(lp6176
S'7408106'
p6177
aa(lp6178
S'7408187'
p6179
aa(lp6180
S'18396'
p6181
aa(lp6182
S'439280'
p6183
aS'6971044'
p6184
aa(lp6185
S'150990'
p6186
aS'6950483'
p6187
aa(lp6188
S'676159'
p6189
aS'6920150'
p6190
aa(lp6191
S'688357'
p6192
aS'6921698'
p6193
aa(lp6194
S'439198'
p6195
aa(lp6196
S'780'
p6197
aaNaNa(lp6198
S'25207850'
p6199
aa(lp6200
S'448580'
p6201
aa(lp6202
S'28126075'
p6203
aa(lp6204
S'40617599'
p6205
aa(lp6206
S'21117855'
p6207
aa(lp6208
S'12072126'
p6209
aa(lp6210
S'30046702'
p6211
aa(lp6212
S'152204'
p6213
aa(lp6214
S'6995109'
p6215
aa(lp6216
S'181735'
p6217
aa(lp6218
S'70912'
p6219
aa(lp6220
S'29896777'
p6221
aa(lp6222
S'182230'
p6223
aa(lp6224
S'30050807'
p6225
aa(lp6226
S'66789'
p6227
aa(lp6228
S'11345724'
p6229
aa(lp6230
S'6453068'
p6231
aa(lp6232
S'12035'
p6233
aaNa(lp6234
S'51669405'
p6235
aS'75619'
p6236
aa(lp6237
S'29900275'
p6238
aaNa(lp6239
S'74839'
p6240
aa(lp6241
S'439750'
p6242
aa(lp6243
S'70914'
p6244
aa(lp6245
S'10972'
p6246
aa(lp6247
S'98774'
p6248
aaNa(lp6249
S'65065'
p6250
aa(lp6251
S'688372'
p6252
aa(lp6253
S'9547180'
p6254
aa(lp6255
S'5311263'
p6256
aa(lp6257
S'6804'
p6258
aa(lp6259
S'6021'
p6260
aa(lp6261
S'12599'
p6262
aa(lp6263
S'37542'
p6264
aa(lp6265
S'1051'
p6266
aa(lp6267
S'6132'
p6268
aa(lp6269
S'8977'
p6270
aa(lp6271
S'65118'
p6272
aa(lp6273
S'164628'
p6274
aa(lp6275
S'378'
p6276
aa(lp6277
S'2115'
p6278
aa(lp6279
S'6031'
p6280
aa(lp6281
S'74975'
p6282
aa(lp6283
S'1005'
p6284
aS'58114173'
p6285
aS'59658623'
p6286
aa(lp6287
S'12793'
p6288
aa(lp6289
S'42785'
p6290
aa(lp6291
S'13243'
p6292
aa(lp6293
S'123789'
p6294
aa(lp6295
S'6998938'
p6296
aa(lp6297
S'13859094'
p6298
aa(lp6299
S'7019922'
p6300
aaNaNaNa(lp6301
S'25077406'
p6302
aa(lp6303
S'461776'
p6304
aaNa(lp6305
S'6994977'
p6306
aaNaNa(lp6307
S'445127'
p6308
aa(lp6309
S'20544'
p6310
aa(lp6311
S'54503630'
p6312
aa(lp6313
S'142115'
p6314
aa(lp6315
S'136542'
p6316
aa(lp6317
S'7997'
p6318
aa(lp6319
S'31272'
p6320
aa(lp6321
S'137074'
p6322
aa(lp6323
S'10016'
p6324
aa(lp6325
S'8857'
p6326
aa(lp6327
S'294521'
p6328
aa(lp6329
S'75153'
p6330
aa(lp6331
S'13410'
p6332
aa(lp6333
S'136256'
p6334
aaNa(lp6335
S'8785'
p6336
aa(lp6337
S'70144'
p6338
aa(lp6339
S'2779528'
p6340
aa(lp6341
S'83062'
p6342
aa(lp6343
S'578495'
p6344
aa(lp6345
S'11393'
p6346
aaNa(lp6347
S'8797'
p6348
aa(lp6349
S'31229'
p6350
aa(lp6351
S'89773'
p6352
aa(lp6353
S'83063'
p6354
aa(lp6355
S'141495'
p6356
aa(lp6357
S'5870'
p6358
aa(lp6359
S'75834'
p6360
aaNa(lp6361
S'125815'
p6362
aa(lp6363
S'162381'
p6364
aa(lp6365
S'75069'
p6366
aaNa(lp6367
S'7750'
p6368
aa(lp6369
S'6050'
p6370
aa(lp6371
S'43859'
p6372
aa(lp6373
S'7904'
p6374
aa(lp6375
S'76571'
p6376
aa(lp6377
S'40463'
p6378
aa(lp6379
S'31247'
p6380
aa(lp6381
S'8763'
p6382
aaNaNaNaNaNaNaNa(lp6383
S'439201'
p6384
aaNaNaNaNa(lp6385
S'194496'
p6386
aa(lp6387
S'96771'
p6388
aaNaNa(lp6389
S'9920174'
p6390
aa(lp6391
S'16218932'
p6392
aaNaNaNaNaNa(lp6393
S'6438387'
p6394
aaNaNaNa(lp6395
S'94418'
p6396
aaNaNaNa(lp6397
S'25243997'
p6398
aS'439258'
p6399
aa(lp6400
S'147253'
p6401
aS'7048513'
p6402
aa(lp6403
S'440772'
p6404
aa(lp6405
S'880'
p6406
aa(lp6407
S'114894'
p6408
aS'40466869'
p6409
aaNa(lp6410
S'280'
p6411
aa(lp6412
S'22647601'
p6413
aS'769'
p6414
aa(lp6415
S'6175'
p6416
aa(lp6417
S'6128'
p6418
aa(lp6419
S'73580'
p6420
aa(lp6421
S'160913'
p6422
aa(lp6423
S'5280360'
p6424
aa(lp6425
S'30323'
p6426
aa(lp6427
S'86289952'
p6428
aa(lp6429
S'440304'
p6430
aa(lp6431
S'1000'
p6432
aa(lp6433
S'4581'
p6434
aa(lp6435
S'6420129'
p6436
aa(lp6437
S'135924'
p6438
aa(lp6439
S'30514'
p6440
aa(lp6441
S'28782'
p6442
aS'6322'
p6443
aa(lp6444
S'5280393'
p6445
aa(lp6446
S'439160'
p6447
aaNa(lp6448
S'9939545'
p6449
aaNaNaNa(lp6450
S'6013'
p6451
aa(lp6452
S'10087021'
p6453
aa(lp6454
S'92786'
p6455
aa(lp6456
S'3034809'
p6457
aa(lp6458
S'9839851'
p6459
aa(lp6460
S'130415'
p6461
aa(lp6462
S'11659209'
p6463
aa(lp6464
S'92810'
p6465
aaNa(lp6466
S'439423'
p6467
aa(lp6468
S'65728'
p6469
aa(lp6470
S'32051'
p6471
aaNa(lp6472
S'27284'
p6473
aa(lp6474
S'199'
p6475
aaNaNaNaNaNaNaNa(lp6476
S'449023'
p6477
aa(lp6478
S'5288768'
p6479
aaNaNaNaNaNaNaNa(lp6480
S'321'
p6481
aa(lp6482
S'21126171'
p6483
aaNaNaNa(lp6484
S'788'
p6485
aa(lp6486
S'5460672'
p6487
aa(lp6488
S'439665'
p6489
aa(lp6490
S'670'
p6491
aaNa(lp6492
S'5460032'
p6493
aa(lp6494
S'179'
p6495
aa(lp6496
S'169019'
p6497
aa(lp6498
S'94176'
p6499
aa(lp6500
S'439205'
p6501
aa(lp6502
S'700'
p6503
aa(lp6504
S'6276'
p6505
aa(lp6506
S'10685'
p6507
aa(lp6508
S'9828112'
p6509
aa(lp6510
S'6439706'
p6511
aa(lp6512
S'62348'
p6513
aa(lp6514
S'5354043'
p6515
aa(lp6516
S'702'
p6517
aa(lp6518
S'3776'
p6519
aa(lp6520
S'957'
p6521
aa(lp6522
S'1031'
p6523
aa(lp6524
S'10466'
p6525
aa(lp6526
S'7966'
p6527
aa(lp6528
S'263'
p6529
aa(lp6530
S'6436079'
p6531
aa(lp6532
S'887'
p6533
aa(lp6534
S'174'
p6535
aa(lp6536
S'444683'
p6537
aaNa(lp6538
S'31234'
p6539
aa(lp6540
S'6054'
p6541
aa(lp6542
S'1030'
p6543
aa(lp6544
S'7149'
p6545
aa(lp6546
S'753'
p6547
aa(lp6548
S'7475'
p6549
aaa(lp6550
NaNaNaNaNaNaNaNaNaNaNaNaNaNaNaNaNaNaNaNaNaNaNaNaNaNaNaNaNaNaNa(lp6551
S'HMDB00538'
p6552
aa(lp6553
S'HMDB03371'
p6554
aa(lp6555
S'HMDB00115'
p6556
aa(lp6557
S'HMDB00119'
p6558
aa(lp6559
S'HMDB13211'
p6560
aa(lp6561
S'HMDB00703'
p6562
aaNa(lp6563
S'HMDB00190'
p6564
aa(lp6565
S'HMDB00052'
p6566
aaNaNaNaNaNaNaNaNaNaNaNa(lp6567
S'HMDB00935'
p6568
aa(lp6569
S'HMDB00803'
p6570
aa(lp6571
S'HMDB00302'
p6572
aaNaNaNaNaNaNaNaNaNaNaNaNaNaNaNaNaNaNaNaNaNa(lp6573
S'HMDB12210'
p6574
aa(lp6575
S'HMDB00125'
p6576
aaNaNaNa(lp6577
S'HMDB00574'
p6578
aaNa(lp6579
S'HMDB00273'
p6580
aaNa(lp6581
S'HMDB01003'
p6582
aa(lp6583
S'HMDB00547'
p6584
aa(lp6585
S'HMDB01206'
p6586
aaNa(lp6587
S'HMDB00985'
p6588
aaNa(lp6589
S'HMDB00962'
p6590
aa(lp6591
S'HMDB00902'
p6592
aaNa(lp6593
S'HMDB01892'
p6594
aaNaNaNaNaNaNaNaNaNaNaNa(lp6595
S'HMDB01451'
p6596
aaNa(lp6597
S'HMDB00240'
p6598
aaNaNaNa(lp6599
S'HMDB01337'
p6600
aaNa(lp6601
S'HMDB00243'
p6602
aa(lp6603
S'HMDB01409'
p6604
aaNaNa(lp6605
S'HMDB00491'
p6606
aa(lp6607
S'HMDB00159'
p6608
aa(lp6609
S'HMDB00223'
p6610
aaNa(lp6611
S'HMDB00208'
p6612
aa(lp6613
S'HMDB00177'
p6614
aa(lp6615
S'HMDB00695'
p6616
aaNaNa(lp6617
S'HMDB00641'
p6618
aaNa(lp6619
S'HMDB00707'
p6620
aa(lp6621
S'HMDB00205'
p6622
aa(lp6623
S'HMDB00929'
p6624
aa(lp6625
S'HMDB00696'
p6626
aaNa(lp6627
S'HMDB00005'
p6628
aa(lp6629
S'HMDB00019'
p6630
aa(lp6631
S'HMDB00684'
p6632
aaNa(lp6633
S'HMDB00168'
p6634
aa(lp6635
S'HMDB00225'
p6636
aa(lp6637
S'HMDB00158'
p6638
aa(lp6639
S'HMDB00687'
p6640
aaNaNa(lp6641
S'HMDB00187'
p6642
aaNa(lp6643
S'HMDB00619'
p6644
aaNaNaNa(lp6645
S'HMDB01164'
p6646
aaNa(lp6647
S'HMDB04662'
p6648
aa(lp6649
S'HMDB04645'
p6650
aa(lp6651
S'HMDB02059'
p6652
aaNaNa(lp6653
S'HMDB04362'
p6654
aaNa(lp6655
S'HMDB00050'
p6656
aaNaNaNaNaNaNaNaNaNaNaNaNaNaNaNaNaNa(lp6657
S'HMDB01227'
p6658
aaNaNaNaNaNaNaNaNa(lp6659
S'HMDB01341'
p6660
aa(lp6661
S'HMDB00045'
p6662
aa(lp6663
S'HMDB00235'
p6664
aaNaNaNaNaNa(lp6665
S'HMDB01184'
p6666
aaNaNaNaNaNaNaNa(lp6667
S'HMDB01314'
p6668
aa(lp6669
S'HMDB00058'
p6670
aa(lp6671
S'HMDB02961'
p6672
aaNa(lp6673
S'HMDB06115'
p6674
aaNa(lp6675
S'HMDB06236'
p6676
aaNaNaNaNaNaNaNaNa(lp6677
S'HMDB03366'
p6678
aaNaNaNaNaNaNaNaNaNaNaNaNaNaNaNa(lp6679
S'HMDB01190'
p6680
aaNaNa(lp6681
S'HMDB01426'
p6682
aaNaNa(lp6683
S'HMDB03441'
p6684
aaNaNaNaNaNaNaNaNaNaNaNaNaNaNaNaNa(lp6685
S'HMDB01319'
p6686
aaNa(lp6687
S'HMDB12275'
p6688
aaNa(lp6689
S'HMDB00259'
p6690
aaNa(lp6691
S'HMDB00073'
p6692
aaNa(lp6693
S'HMDB00306'
p6694
aa(lp6695
S'HMDB12246'
p6696
aaNa(lp6697
S'HMDB06229'
p6698
aaNaNaNa(lp6699
S'HMDB01066'
p6700
aaNa(lp6701
S'HMDB00732'
p6702
aa(lp6703
S'HMDB11631'
p6704
aaNa(lp6705
S'HMDB01377'
p6706
aa(lp6707
S'HMDB00788'
p6708
aa(lp6709
S'HMDB00218'
p6710
aa(lp6711
S'HMDB04110'
p6712
aaNaNaNa(lp6713
S'HMDB01202'
p6714
aa(lp6715
S'HMDB01439'
p6716
aaNaNa(lp6717
S'HMDB05994'
p6718
aa(lp6719
S'HMDB00217'
p6720
aa(lp6721
S'HMDB00990'
p6722
aaNaNaNaNa(lp6723
S'HMDB01243'
p6724
aa(lp6725
S'HMDB01406'
p6726
aaNaNaNaNaNa(lp6727
S'HMDB00338'
p6728
aaNaNa(lp6729
S'HMDB00043'
p6730
aaNaNa(lp6731
S'HMDB01310'
p6732
aaNaNaNa(lp6733
S'HMDB06483'
p6734
aa(lp6735
S'HMDB03406'
p6736
aa(lp6737
S'HMDB13609'
p6738
aa(lp6739
S'HMDB00123'
p6740
aa(lp6741
S'HMDB03411'
p6742
aa(lp6743
S'HMDB00051'
p6744
aaNaNaNaNa(lp6745
S'HMDB01056'
p6746
aa(lp6747
S'HMDB00121'
p6748
aaNaNaNaNa(lp6749
S'HMDB00082'
p6750
aa(lp6751
S'HMDB00998'
p6752
aa(lp6753
S'HMDB01342'
p6754
aa(lp6755
S'HMDB00285'
p6756
aaNaNaNaNaNa(lp6757
S'HMDB03312'
p6758
aaNaNaNa(lp6759
S'HMDB03217'
p6760
aaNaNaNaNaNaNaNaNaNaNaNaNaNaNaNa(lp6761
S'HMDB00095'
p6762
aa(lp6763
S'HMDB00288'
p6764
aaNa(lp6765
S'HMDB03125'
p6766
aa(lp6767
S'HMDB00816'
p6768
aaNaNa(lp6769
S'HMDB00493'
p6770
aaNaNa(lp6771
S'HMDB00151'
p6772
aaNaNaNaNaNaNaNaNaNaNaNaNaNaNaNaNaNaNaNaNaNa(lp6773
S'HMDB01983'
p6774
aaNaNaNa(lp6775
S'HMDB01173'
p6776
aaNaNa(lp6777
S'HMDB00742'
p6778
aaNaNaNa(lp6779
S'HMDB00148'
p6780
aaNa(lp6781
S'HMDB01401'
p6782
aaNaNaNa(lp6783
S'HMDB01316'
p6784
aa(lp6785
S'HMDB00193'
p6786
aa(lp6787
S'HMDB01874'
p6788
aa(lp6789
S'HMDB00156'
p6790
aaNaNaNaNaNaNaNa(lp6791
S'HMDB01358'
p6792
aaNaNaNa(lp6793
S'HMDB00546'
p6794
aaNaNaNaNa(lp6795
S'HMDB03407'
p6796
aaNaNaNa(lp6797
S'HMDB06770'
p6798
aaNaNaNaNaNaNa(lp6799
S'HMDB00899'
p6800
aaNaNa(lp6801
S'HMDB00352'
p6802
aa(lp6803
S'HMDB01471'
p6804
aaNaNa(lp6805
S'HMDB03769'
p6806
aa(lp6807
S'HMDB00673'
p6808
aa(lp6809
S'HMDB01043'
p6810
aaNaNaNa(lp6811
S'HMDB02384'
p6812
aaNaNaNa(lp6813
S'HMDB01551'
p6814
aa(lp6815
S'HMDB11623'
p6816
aaNa(lp6817
S'HMDB00157'
p6818
aa(lp6819
S'HMDB00175'
p6820
aa(lp6821
S'HMDB00280'
p6822
aa(lp6823
S'HMDB00132'
p6824
aa(lp6825
S'HMDB00292'
p6826
aa(lp6827
S'HMDB01191'
p6828
aa(lp6829
S'HMDB00980'
p6830
aa(lp6831
S'HMDB01381'
p6832
aa(lp6833
S'HMDB03235'
p6834
aaNaNaNaNaNa(lp6835
S'HMDB00122'
p6836
aaNa(lp6837
S'HMDB00621'
p6838
aaNa(lp6839
S'HMDB00283'
p6840
aaNa(lp6841
S'HMDB07161'
p6842
aa(lp6843
S'HMDB07218'
p6844
aaNaNaNaNa(lp6845
S'HMDB00014'
p6846
aaNa(lp6847
S'HMDB00101'
p6848
aaNaNa(lp6849
S'HMDB00085'
p6850
aaNaNaNaNaNaNaNaNaNaNaNaNa(lp6851
S'HMDB00161'
p6852
aaNa(lp6853
S'HMDB00172'
p6854
aa(lp6855
S'HMDB00883'
p6856
aa(lp6857
S'HMDB00305'
p6858
aaNaNa(lp6859
S'HMDB02215'
p6860
aa(lp6861
S'HMDB01076'
p6862
aaNa(lp6863
S'HMDB01520'
p6864
aaNaNaNaNa(lp6865
S'HMDB00189'
p6866
aaNaNaNa(lp6867
S'HMDB06330'
p6868
aaNaNaNa(lp6869
S'HMDB01586'
p6870
aaNaNaNa(lp6871
S'HMDB00293'
p6872
aa(lp6873
S'HMDB01273'
p6874
aaNaNaNa(lp6875
S'HMDB06271'
p6876
aa(lp6877
S'HMDB00181'
p6878
aa(lp6879
S'HMDB01097'
p6880
aa(lp6881
S'HMDB01257'
p6882
aaNa(lp6883
S'HMDB06709'
p6884
aa(lp6885
S'HMDB02012'
p6886
aa(lp6887
S'HMDB06710'
p6888
aaNa(lp6889
S'HMDB01032'
p6890
aa(lp6891
S'HMDB01511'
p6892
aa(lp6893
S'HMDB00064'
p6894
aa(lp6895
S'HMDB04305'
p6896
aa(lp6897
S'HMDB01051'
p6898
aa(lp6899
S'HMDB11638'
p6900
aaNaNa(lp6901
S'HMDB00098'
p6902
aaNa(lp6903
S'HMDB01140'
p6904
aaNaNaNa(lp6905
S'HMDB03069'
p6906
aaNaNa(lp6907
S'HMDB01318'
p6908
aa(lp6909
S'HMDB06458'
p6910
aa(lp6911
S'HMDB03543'
p6912
aaNaNaNa(lp6913
S'HMDB11624'
p6914
aaNaNaNaNaNa(lp6915
S'HMDB12971'
p6916
aaNa(lp6917
S'HMDB03344'
p6918
aa(lp6919
S'HMDB05812'
p6920
aaNaNa(lp6921
S'HMDB03119'
p6922
aaNaNaNaNaNaNaNaNaNaNaNaNaNaNaNaNaNaNaNaNaNaNaNaNaNaNaNaNaNaNaNaNaNaNaNaNaNaNaNaNaNaNaNaNaNaNaNaNaNaNaNaNaNaNaNaNaNaNaNaNaNaNaNaNaNaNaNaNa(lp6923
S'HMDB01163'
p6924
aaNaNaNaNa(lp6925
S'HMDB01078'
p6926
aa(lp6927
S'HMDB00130'
p6928
aaNaNaNaNaNaNaNaNaNaNaNaNa(lp6929
S'HMDB11756'
p6930
aaNaNaNaNaNaNa(lp6931
S'HMDB01890'
p6932
aaNaNaNaNa(lp6933
S'HMDB00512'
p6934
aaNaNa(lp6935
S'HMDB00532'
p6936
aaNaNa(lp6937
S'HMDB00812'
p6938
aaNaNa(lp6939
S'HMDB07855'
p6940
aa(lp6941
S'HMDB01397'
p6942
aa(lp6943
S'HMDB00195'
p6944
aa(lp6945
S'HMDB00905'
p6946
aaNa(lp6947
S'HMDB01491'
p6948
aa(lp6949
S'HMDB01546'
p6950
aa(lp6951
S'HMDB01201'
p6952
aaNa(lp6953
S'HMDB01274'
p6954
aaNaNa(lp6955
S'HMDB00295'
p6956
aaNa(lp6957
S'HMDB00263'
p6958
aaNaNaNaNaNaNaNaNaNaNaNa(lp6959
S'HMDB01045'
p6960
aaNaNaNaNaNaNaNaNaNaNaNaNaNaNaNaNaNaNaNaNaNaNaNaNaNaNaNaNaNaNaNa(lp6961
S'HMDB00145'
p6962
aaNaNaNaNaNaNaNaNaNaNaNaNaNaNaNaNaNaNaNaNaNa(lp6963
S'HMDB04246'
p6964
aaNaNaNaNaNaNaNaNaNaNaNaNaNaNaNaNaNaNaNaNaNaNaNa(lp6965
S'HMDB00099'
p6966
aaNaNa(lp6967
S'HMDB01167'
p6968
aaNaNa(lp6969
S'HMDB01967'
p6970
aa(lp6971
S'HMDB00595'
p6972
aa(lp6973
S'HMDB00089'
p6974
aa(lp6975
S'HMDB00053'
p6976
aaNa(lp6977
S'HMDB02022'
p6978
aa(lp6979
S'HMDB01220'
p6980
aaNaNa(lp6981
S'HMDB01117'
p6982
aa(lp6983
S'HMDB01065'
p6984
aaNaNaNaNa(lp6985
S'HMDB00517'
p6986
aa(lp6987
S'HMDB02052'
p6988
aaNaNaNaNaNaNa(lp6989
S'HMDB00234'
p6990
aaNa(lp6991
S'HMDB01449'
p6992
aaNaNaNaNa(lp6993
S'HMDB03759'
p6994
aaNa(lp6995
S'HMDB00032'
p6996
aa(lp6997
S'HMDB01170'
p6998
aa(lp6999
S'HMDB01303'
p7000
aaNa(lp7001
S'HMDB00692'
p7002
aa(lp7003
S'HMDB01432'
p7004
aaNaNaNaNaNaNaNaNaNaNaNaNaNaNaNaNa(lp7005
S'HMDB01261'
p7006
aaNaNaNaNa(lp7007
S'HMDB01137'
p7008
aaNaNa(lp7009
S'HMDB01882'
p7010
aaNa(lp7011
S'HMDB06293'
p7012
aa(lp7013
S'HMDB03243'
p7014
aa(lp7015
S'HMDB04136'
p7016
aaNaNa(lp7017
S'HMDB00149'
p7018
aa(lp7019
S'HMDB13036'
p7020
aa(lp7021
S'HMDB03447'
p7022
aaNaNaNaNa(lp7023
S'HMDB00108'
p7024
aa(lp7025
S'HMDB00863'
p7026
aa(lp7027
S'HMDB01183'
p7028
aa(lp7029
S'HMDB00820'
p7030
aaNaNa(lp7031
S'HMDB04327'
p7032
aa(lp7033
S'HMDB06220'
p7034
aa(lp7035
S'HMDB01875'
p7036
aaNaNaNaNaNa(lp7037
S'HMDB01881'
p7038
aaNa(lp7039
S'HMDB00131'
p7040
aaNaa.