(dp1
S'2.3.1.137'
p2
(dp3
sS'2.5.1.56'
p4
(dp5
sS'3.2.1.114'
p6
(dp7
S'IFBHRQDFSNCLOZ-GCHJQGSQSA-N'
p8
(lp9
F0.0025000000000000001
asS'QIGJYVCQYDKYDW-LBGGPIGOSA-N'
p10
(lp11
F4.6699999999999999
assS'3.4.21.59'
p12
(dp13
S'PZISISNJNWOBHV-SRBWTXITSA-N'
p14
(lp15
F27.899999999999999
aF40
aF45.899999999999999
aF75.5
asS'GKZWOWMHNGERLN-CAXVJRSRSA-N'
p16
(lp17
F187
asS'DGPYFYSXNOBGJA-ULQDDVLXSA-N'
p18
(lp19
F1.5
aF1.7
aF2.6000000000000001
aF56.399999999999999
aF56.899999999999999
asS'ZNKZJCICBFSACN-GBESFXJTSA-N'
p20
(lp21
F0.83299999999999996
aF7.0999999999999996
aF16.300000000000001
aF21.100000000000001
aF31
asS'KREKWGFJASFREZ-CAVYSCNFSA-N'
p22
(lp23
F1870
asS'ZSBPHDYKXZDSIB-VJBWXMMDSA-N'
p24
(lp25
F24.100000000000001
aF27.100000000000001
aF51
aF59.5
asS'RURQVPPGNRUUJQ-YADHBBJMSA-N'
p26
(lp27
F1.8999999999999999
aF3
aF5.4000000000000004
aF10.300000000000001
asS'ZPQZRIJTQNWNLG-VXKWHMMOSA-N'
p28
(lp29
F551
aF553
asS'ZSZSULQXRFJMQY-BZSNNMDCSA-N'
p30
(lp31
F141
asS'TYPQWPWJLCWOBH-BULBTXNYSA-N'
p32
(lp33
F1.1000000000000001
aF3.5
asS'XEXULFKIPLAHKX-IRXDYDNUSA-N'
p34
(lp35
F15.199999999999999
aF22.899999999999999
aF30.5
aF2628
aF2630
asS'BEIMNCVJDQIXQV-CXVGLUDESA-N'
p36
(lp37
F233
asS'KOXMDCXAOGQNDD-FSSWDIPSSA-N'
p38
(lp39
F2.7999999999999998
aF5
aF5.2000000000000002
aF5.2999999999999998
asS'UZIOHGOHBCERLB-AVWTVUIISA-N'
p40
(lp41
F435
asS'XHTORJWGZKCDGL-FZDIXFNVSA-N'
p42
(lp43
F170
asS'NROAMPWMTUQJDJ-CAVYSCNFSA-N'
p44
(lp45
F1520
asS'LWDRDPHHKLGEFZ-GOTSBHOMSA-N'
p46
(lp47
F45.700000000000003
asS'NRTJWZHOAFLRIR-KRWDZBQOSA-N'
p48
(lp49
F5.3499999999999996
aF5.5199999999999996
asS'STILDCYGNQCTCY-WMBWNXPESA-N'
p50
(lp51
F3.7999999999999998
aF21.75
aF21.800000000000001
asS'RKDYKIHMFYAPMZ-INIZCTEOSA-N'
p52
(lp53
F0.029999999999999999
aF1.6599999999999999
aF2.5099999999999998
aF2.9399999999999999
aF3
aF6.5099999999999998
aF8.9000000000000004
asS'XYGHIWQLICRVCI-CQETUWSJSA-N'
p54
(lp55
F0.96999999999999997
aF0.98999999999999999
asS'QZTJLFYMNWYKRD-DOHHORDPSA-N'
p56
(lp57
F0.98999999999999999
aF1.1000000000000001
asS'YQZQUYLAVZQUOU-ZTVREQDFSA-N'
p58
(lp59
F378
asS'WIBFAXIURSAKDG-MZBJOSPHSA-N'
p60
(lp61
F3290
asS'HBBLFIIXAADAFQ-JYJNAYRXSA-N'
p62
(lp63
F159
asS'RACPARIFVUIBCA-OPXMRZJTSA-N'
p64
(lp65
F2040
asS'NIABVHFJJIKYSC-IBGZPJMESA-N'
p66
(lp67
F104
aF107
asS'CAHPNBROIJUPKS-KBPBESRZSA-N'
p68
(lp69
F9
aF60.600000000000001
aF183
asS'QUSAVWXTBAPHPC-ZZERCLMESA-N'
p70
(lp71
F199
asS'PDOGUEHPGDTFTJ-LMESLEFPSA-N'
p72
(lp73
F367
asS'HPABFCQYFSWXIO-VXKWHMMOSA-N'
p74
(lp75
F21
assS'2.3.1.65'
p76
(dp77
sS'2.7.1.11'
p78
(dp79
S'ZKHQWZAMYRWXGA-KQYNXXCUSA-N'
p80
(lp81
F357
assS'3.2.1.49'
p82
(dp83
sS'2.7.1.15'
p84
(dp85
sS'2.7.1.17'
p86
(dp87
S'LQXVFWRQNMEDEE-OVEKKEMJSA-N'
p88
(lp89
F35
assS'2.4.99.1'
p90
(dp91
sS'1.1.1.145'
p92
(dp93
S'BCWCEHMHCDCJAD-UHFFFAOYSA-N'
p94
(lp95
F3.7000000000000002
asS'SKFLCXNDKRUHTA-UHFFFAOYSA-N'
p96
(lp97
F2
asS'NCYCYZXNIZJOKI-OVSJKPMPSA-N'
p98
(lp99
F0.050000000000000003
asS'TXIXSLPEABAEHP-UHFFFAOYSA-N'
p100
(lp101
F33.299999999999997
asS'XMRPGKVKISIQBV-XWOJZHJZSA-N'
p102
(lp103
F0.063
asS'XKGLSKVNOSHTAD-UHFFFAOYSA-N'
p104
(lp105
F2
asS'RAJWOBJTTGJROA-WZNAKSSCSA-N'
p106
(lp107
F0.097000000000000003
asS'FFSAXUULYPJSKH-UHFFFAOYSA-N'
p108
(lp109
F0.84999999999999998
asS'FRASJONUBLZVQX-UHFFFAOYSA-N'
p110
(lp111
F0.88
asS'YWYQTGBBEZQBGO-QARKZGPCSA-N'
p112
(lp113
F0.014
asS'BXRFQSNOROATLV-UHFFFAOYSA-N'
p114
(lp115
F16.699999999999999
asS'QGXBDMJGAMFCBF-XRJZGPCZSA-N'
p116
(lp117
F0.017000000000000001
asS'QQIVKFZWLZJXJT-HLUDHZFRSA-N'
p118
(lp119
F0.040000000000000001
aF0.14000000000000001
asS'UWCPWBIMRYXUOU-UHFFFAOYSA-N'
p120
(lp121
F41.700000000000003
asS'JXDYKVIHCLTXOP-UHFFFAOYSA-N'
p122
(lp123
F31.699999999999999
asS'BOPGDPNILDQYTO-NNYOXOHSSA-N'
p124
(lp125
F0.75
aF1.6499999999999999
asS'KIQFUORWRVZTHT-PBDHEXIJSA-N'
p126
(lp127
F0.042999999999999997
asS'DYVGYXXLXQESJE-WTVMURBBSA-N'
p128
(lp129
F0.070000000000000007
asS'TZMFJUDUGYTVRY-UHFFFAOYSA-N'
p130
(lp131
F26.699999999999999
asS'HQRWWHIETAKIMO-JTQLQIEISA-N'
p132
(lp133
F0.074999999999999997
asS'ZDGPOJYWTVDMDU-UHFFFAOYSA-N'
p134
(lp135
F33.299999999999997
asS'YYVYAPXYZVYDHN-UHFFFAOYSA-N'
p136
(lp137
F11.800000000000001
asS'NVKAWKQGWWIWPM-ABEVXSGRSA-N'
p138
(lp139
F0.095000000000000001
asS'JAAJQSRLGAYGKZ-JTQLQIEISA-N'
p140
(lp141
F0.25
asS'MWVFCEVNXHTDNF-UHFFFAOYSA-N'
p142
(lp143
F16.300000000000001
asS'NVKAWKQGWWIWPM-MISPCMORSA-N'
p144
(lp145
F0.083000000000000004
asS'WURBFLDFSFBTLW-UHFFFAOYSA-N'
p146
(lp147
F31.699999999999999
asS'BGUWFUQJCDRPTL-UHFFFAOYSA-N'
p148
(lp149
F4.7000000000000002
asS'MJVAVZPDRWSRRC-UHFFFAOYSA-N'
p150
(lp151
F0.65000000000000002
asS'BAWFJGJZGIEFAR-NNYOXOHSSA-O'
p152
(lp153
F0.02
aF0.021999999999999999
aF0.050000000000000003
aF0.058000000000000003
aF0.059999999999999998
aF0.070000000000000007
aF0.11
aF0.12
asS'CBMYJHIOYJEBSB-VXZRPZIYSA-N'
p154
(lp155
F0.017000000000000001
asS'ZMTGGXREUMKXBC-UHFFFAOYSA-N'
p156
(lp157
F2
asS'FMGSKLZLMKYGDP-USOAJAOKSA-N'
p158
(lp159
F0.02
aF0.021000000000000001
aF0.050000000000000003
aF0.055
aF0.055
aF0.055
aF0.059999999999999998
aF0.14000000000000001
aF0.14499999999999999
asS'QSJXEFYPDANLFS-UHFFFAOYSA-N'
p160
(lp161
F28.300000000000001
asS'FJPGAMCQJNLTJC-UHFFFAOYSA-N'
p162
(lp163
F40.200000000000003
asS'YIAPLDFPUUJILH-VIFPVBQESA-N'
p164
(lp165
F0.17999999999999999
asS'QQIVKFZWLZJXJT-DNKQKWOHSA-N'
p166
(lp167
F0.089999999999999997
asS'AURFZBICLPNKBZ-GRWISUQFSA-N'
p168
(lp169
F0.041000000000000002
asS'MAHPVQDVMLWUAG-UHFFFAOYSA-N'
p170
(lp171
F2.7000000000000002
asS'RAJWOBJTTGJROA-QJISAEMRSA-N'
p172
(lp173
F0.076999999999999999
assS'1.1.5.3'
p174
(dp175
sS'1.1.3.12'
p176
(dp177
sS'1.1.3.15'
p178
(dp179
S'AEMRFAOFKBGASW-UHFFFAOYSA-N'
p180
(lp181
F3.6000000000000001
aF4.0999999999999996
aF15.6
asS'HHLFWLYXYJOTON-UHFFFAOYSA-N'
p182
(lp183
F0.69999999999999996
aF0.82999999999999996
asS'JVTAAEKCZFNVCJ-REOHCLBHSA-N'
p184
(lp185
F0.46000000000000002
asS'GPPUPQFYDYLTIY-UHFFFAOYSA-N'
p186
(lp187
F0.080000000000000002
asS'IWYDHOAUDWTVEP-ZETCQYMHSA-N'
p188
(lp189
F0.11
asS'VOCHQRDHMUQBKK-UHFFFAOYSA-N'
p190
(lp191
F54.100000000000001
assS'3.1.1.31'
p192
(dp193
sS'4.3.2.1'
p194
(dp195
S'KDZOASGQNOPSCU-WDSKDSINSA-N'
p196
(lp197
F3.2799999999999998
assS'4.3.2.2'
p198
(dp199
sS'3.4.2.1'
p200
(dp201
sS'1.13.11.42'
p202
(dp203
sS'2.4.1.38'
p204
(dp205
S'DQQDLYVHOTZLOR-OCIMBMBZSA-N'
p206
(lp207
F0.01
asS'MLJYKRYCCUGBBV-YTWAJWBKSA-N'
p208
(lp209
F1.52
asS'MBURVNRWIBQLGI-PEHAHGAZSA-N'
p210
(lp211
F2.4700000000000002
asS'CDOJPCSDOXYJJF-KSKNGZLJSA-N'
p212
(lp213
F4.8200000000000003
asS'LFTYTUAZOPRMMI-UBDZBXRQSA-N'
p214
(lp215
F0.0030000000000000001
asS'YYVAVUIQMNEJLY-PAABVCRUSA-N'
p216
(lp217
F1.8999999999999999
asS'BZHXDYSYSZZHQN-KNWYIYEYSA-N'
p218
(lp219
F1.74
asS'RQFQJYYMBWVMQG-IXDPLRRUSA-N'
p220
(lp221
F3.2999999999999998
aF4.8099999999999996
asS'BRSBSUVEMWNECJ-MRQWUTDRSA-N'
p222
(lp223
F3.3500000000000001
asS'JWIYLOHVJDJZOQ-KAOXEZKKSA-N'
p224
(lp225
F1.1299999999999999
asS'HSCJRCZFDFQWRP-JZMIEXBBSA-N'
p226
(lp227
F0.02
asS'HDYANYHVCAPMJV-LXQIFKJMSA-N'
p228
(lp229
F0.0030000000000000001
asS'OVRNDRQMDRJTHS-FMDGEEDCSA-N'
p230
(lp231
F3.6000000000000001
asS'HSCJRCZFDFQWRP-ABVWGUQPSA-N'
p232
(lp233
F1.1399999999999999
assS'3.1.4.48'
p234
(dp235
sS'1.17.4.1'
p236
(dp237
sS'3.1.4.46'
p238
(dp239
sS'1.16.3.1'
p240
(dp241
sS'4.2.3.12'
p242
(dp243
S'DGGUVLXVLHAAGT-XINAWCOVSA-N'
p244
(lp245
F0.032000000000000001
assS'1.1.1.161'
p246
(dp247
sS'2.4.1.83'
p248
(dp249
sS'2.8.1.2'
p250
(dp251
S'FFFHZYDWPBMWHY-VKHMYHEASA-N'
p252
(lp253
F0.80000000000000004
asS'ACFIFAYJTCAMRW-XKNYDFJKSA-N'
p254
(lp255
F1.3
asS'DGVVWUTYPXICAM-UHFFFAOYSA-N'
p256
(lp257
F229
asS'RWSXRVCMGQZWBV-WDSKDSINSA-N'
p258
(lp259
F0.29999999999999999
asS'IZFHEQBZOYJLPK-UHFFFAOYSA-N'
p260
(lp261
F1.7
asS'LELOWRISYMNNSU-UHFFFAOYSA-N'
p262
(lp263
F2.3999999999999999
asS'XUJNEKJLAYXESH-REOHCLBHSA-N'
p264
(lp265
F1.1000000000000001
asS'VHJLVAABSRFDPM-QWWZWVQMSA-N'
p266
(lp267
F6.0999999999999996
assS'2.8.1.1'
p268
(dp269
sS'3.6.3.14'
p270
(dp271
sS'2.3.1.42'
p272
(dp273
sS'2.3.1.43'
p274
(dp275
sS'3.6.3.10'
p276
(dp277
sS'5.1.1.1'
p278
(dp279
sS'2.7.1.25'
p280
(dp281
S'IRLPACMLTUPBCL-KQYNXXCUSA-N'
p282
(lp283
F0.36399999999999999
asg80
(lp284
F1.7
aF2.2999999999999998
aF4.4000000000000004
assS'2.4.1.130'
p285
(dp286
sS'2.7.8.2'
p287
(dp288
sS'2.7.8.7'
p289
(dp290
S'JLVVSXFLKOJNIY-UHFFFAOYSA-N'
p291
(lp292
F0.23999999999999999
asS'ZSLZBFCDCINBPY-ZSJPKINUSA-N'
p293
(lp294
F0.23999999999999999
assS'2.7.8.8'
p295
(dp296
sS'2.4.1.155'
p297
(dp298
sS'2.4.1.152'
p299
(dp300
S'PHTAQVMXYWFMHF-NULNOVRXSA-N'
p301
(lp302
F1.7
assS'2.4.1.150'
p303
(dp304
sS'1.8.1.4'
p305
(dp306
S'FCCDDURTIIUXBY-UHFFFAOYSA-N'
p307
(lp308
F519
aF649
asg152
(lp309
F574
asS'VLYUGYAKYZETRF-UHFFFAOYSA-N'
p310
(lp311
F505
aF505
aF567
aF899
asg124
(lp312
F340
assS'1.8.1.7'
p313
(dp314
S'IXELFRRANAOWSF-FNORWQNLSA-N'
p315
(lp316
F0.34000000000000002
aF1.47
asS'IXELFRRANAOWSF-ALCCZGGFSA-N'
p317
(lp318
F2.6000000000000001
asg150
(lp319
F0.16
asS'NVJSPQCVDHGYRE-UHFFFAOYSA-N'
p320
(lp321
F2.23
asS'PHDOXVGRXXAYEB-VJANTYMQSA-N'
p322
(lp323
F0.16
asS'GHLUWAJFYKILGZ-UHFFFAOYSA-N'
p324
(lp325
F0.34000000000000002
asS'YRJYIDLDVMUPOX-UHFFFAOYSA-N'
p326
(lp327
F0.13
asS'XXQAHBXLRFWCTG-UHFFFAOYSA-N'
p328
(lp329
F0.34999999999999998
asg110
(lp330
F1.0800000000000001
asS'ZLBBUZKKNNMGHA-UHFFFAOYSA-N'
p331
(lp332
F0.11
asS'YPZRWBKMTBYPTK-BJDJZHNGSA-N'
p333
(lp334
F48.299999999999997
aF165
aF210
aF210
aF210
aF210
asS'UBAXRAHSPKWNCX-UHFFFAOYSA-N'
p335
(lp336
F0.16
assS'3.4.24.16'
p337
(dp338
sS'1.8.1.3'
p339
(dp340
sS'2.7.7.18'
p341
(dp342
sS'2.4.1.134'
p343
(dp344
sS'2.7.7.15'
p345
(dp346
sS'2.7.7.14'
p347
(dp348
sS'1.8.1.9'
p349
(dp350
S'KIUMMUBSPKGMOY-UHFFFAOYSA-L'
p351
(lp352
F0.55000000000000004
aF8.2799999999999994
aF18.73
aF30.02
aF33.329999999999998
aF29.5
asg307
(lp353
F1.6000000000000001
aF3.2999999999999998
asg254
(lp354
F0.016
aF5.5800000000000001
aF8.0999999999999996
aF25.780000000000001
aF27.399999999999999
aF46.57
asS'UEQANLFPOFICBH-UHFFFAOYSA-N'
p355
(lp356
F23
asS'AGBQKNBQESQNJD-SSDOTTSWSA-N'
p357
(lp358
F1.8
assS'2.7.7.12'
p359
(dp360
sS'2.4.1.86'
p361
(dp362
sS'1.4.3.14'
p363
(dp364
sS'2.7.9.3'
p365
(dp366
sS'1.8.3.1'
p367
(dp368
S'LSNNMFCWUKXFEE-UHFFFAOYSA-L'
p369
(lp370
F12.1
aF17.199999999999999
aF24.199999999999999
aF24.199999999999999
aF24.199999999999999
aF24.699999999999999
aF24.699999999999999
aF25
aF25.899999999999999
aF25.899999999999999
aF25.899999999999999
aF26.899999999999999
aF27
asS'QYTXFEIXYJWKBO-XZRGJURASA-L'
p371
(lp372
F18.100000000000001
assS'4.2.3.2'
p373
(dp374
sS'3.6.1.17'
p375
(dp376
sS'2.1.3.85'
p377
(dp378
sS'5.3.3.8'
p379
(dp380
sS'5.3.3.9'
p381
(dp382
sS'5.3.3.1'
p383
(dp384
g158
(lp385
F3012
aF4890
asS'SQGZFRITSMYKRH-QAGGRKNESA-N'
p386
(lp387
F0.55700000000000005
aF0.82999999999999996
aF6.0800000000000001
aF13.6
assS'5.3.3.2'
p388
(dp389
sS'4.4.1.22'
p390
(dp391
sS'4.4.1.20'
p392
(dp393
S'UFPQIRYSPUYQHK-WAQVJNLQSA-N'
p394
(lp395
F11.699999999999999
asg258
(lp396
F2.1099999999999999
aF2.2200000000000002
asS'WTKAVFHPLJFCMZ-NIBLXIPLSA-N'
p397
(lp398
F1.6899999999999999
aF1.97
assS'2.7.1.48'
p399
(dp400
S'UHDGCWIWMRVCDJ-XVFCMESISA-N'
p401
(lp402
F3.2000000000000002
assS'3.1.2.12'
p403
(dp404
sS'3.1.3.29'
p405
(dp406
sS'2.1.1.43'
p407
(dp408
sS'2.1.1.45'
p409
(dp410
S'QYNUQALWYRSVHF-OLZOCXBDSA-N'
p411
(lp412
F48
asS'JSRLJPSBLDHEIO-NAJVVJGSSA-N'
p413
(lp414
F4.1699999999999999
asS'JSRLJPSBLDHEIO-SHYZEUOFSA-N'
p415
(lp416
F3.1099999999999999
aF48
assS'2.1.1.49'
p417
(dp418
sS'2.6.1.6'
p419
(dp420
sS'2.6.1.7'
p421
(dp422
S'JVQYSWDUAOAHFM-UHFFFAOYSA-N'
p423
(lp424
F0.92000000000000004
asS'COLNVLDHVKWLRT-QMMMGPOBSA-N'
p425
(lp426
F91
asS'BKAJNAXTPSGJCU-UHFFFAOYSA-N'
p427
(lp428
F296
aF2.5099999999999998
asS'KHPXUQMNIQBQEV-UHFFFAOYSA-N'
p429
(lp430
F0.065000000000000002
aF143
asS'XNIHZNNZJHYHLC-UHFFFAOYSA-M'
p431
(lp432
F4.8300000000000001
asS'KPGXRSRHYNQIFN-UHFFFAOYSA-N'
p433
(lp434
F7.6699999999999999
asS'HNDVDQJCIGZPNO-YFKPBYRVSA-N'
p435
(lp436
F143
asS'OJOLFAIGOXZBCI-UHFFFAOYSA-M'
p437
(lp438
F3.5899999999999999
aF234
asS'QIVBCDIJIAJPQS-VIFPVBQESA-N'
p439
(lp440
F43.100000000000001
asg264
(lp441
F9.5999999999999996
asS'RSTKLPZEZYGQPY-UHFFFAOYSA-M'
p442
(lp443
F1.49
asS'KDVFRMMRZOCFLS-UHFFFAOYSA-M'
p444
(lp445
F2.6600000000000001
asS'ZDXPYRJPNDTMRX-VKHMYHEASA-N'
p446
(lp447
F440
asS'OUYCCCASQSFEME-QMMMGPOBSA-N'
p448
(lp449
F91
asS'SXFSQZDSUWACKX-UHFFFAOYSA-M'
p450
(lp451
F4.2699999999999996
asS'KKADPXVIOXHVKN-UHFFFAOYSA-N'
p452
(lp453
F0.39000000000000001
asS'BTNMPGBKDVTSJY-UHFFFAOYSA-N'
p454
(lp455
F4.7300000000000004
aF110
asS'FFEARJCKVFRZRR-BYPYZUCNSA-N'
p456
(lp457
F215
asS'TYEYBOSBBBHJIV-UHFFFAOYSA-N'
p458
(lp459
F234
aF3.4900000000000002
asS'QHKABHOOEWYVLI-UHFFFAOYSA-N'
p460
(lp461
F0.92000000000000004
asS'YGPSJZOEDVAXAB-QMMMGPOBSA-N'
p462
(lp463
F1.8
aF2.2000000000000002
aF9.7599999999999998
aF201
asg182
(lp464
F3.6400000000000001
aF263
asS'DCXYFEDJOCDNAF-REOHCLBHSA-N'
p465
(lp466
F14.4
asS'FGSBNBBHOZHUBO-UHFFFAOYSA-N'
p467
(lp468
F4.8399999999999999
asS'ROHFNLRQFUQHCH-YFKPBYRVSA-N'
p469
(lp470
F339
asS'QWCKQJZIFLGMSD-UHFFFAOYSA-M'
p471
(lp472
F38.299999999999997
asS'LCTONWCANYUPML-UHFFFAOYSA-N'
p473
(lp474
F0.35999999999999999
aF29
assS'5.3.1.6'
p475
(dp476
sS'2.6.1.1'
p477
(dp478
sS'2.6.1.2'
p479
(dp480
sS'2.6.1.3'
p481
(dp482
sS'1.1.1.197'
p483
(dp484
sS'2.7.1.59'
p485
(dp486
S'OVRNDRQMDRJTHS-RTRLPJTCSA-N'
p487
(lp488
F0.032500000000000001
assS'6.2.1.16'
p489
(dp490
sS'6.2.1.17'
p491
(dp492
sS'6.2.1.12'
p493
(dp494
sS'6.2.1.13'
p495
(dp496
sS'2.7.1.52'
p497
(dp498
sS'5.3.99.2'
p499
(dp500
S'YIBNHAJFJUQSRA-YNNPMVKQSA-N'
p501
(lp502
F2.6400000000000001
assS'5.3.99.3'
p503
(dp504
g258
(lp505
F21
asg501
(lp506
F7
aF50
aF50
asS'SGUKUZOVHSFKPH-YNNPMVKQSA-N'
p507
(lp508
F75
aF75
assS'3.1.3.1'
p509
(dp510
S'NGVDGCNFYWLIFO-UHFFFAOYSA-N'
p511
(lp512
F92
asS'XPPKVPWEQAFLFU-UHFFFAOYSA-N'
p513
(lp514
F244
assS'2.7.1.47'
p515
(dp516
sS'1.5.99.8'
p517
(dp518
sS'2.1.1.37'
p519
(dp520
S'MEFKEPWMEQBLKI-AIRLBKTGSA-O'
p521
(lp522
F0.058000000000000003
assS'1.1.1.59'
p523
(dp524
sS'1.5.99.2'
p525
(dp526
sS'6.2.1.24'
p527
(dp528
sS'1.1.1.21'
p529
(dp530
S'NUJGJRNETVAIRJ-UHFFFAOYSA-N'
p531
(lp532
F1.3700000000000001
asS'CRDAMVZIKSXKFV-YFVJMOTDSA-N'
p533
(lp534
F0.155
aF0.5
asS'MNQZXJOMYWMBOU-UHFFFAOYSA-N'
p535
(lp536
F0.43099999999999999
asS'HLZKNKRTKFSKGZ-UHFFFAOYSA-N'
p537
(lp538
F0.017000000000000001
asS'ZWRUINPWMLAQRD-UHFFFAOYSA-N'
p539
(lp540
F0.065000000000000002
asS'HFJRKMMYBMWEAD-UHFFFAOYSA-N'
p541
(lp542
F1.25
asS'ZGCHLOWZNKRZSN-PHDIDXHHSA-N'
p543
(lp544
F0.75
asS'KTPNTAOLZMSACI-UJPCIWJBSA-N'
p545
(lp546
F0.47999999999999998
asS'QJZUKDFHGGYHMC-UHFFFAOYSA-N'
p547
(lp548
F2.5
asS'WVDDGKGOMKODPV-UHFFFAOYSA-N'
p549
(lp550
F0.16700000000000001
asS'MMFCJPPRCYDLLZ-CMDGGOBGSA-N'
p551
(lp552
F1.8300000000000001
asS'SRBFZHDQGSBBOR-IOVATXLUSA-N'
p553
(lp554
F1.7
asS'MLUCVPSAIODCQM-NSCUHMNNSA-N'
p555
(lp556
F0.78000000000000003
asg122
(lp557
F1.1200000000000001
asS'WGCNASOHLSPBMP-UHFFFAOYSA-N'
p558
(lp559
F0.57999999999999996
asS'HUMNYLRZRPPJDN-UHFFFAOYSA-N'
p560
(lp561
F1.73
asS'OJISWRZIEWCUBN-QIRCYJPOSA-N'
p562
(lp563
F0.078
aF0.16500000000000001
asS'LEQAOMBKQFMDFZ-UHFFFAOYSA-N'
p564
(lp565
F1.1200000000000001
asS'QAAQQTDJEXMIMF-UHFFFAOYSA-N'
p566
(lp567
F0.0060000000000000001
asS'GLZPCOQZEFWAFX-JXMROGBWSA-N'
p568
(lp569
F0.56699999999999995
asS'RWBRUCCWZPSBFC-SJOKZOANSA-N'
p570
(lp571
F0.0040000000000000001
asS'BSAIUMLZVGUGKX-BQYQJAHWSA-N'
p572
(lp573
F1.3400000000000001
asS'DYVGYXXLXQESJE-XPLLOJBJSA-N'
p574
(lp575
F0.0080000000000000002
asS'JGEGJYXHCFUMJF-UHFFFAOYSA-N'
p576
(lp577
F1.4299999999999999
asS'IAJILQKETJEXLJ-QTBDOELSSA-N'
p578
(lp579
F2.2999999999999998
asS'ZTQSAGDEMFDKMZ-UHFFFAOYSA-N'
p580
(lp581
F1.3
asS'BSABBBMNWQWLLU-GSVOUGTGSA-N'
p582
(lp583
F1.8700000000000001
asS'WQZGKKKJIJFFOK-GASJEMHNSA-N'
p584
(lp585
F0.183
asS'FXHGMKSSBGDXIY-UHFFFAOYSA-N'
p586
(lp587
F2
asS'OJUGVDODNPJEEC-UHFFFAOYSA-N'
p588
(lp589
F0.76000000000000001
asS'SNSWNKAIXNDOKX-SLLBYLKQSA-N'
p590
(lp591
F0.64000000000000001
asS'YWYQTGBBEZQBGO-ZVPCKFNKSA-N'
p592
(lp593
F0.012
asS'GYHFUZHODSMOHU-UHFFFAOYSA-N'
p594
(lp595
F1.3799999999999999
asS'MVQVNTPHUGQQHK-UHFFFAOYSA-N'
p596
(lp597
F0.042000000000000003
asS'JARKCYVAAOWBJS-UHFFFAOYSA-N'
p598
(lp599
F2.3700000000000001
asS'ZSIAUFGUXNUGDI-UHFFFAOYSA-N'
p600
(lp601
F0.158
asg142
(lp602
F1.3200000000000001
asS'GLZPCOQZEFWAFX-YFHOEESVSA-N'
p603
(lp604
F0.11700000000000001
asS'MNQZXJOMYWMBOU-VKHMYHEASA-N'
p605
(lp606
F0.55000000000000004
asS'MBDOYVRWFFCFHM-SNAWJCMRSA-N'
p607
(lp608
F0.81999999999999995
asS'WQZGKKKJIJFFOK-SVZMEOIVSA-N'
p609
(lp610
F0.23300000000000001
asS'MWKFXSUHUHTGQN-UHFFFAOYSA-N'
p611
(lp612
F0.050000000000000003
assS'1.5.99.6'
p613
(dp614
sS'2.3.1.168'
p615
(dp616
sS'6.2.1.4'
p617
(dp618
sS'1.2.7.2'
p619
(dp620
sS'4.2.1.96'
p621
(dp622
S'KJKIEFUPAPPGBC-JVJCOLAWSA-N'
p623
(lp624
F23
aF24
assS'6.2.1.5'
p625
(dp626
sS'5.3.99.5'
p627
(dp628
g501
(lp629
F26.699999999999999
aF27.100000000000001
asS'PVTQTOGPOPGQGE-FZUWOZOOSA-N'
p630
(lp631
F20.399999999999999
aF59.399999999999999
asg507
(lp632
F28.199999999999999
assS'1.1.1.284'
p633
(dp634
S'PIUSLWSYOYFRFR-BQBZGAKWSA-N'
p635
(lp636
F1.04
aF3.3300000000000001
aF2.5
aF2.5
asg152
(lp637
F0.217
aF1.04
aF2.5
asS'ZDHCZVWCTKTBRY-UHFFFAOYSA-N'
p638
(lp639
F0.217
asg124
(lp640
F34.5
asS'HYHSBSXUHZOYLX-WDSKDSINSA-N'
p641
(lp642
F7.5
aF20
aF20
aF29.300000000000001
aF72000
assS'6.2.1.1'
p643
(dp644
sS'2.7.1.28'
p645
(dp646
sS'3.5.1.15'
p647
(dp648
S'OTCCIMWXFLJLIA-BYPYZUCNSA-N'
p649
(lp650
F37.5
assS'6.2.1.2'
p651
(dp652
sS'4.1.2.4'
p653
(dp654
sS'2.7.1.20'
p655
(dp656
S'OIRDTQYFTABQOQ-KQYNXXCUSA-N'
p657
(lp658
F0.5
assS'2.7.1.21'
p659
(dp660
S'HBOMLICNUCNMMY-XLPZGREQSA-N'
p661
(lp662
F3.5
asS'MWCVBTDANIFOCW-HBNTYKKESA-N'
p663
(lp664
F0.34000000000000002
asS'JMHPFFNMWGUEKW-DMDPSCGWSA-N'
p665
(lp666
F0.39000000000000001
asS'JDWUZHSHPZRACA-OUCADQQQSA-N'
p667
(lp668
F0.46999999999999997
asS'TWPJUVMQKUZARG-QJPTWQEYSA-N'
p669
(lp670
F0.32000000000000001
asS'OOSRHIPZESFZKQ-HBNTYKKESA-N'
p671
(lp672
F0.37
asS'XMCZDHJFBFTYJU-HOSYDEDBSA-N'
p673
(lp674
F0.44
asS'OJIGNGXYPVDQLF-DMDPSCGWSA-N'
p675
(lp676
F0.45000000000000001
asS'IQFYYKKMVGJFEH-XLPZGREQSA-N'
p677
(lp678
F0.46000000000000002
aF9.5
asS'WLRPDVWEINIYBQ-IVZWLZJFSA-N'
p679
(lp680
F0.34999999999999998
assS'2.7.1.22'
p681
(dp682
sS'2.7.1.24'
p683
(dp684
sS'1.7.1.7'
p685
(dp686
sS'1.5.1.12'
p687
(dp688
sS'1.5.1.10'
p689
(dp690
sS'3.1.2.14'
p691
(dp692
sS'3.1.2.17'
p693
(dp694
sS'2.7.1.127'
p695
(dp696
sS'2.7.4.8'
p697
(dp698
sS'2.7.4.9'
p699
(dp700
S'LHLHVDBXXZVYJT-RRKCRQDMSA-N'
p701
(lp702
F1.2
asS'UBSZOBUHNRQZAW-OWOJBTEDSA-N'
p703
(lp704
F0.058000000000000003
asS'OJNXTNOGLCWOBG-OWOJBTEDSA-N'
p705
(lp706
F0.5
aF0.90000000000000002
asS'HQXXZZRCJPJFHM-OWOJBTEDSA-N'
p707
(lp708
F0.72999999999999998
asg415
(lp709
F4.7999999999999998
asS'JYEPAZFBJFKASZ-OWOJBTEDSA-N'
p710
(lp711
F0.10000000000000001
asS'YKUCVYAJEHGNTI-NSCUHMNNSA-N'
p712
(lp713
F0.83999999999999997
asS'WVNRRNJFRREKAR-JGVFFNPUSA-N'
p714
(lp715
F0.029999999999999999
asS'GGCAVPJXJISBOA-XLPZGREQSA-N'
p716
(lp717
F0.029999999999999999
asS'GYOZYWVXFNDGLU-XLPZGREQSA-N'
p718
(lp719
F0.72999999999999998
aF0.76000000000000001
aF3
aF0.40000000000000002
asS'BQZMHQZNZNBJNF-XLPZGREQSA-N'
p720
(lp721
F0.14000000000000001
asS'OIFWQOKDSPDILA-SPDVFEMOSA-L'
p722
(lp723
F0.0030000000000000001
aF0.01
aF0.012
asS'GXKCIWVPHHHYHS-OWOJBTEDSA-N'
p724
(lp725
F0.47999999999999998
asS'KCTKUURHXFRJGJ-OWOJBTEDSA-N'
p726
(lp727
F0.089999999999999997
asS'XLPGURCDSRIXFL-JGVFFNPUSA-N'
p728
(lp729
F0.089999999999999997
asS'REWSWBWZQAYNHC-DUXPYHPUSA-N'
p730
(lp731
F0.59999999999999998
asS'HEHXPGYOJLWXPS-OWOJBTEDSA-N'
p732
(lp733
F0.073999999999999996
asS'OPTUJJWAHBAMIG-NSCUHMNNSA-N'
p734
(lp735
F0.32000000000000001
assS'2.7.4.6'
p736
(dp737
sS'2.7.4.2'
p738
(dp739
sS'2.7.4.3'
p740
(dp741
S'XTWYTFMLZFPYCI-KQYNXXCUSA-N'
p742
(lp743
F783
asS'UDMBCSSLTHHNCD-KQYNXXCUSA-N'
p744
(lp745
F842
aF842.29999999999995
asg80
(lp746
F0.0063
aF152
aF683
aF879
aF879.5
assS'3.5.4.3'
p747
(dp748
sS'1.4.1.3'
p749
(dp750
g124
(lp751
F104
aF104
aF104
aF104
aF104
aF130
aF130
aF130
aF130
asg433
(lp752
F104
aF104
aF130
aF130
assS'1.4.1.4'
p753
(dp754
sS'2.7.6.2'
p755
(dp756
S'JZRWCGZRTZMZEH-UHFFFAOYSA-N'
p757
(lp758
F0.069000000000000006
asg80
(lp759
F0.069000000000000006
assS'1.3.1.70'
p760
(dp761
sS'2.6.1.16'
p762
(dp763
sS'4.1.1.33'
p764
(dp765
S'DKXZSGIZFNWMLJ-ZCFIWIBFSA-N'
p766
(lp767
F4.5
assS'3.1.4.11'
p768
(dp769
sS'2.6.1.15'
p770
(dp771
sS'3.1.4.17'
p772
(dp773
S'ZOOGRGPOEVQQDX-UUOKFMHZSA-N'
p774
(lp775
F4.2000000000000002
asS'IVOMOUWHDPKRLL-KQYNXXCUSA-N'
p776
(lp777
F0.29999999999999999
aF0.47999999999999998
aF0.5
aF0.52000000000000002
assS'2.6.1.13'
p778
(dp779
sS'3.1.4.14'
p780
(dp781
sS'1.2.3.5'
p782
(dp783
sS'1.2.3.1'
p784
(dp785
sS'3.5.4.6'
p786
(dp787
sS'1.1.1.271'
p788
(dp789
sS'1.1.1.270'
p790
(dp791
g138
(lp792
F0.0030000000000000001
aF0.049299999999999997
aF0.051999999999999998
assS'1.2.1.8'
p793
(dp794
sS'1.2.1.5'
p795
(dp796
g152
(lp797
F7.7000000000000002
aF45.299999999999997
asg598
(lp798
F34
asg560
(lp799
F51
asS'XJLXINKUBYWONI-NNYOXOHSSA-O'
p800
(lp801
F38.799999999999997
asS'IKHGUXGNUITLKF-UHFFFAOYSA-N'
p802
(lp803
F35.899999999999999
asg607
(lp804
F53
asS'QSKPIOLLBIHNAC-UHFFFAOYSA-N'
p805
(lp806
F7.7000000000000002
assS'2.4.1.79'
p807
(dp808
sS'1.2.1.3'
p809
(dp810
S'JYJDWOKNSHADGZ-UHFFFAOYSA-N'
p811
(lp812
F0.55000000000000004
aF0.83299999999999996
asS'QZFHRSSZNGRMDS-UHFFFAOYSA-N'
p813
(lp814
F1.0800000000000001
asS'OVWYEQOVUDKZNU-UHFFFAOYSA-N'
p815
(lp816
F4.5
asS'RHZUYJDKHFJVGH-UHFFFAOYSA-N'
p817
(lp818
F1.3
asS'DTUQWGWMVIHBKE-UHFFFAOYSA-N'
p819
(lp820
F30
aF50
asS'ALGQVMMYDWQDEC-UHFFFAOYSA-N'
p821
(lp822
F0.45000000000000001
asS'MVXMNHYVCLMLDD-UHFFFAOYSA-N'
p823
(lp824
F4.4199999999999999
asS'IVFSOOIWIYPDLX-UHFFFAOYSA-N'
p825
(lp826
F0.61699999999999999
asS'YGCZTXZTJXYWCO-UHFFFAOYSA-N'
p827
(lp828
F12.300000000000001
asS'WJUFSDZVCOTFON-UHFFFAOYSA-N'
p829
(lp830
F1.4199999999999999
asS'XSLWXOOKKCKCSK-UHFFFAOYSA-N'
p831
(lp832
F5.3300000000000001
asS'VSYXGFNDDQVELE-UHFFFAOYSA-N'
p833
(lp834
F1.5700000000000001
asS'BSORNHXIQYIUBV-UHFFFAOYSA-N'
p835
(lp836
F7.9000000000000004
asS'NBBJYMSMWIIQGU-UHFFFAOYSA-N'
p837
(lp838
F0.41999999999999998
aF0.65000000000000002
aF1.3300000000000001
aF1.48
aF3.1600000000000001
aF6.1600000000000001
aF19.699999999999999
asS'WMPDAIZRQDCGFH-UHFFFAOYSA-N'
p839
(lp840
F5.8300000000000001
asg560
(lp841
F5.8300000000000001
asg547
(lp842
F27.699999999999999
asS'FXLOVSHXALFLKQ-UHFFFAOYSA-N'
p843
(lp844
F3
asS'MNQGEQSXFDKAPY-UHFFFAOYSA-N'
p845
(lp846
F2.8300000000000001
aF6
asS'CKZDPGZUVBLQSL-UHFFFAOYSA-N'
p847
(lp848
F8.3300000000000001
asS'FLFZHAFOKLMGDZ-UHFFFAOYSA-N'
p849
(lp850
F2.6699999999999999
asS'CDFYMALVZADZAU-UHFFFAOYSA-N'
p851
(lp852
F2.1699999999999999
asS'MGCGJBXTNWUHQE-UHFFFAOYSA-N'
p853
(lp854
F4.6699999999999999
asS'ORKXDTPHBQSVOY-UHFFFAOYSA-N'
p855
(lp856
F0.98299999999999998
asS'BGNGWHSBYQYVRX-UHFFFAOYSA-N'
p857
(lp858
F2.3300000000000001
aF2.1299999999999999
asS'QECIGCMPORCORE-UHFFFAOYSA-N'
p859
(lp860
F0.29999999999999999
asS'WHOOUMGHGSPMGR-UHFFFAOYSA-N'
p861
(lp862
F9.3300000000000001
aF11.300000000000001
asS'IQVAERDLDAZARL-UHFFFAOYSA-N'
p863
(lp864
F15.199999999999999
asS'XMOLEWOFKNFWHC-GQCTYLIASA-N'
p865
(lp866
F0.040000000000000001
asg114
(lp867
F7.1699999999999999
asg152
(lp868
F3.5
asS'PKZJLOCLABXVMC-UHFFFAOYSA-N'
p869
(lp870
F0.36699999999999999
asS'RFBLXLCJCJMOCN-UHFFFAOYSA-N'
p871
(lp872
F0.158
aF0.25
asS'WSFSSNUMVMOOMR-UHFFFAOYSA-N'
p873
(lp874
F67.5
asS'ZILXIZUBLXVYPI-UHFFFAOYSA-N'
p875
(lp876
F0.66700000000000004
asS'KJPRLNWUNMBNBZ-QPJJXVBHSA-N'
p877
(lp878
F2.5
aF7.8300000000000001
asS'ZRSNZINYAWTAHE-UHFFFAOYSA-N'
p879
(lp880
F2.5
asS'STUDOPCFIZSIEL-UHFFFAOYSA-N'
p881
(lp882
F0.98299999999999998
asS'PJKVFARRVXDXAD-UHFFFAOYSA-N'
p883
(lp884
F4
asS'IAVREABSGIHHMO-UHFFFAOYSA-N'
p885
(lp886
F1
asS'RYGIHSLRMNXWCN-UHFFFAOYSA-N'
p887
(lp888
F11.199999999999999
asS'SFDLEXQPRBLXRT-UHFFFAOYSA-N'
p889
(lp890
F3.1699999999999999
asS'RUKJCCIJLIMGEP-ONEGZZNKSA-N'
p891
(lp892
F1.5
aF8.1699999999999999
asS'CMWKITSNTDAEDT-UHFFFAOYSA-N'
p893
(lp894
F1.23
asS'BTFQKIATRPGRBS-UHFFFAOYSA-N'
p895
(lp896
F2.75
assS'1.2.1.2'
p897
(dp898
sS'1.2.1.1'
p899
(dp900
sS'1.4.3.3'
p901
(dp902
S'QNAYBMKLOCPYGJ-UWTATZPHSA-N'
p903
(lp904
F5.2000000000000002
aF5.2000000000000002
aF10
aF10
asS'WTDRDQBEARUVNC-ZCFIWIBFSA-N'
p905
(lp906
F21.699999999999999
asS'QIVBCDIJIAJPQS-SECBINFHSA-N'
p907
(lp908
F3.2000000000000002
asS'MTCFGRXMJLQNBG-UWTATZPHSA-N'
p909
(lp910
F3
asS'OUYCCCASQSFEME-MRVPVSSYSA-N'
p911
(lp912
F14.800000000000001
asS'DHMQDGOQFOQNFH-UHFFFAOYSA-N'
p913
(lp914
F0.90000000000000002
asS'COLNVLDHVKWLRT-MRVPVSSYSA-N'
p915
(lp916
F6.5999999999999996
asS'CKLJMWTZIZZHCS-UWTATZPHSA-N'
p917
(lp918
F6.7000000000000002
asS'ONIBWKKTOPOVIA-SCSAIBSYSA-N'
p919
(lp920
F10.199999999999999
assS'1.2.1.38'
p921
(dp922
sS'1.4.3.1'
p923
(dp924
sS'1.4.3.6'
p925
(dp926
sS'1.4.3.5'
p927
(dp928
S'ZMJGSOSNSPKHNH-UHFFFAOYSA-L'
p929
(lp930
F0.20000000000000001
asS'WHOMFKWHIQZTHY-UHFFFAOYSA-N'
p931
(lp932
F0.19
assS'1.4.3.4'
p933
(dp934
S'WGQKYBSKWIADBV-UHFFFAOYSA-N'
p935
(lp936
F0.089999999999999997
aF0.32500000000000001
aF5
aF5
asS'QLPVTIQQFGWSQQ-UHFFFAOYSA-N'
p937
(lp938
F1.0800000000000001
aF1.6000000000000001
aF1.8999999999999999
aF1.8999999999999999
aF2.0800000000000001
aF2.0800000000000001
aF2.2000000000000002
aF2.5
asS'BHHGXPLMPWCGHP-UHFFFAOYSA-N'
p939
(lp940
F3.8199999999999998
aF1.4810000000000001
aF0.89700000000000002
aF0.998
aF1.3999999999999999
aF2.8700000000000001
aF3.1000000000000001
asS'AGNFWIZBEATIAK-UHFFFAOYSA-N'
p941
(lp942
F1.8300000000000001
asS'QZAYGJVTTNCVMB-UHFFFAOYSA-N'
p943
(lp944
F0.42599999999999999
aF6
aF18.600000000000001
asS'ODVBBZFQPGORMJ-UHFFFAOYSA-N'
p945
(lp946
F0.185
asS'VYFYYTLLBUKUHU-UHFFFAOYSA-N'
p947
(lp948
F0.249
asS'PLRACCBDVIHHLZ-UHFFFAOYSA-N'
p949
(lp950
F0.16
aF0.17999999999999999
aF0.24099999999999999
asS'DZGWFCGJZKJUFP-UHFFFAOYSA-N'
p951
(lp952
F5.2999999999999998
asS'IOXOZOPLBFXYLM-UHFFFAOYSA-N'
p953
(lp954
F1.8500000000000001
assS'1.2.1.31'
p955
(dp956
sS'4.2.1.11'
p957
(dp958
sS'3.1.4.4'
p959
(dp960
sS'3.1.4.3'
p961
(dp962
sS'1.2.1.36'
p963
(dp964
sS'2.4.1.133'
p965
(dp966
g206
(lp967
F3
asg224
(lp968
F1.79
asg226
(lp969
F72
asg232
(lp970
F0.028000000000000001
aF1.1100000000000001
aF1.1399999999999999
aF1.52
aF5086
assS'3.1.2.2'
p971
(dp972
sS'3.1.2.4'
p973
(dp974
sS'3.1.2.6'
p975
(dp976
S'YUKXYNWSJMQEBV-SLEUVZQESA-N'
p977
(lp978
F183
asS'ZKTSKYBPCSYSSR-BQBZGAKWSA-N'
p979
(lp980
F1740
asS'YUKXYNWSJMQEBV-GYZKLXCISA-N'
p981
(lp982
F188
aF755
asS'VDYDCVUWILIYQF-CSMHCCOUSA-N'
p983
(lp984
F280
aF727
asS'RFNLCUNHFJMGFM-FXQIFTODSA-N'
p985
(lp986
F1490
assS'2.4.1.92'
p987
(dp988
sS'2.1.1.103'
p989
(dp990
sS'5.4.2.2'
p991
(dp992
sS'2.4.1.122'
p993
(dp994
sS'1.14.13.70'
p995
(dp996
sS'5.1.3.8'
p997
(dp998
sS'1.14.13.72'
p999
(dp1000
sS'5.1.3.2'
p1001
(dp1002
sS'3.7.1.2'
p1003
(dp1004
sS'3.7.1.3'
p1005
(dp1006
S'VCKPUUFAIGNJHC-UHFFFAOYSA-N'
p1007
(lp1008
F3.5
asS'VCKPUUFAIGNJHC-LURJTMIESA-N'
p1009
(lp1010
F3.5
asg462
(lp1011
F0.23000000000000001
assS'5.1.3.7'
p1012
(dp1013
sS'3.1.3.67'
p1014
(dp1015
sS'3.1.3.66'
p1016
(dp1017
sS'3.1.3.64'
p1018
(dp1019
sS'3.4.14.9'
p1020
(dp1021
sS'3.1.3.61'
p1022
(dp1023
sS'2.4.1.135'
p1024
(dp1025
sS'1.14.16.4'
p1026
(dp1027
g439
(lp1028
F2.6699999999999999
aF5.0300000000000002
asS'MYMOFIZGZYHOMD-UHFFFAOYSA-N'
p1029
(lp1030
F1.383
aF6.7300000000000004
asS'FNKQXYHWGSIFBK-RPDRRWSUSA-N'
p1031
(lp1032
F2.1669999999999998
aF4.5670000000000002
assS'1.14.16.2'
p1033
(dp1034
g448
(lp1035
F3.0299999999999998
aF3.3300000000000001
asg1031
(lp1036
F0.017000000000000001
aF0.46999999999999997
aF0.57999999999999996
assS'1.14.16.1'
p1037
(dp1038
g425
(lp1039
F6.5300000000000002
assS'3.2.1.33'
p1040
(dp1041
sS'2.4.2.14'
p1042
(dp1043
sS'4.1.1.40'
p1044
(dp1045
sS'2.4.2.11'
p1046
(dp1047
sS'2.4.2.10'
p1048
(dp1049
S'XUYJLQHKOGNDPB-UHFFFAOYSA-N'
p1050
(lp1051
F0.017000000000000001
asS'KYOBSHFOBAOFBF-XVFCMESISA-N'
p1052
(lp1053
F0.017000000000000001
aF0.10000000000000001
asS'FKCRAVPPBFWEJD-XVFCMESISA-N'
p1054
(lp1055
F0.024
aF0.024
assS'1.6.2.2'
p1056
(dp1057
S'ACFIXJIJDZMPPO-NNYOXOHSSA-N'
p1058
(lp1059
F33
asS'CRWNKXHVYMVLCY-UHFFFAOYSA-N'
p1060
(lp1061
F98.299999999999997
aF500
aF677
aF700
aF800
aF827
asg124
(lp1062
F0.73299999999999998
asS'VIJMEYIOPTVQKA-PVPKHRJZSA-N'
p1063
(lp1064
F360
aF600
assS'4.1.1.45'
p1065
(dp1066
sS'3.5.4.16'
p1067
(dp1068
sS'3.5.4.15'
p1069
(dp1070
sS'3.5.4.14'
p1071
(dp1072
sS'3.5.4.12'
p1073
(dp1074
S'NCMVOABPESMRCP-SHYZEUOFSA-N'
p1075
(lp1076
F960
assS'3.5.4.10'
p1077
(dp1078
S'ABCOOORLYAOBOZ-KQYNXXCUSA-N'
p1079
(lp1080
F8.5999999999999996
aF8.5999999999999996
assS'4.6.1.2'
p1081
(dp1082
sS'1.1.1.94'
p1083
(dp1084
sS'1.1.1.95'
p1085
(dp1086
sS'3.1.6.8'
p1087
(dp1088
S'FUYLLJCBCKRIAL-UHFFFAOYSA-N'
p1089
(lp1090
F0.81699999999999995
asS'ZVUSRLPQGXIZPO-UHFFFAOYSA-N'
p1091
(lp1092
F16.800000000000001
assS'1.3.99.6'
p1093
(dp1094
sS'1.3.99.7'
p1095
(dp1096
sS'1.3.99.5'
p1097
(dp1098
sS'1.3.99.2'
p1099
(dp1100
sS'1.3.99.3'
p1101
(dp1102
sS'1.3.99.1'
p1103
(dp1104
sS'1.14.99.7'
p1105
(dp1106
sS'4.6.1.1'
p1107
(dp1108
sS'1.14.99.1'
p1109
(dp1110
sS'1.14.14.1'
p1111
(dp1112
sS'1.14.99.3'
p1113
(dp1114
sS'1.1.1.272'
p1115
(dp1116
sS'1.14.99.9'
p1117
(dp1118
sS'5.1.99.1'
p1119
(dp1120
sS'2.1.3.3'
p1121
(dp1122
sS'2.1.3.2'
p1123
(dp1124
sS'1.3.99.10'
p1125
(dp1126
sS'1.1.1.170'
p1127
(dp1128
sS'1.3.99.12'
p1129
(dp1130
S'OEXFMSFODMQEPE-HDRQGHTBSA-N'
p1131
(lp1132
F7600
asS'AEWHYWSPVRZHCT-NDZSKPAWSA-N'
p1133
(lp1134
F2900
asS'LYNVNYDEQMMNMZ-CFAFLRSWSA-N'
p1135
(lp1136
F9700
assS'1.3.99.13'
p1137
(dp1138
sS'2.1.1.8'
p1139
(dp1140
sS'2.7.1.60'
p1141
(dp1142
sS'2.1.1.2'
p1143
(dp1144
sS'2.1.1.1'
p1145
(dp1146
S'DFPAKSUCGFBDDF-UHFFFAOYSA-N'
p1147
(lp1148
F1.02
assS'2.7.1.68'
p1149
(dp1150
sS'2.1.1.6'
p1151
(dp1152
S'PFTAWBLQPZVEMU-UHFFFAOYSA-N'
p1153
(lp1154
F0.17999999999999999
aF0.26000000000000001
asS'QOZFCKXEVSGWGS-ZHIYBZGJSA-N'
p1155
(lp1156
F0.035000000000000003
aF0.076999999999999999
asS'MRSWRSDZIPNFCN-KSSFIOAISA-N'
p1157
(lp1158
F0.10000000000000001
asS'PFTAWBLQPZVEMU-ZFWWWQNUSA-N'
p1159
(lp1160
F0.17000000000000001
aF0.315
asg947
(lp1161
F0.087999999999999995
aF0.19
asS'SFLSHLFXELFNJZ-UHFFFAOYSA-N'
p1162
(lp1163
F0.040000000000000001
aF0.17999999999999999
asS'DILDHNKDVHLEQB-XSSYPUMDSA-N'
p1164
(lp1165
F0.085000000000000006
aF0.98999999999999999
asS'UCTWMZQNUQWSLP-UHFFFAOYSA-N'
p1166
(lp1167
F0.085000000000000006
aF0.25
assS'2.1.1.5'
p1168
(dp1169
S'YDBYJHTYSHBBAU-YFKPBYRVSA-O'
p1170
(lp1171
F0.0044000000000000003
aF24
aF38
asS'KWIUHFFTVRNATP-UHFFFAOYSA-N'
p1172
(lp1173
F0.0298
aF0.042200000000000001
aF88
asg252
(lp1174
F0.00029999999999999997
aF0.036700000000000003
aF0.0378
assS'2.1.1.4'
p1175
(dp1176
sS'3.1.1.23'
p1177
(dp1178
S'WKPUJZVCZXWKCK-UHFFFAOYSA-N'
p1179
(lp1180
F1.1299999999999999
assS'3.5.1.9'
p1181
(dp1182
sS'3.5.1.2'
p1183
(dp1184
sS'1.14.18.1'
p1185
(dp1186
sS'1.14.18.2'
p1187
(dp1188
sS'3.5.1.1'
p1189
(dp1190
g465
(lp1191
F3.1899999999999999
asS'KDGAYJIGGCDHPH-UWVGGRQHSA-N'
p1192
(lp1193
F0.80000000000000004
assS'3.5.1.6'
p1194
(dp1195
sS'1.14.15.67'
p1196
(dp1197
sS'4.2.1.18'
p1198
(dp1199
S'KFWWCMJSYSSPSK-PAXLJYGASA-N'
p1200
(lp1201
F6.7999999999999998
asS'CABVTRNMFUVUDM-SJBCKIPMSA-N'
p1202
(lp1203
F0.26000000000000001
asS'URTLOTISFJPPOU-DEGQQWIJSA-N'
p1204
(lp1205
F1.3999999999999999
asS'BXIPALATIYNHJN-ZMHDXICWSA-N'
p1206
(lp1207
F2.8999999999999999
asS'QHHKKMYHDBRONY-RMNRSTNRSA-N'
p1208
(lp1209
F1.7
asS'ZMMFWDHIXCPOHZ-XRYKKJIBSA-N'
p1210
(lp1211
F5.0999999999999996
assS'2.5.1.46'
p1212
(dp1213
sS'2.6.1.52'
p1214
(dp1215
sS'2.6.1.51'
p1216
(dp1217
sS'2.3.1.154'
p1218
(dp1219
sS'6.3.4.16'
p1220
(dp1221
S'QGZKDVFQNNGYKY-UHFFFAOYSA-N'
p1222
(lp1223
F5.7300000000000004
assS'2.6.1.58'
p1224
(dp1225
sS'6.3.4.15'
p1226
(dp1227
sS'1.1.99.5'
p1228
(dp1229
sS'1.1.99.1'
p1230
(dp1231
sS'1.1.1.133'
p1232
(dp1233
sS'4.2.1.55'
p1234
(dp1235
sS'4.2.1.56'
p1236
(dp1237
sS'6.3.2.17'
p1238
(dp1239
S'TVZGACDUOSZQKY-LBPRGKRZSA-N'
p1240
(lp1241
F1.1699999999999999
asS'ZAOGJXDWOQXFBW-KKUMJFAQSA-N'
p1242
(lp1243
F0.81000000000000005
asS'SDUHYPXROSSGGK-GJZGRUSLSA-N'
p1244
(lp1245
F0.81999999999999995
asS'WOLQREOUPKZMEX-BZSNNMDCSA-N'
p1246
(lp1247
F0.55000000000000004
asS'OZRNSSUDZOLUSN-LBPRGKRZSA-N'
p1248
(lp1249
F0.83999999999999997
asS'NJGIFGRWHCGKGC-MRKXFKPJSA-N'
p1250
(lp1251
F0.01
asS'YMUKRFYNHZWDBN-TUFLPTIASA-N'
p1252
(lp1253
F0.34000000000000002
asS'OVBPIULPVIDEAO-LBPRGKRZSA-N'
p1254
(lp1255
F0.65000000000000002
asS'MSTNYGQPCMXVAQ-RYUDHWBXSA-N'
p1256
(lp1257
F0.98999999999999999
asS'WZFWQRYNXSDFMH-GJZGRUSLSA-N'
p1258
(lp1259
F0.94999999999999996
assS'3.6.1.19'
p1260
(dp1261
S'PCDQPRRSZKQHHS-XVFCMESISA-N'
p1262
(lp1263
F0.80000000000000004
asS'PGAVKCOVUIYSFO-XVFCMESISA-N'
p1264
(lp1265
F0.69999999999999996
asS'JCHLKIQZUXYLPW-RUVBSYQFSA-N'
p1266
(lp1267
F0.20000000000000001
asS'RGWHQCVHVJXOKC-SHYZEUOFSA-N'
p1268
(lp1269
F0.29999999999999999
asS'NHVNXKFIZYSCEB-XLPZGREQSA-N'
p1270
(lp1271
F0.69999999999999996
assS'6.3.2.11'
p1272
(dp1273
sS'3.6.1.15'
p1274
(dp1275
sS'3.2.1.106'
p1276
(dp1277
sS'3.5.1.38'
p1278
(dp1279
sS'3.6.1.13'
p1280
(dp1281
S'KMYWVDDIPVNLME-KQYNXXCUSA-N'
p1282
(lp1283
F60
asS'SRNWOUGRCWSEMX-KEOHHSTQSA-N'
p1284
(lp1285
F5.5
aF11.4
aF35
aF8
assS'4.2.1.17'
p1286
(dp1287
sS'6.3.3.2'
p1288
(dp1289
sS'6.3.3.1'
p1290
(dp1291
sS'2.7.7.22'
p1292
(dp1293
sS'2.7.7.23'
p1294
(dp1295
sS'6.3.5.2'
p1296
(dp1297
sS'1.14.13.39'
p1298
(dp1299
g150
(lp1300
F6.5999999999999996
aF8
aF9.5
aF88
aF96
asS'AOJJSUZBOXZQNB-TZSSRYMLSA-N'
p1301
(lp1302
F4.7999999999999998
aF4.9000000000000004
aF5.2999999999999998
aF94
aF95
asS'NWIBSHFKIJFRCO-WUDYKRTCSA-N'
p1303
(lp1304
F0.62
aF0.80000000000000004
aF2.2000000000000002
aF15.800000000000001
aF26
assS'6.3.5.4'
p1305
(dp1306
sS'2.7.7.24'
p1307
(dp1308
sS'1.14.13.34'
p1309
(dp1310
sS'1.14.13.30'
p1311
(dp1312
sS'2.8.2.5'
p1313
(dp1314
sS'2.8.2.4'
p1315
(dp1316
sS'3.6.1.52'
p1317
(dp1318
S'UPHPWXPNZIOZJL-KXXVROSKSA-N'
p1319
(lp1320
F0.029999999999999999
aF0.029999999999999999
aF0.14999999999999999
aF0.14999999999999999
aF0.20000000000000001
aF0.20000000000000001
assS'2.8.2.1'
p1321
(dp1322
S'DKEIWIJUHWVGRC-UHFFFAOYSA-N'
p1323
(lp1324
F0.00116
aF0.059999999999999998
asS'ZQSIJRDFPHDXIC-UHFFFAOYSA-N'
p1325
(lp1326
F0.00033
aF0.0035000000000000001
aF0.0050000000000000001
aF0.0054999999999999997
aF0.02
aF0.095000000000000001
aF0.1065
asS'CQRHJEVIKOKQMO-UHFFFAOYSA-N'
p1327
(lp1328
F0.00183
aF0.063
asS'AUXMRGLXSPIQNV-UHFFFAOYSA-N'
p1329
(lp1330
F0.00016000000000000001
aF0.075999999999999998
asS'KIWWRRLFZKBEAL-UHFFFAOYSA-N'
p1331
(lp1332
F0.0067000000000000002
aF0.035000000000000003
asS'TZBJGXHYKVUXJN-UHFFFAOYSA-N'
p1333
(lp1334
F0.0015
aF0.0061999999999999998
aF0.012999999999999999
aF0.024
aF0.11
aF0.12
aF0.124
assS'2.8.2.2'
p1335
(dp1336
sS'1.1.1.220'
p1337
(dp1338
sS'2.4.1.22'
p1339
(dp1340
sS'2.4.1.25'
p1341
(dp1342
sS'1.1.1.225'
p1343
(dp1344
sS'2.5.1.18'
p1345
(dp1346
S'YVCOJTATJWDGEU-IONNQARKSA-N'
p1347
(lp1348
F1.1000000000000001
aF2.3999999999999999
aF9
asS'AWMVMTVKBNGEAK-QMMMGPOBSA-N'
p1349
(lp1350
F4.7999999999999998
aF8.4000000000000004
asS'FPIGOBKNDYAZTP-UHFFFAOYSA-N'
p1351
(lp1352
F201
asS'MQVQZTWTXUPFFC-IHWYPQMZSA-N'
p1353
(lp1354
F0.34699999999999998
aF464
asS'UOMCKHFTGNAYBX-UHFFFAOYSA-N'
p1355
(lp1356
F0.55000000000000004
aF0.58999999999999997
aF0.81999999999999995
aF13
asS'YVCOJTATJWDGEU-APPZFPTMSA-N'
p1357
(lp1358
F17.699999999999999
asS'VYZAHLCBVHPDDF-UHFFFAOYSA-N'
p1359
(lp1360
F4.5
aF18.300000000000001
aF76
aF761
asg258
(lp1361
F7.6699999999999999
aF12.199999999999999
aF108
aF464
aF1370
asS'ARCJQKUWGAZPFX-ZIAGYGMSSA-N'
p1362
(lp1363
F0.37
aF1.3
aF7.7000000000000002
asS'ARCJQKUWGAZPFX-KBPBESRZSA-N'
p1364
(lp1365
F0.070000000000000007
aF0.20000000000000001
aF0.46000000000000002
asS'LZBOEAUDEFYCDQ-UHFFFAOYSA-N'
p1366
(lp1367
F367
asS'YQHLDYVWEZKEOX-UHFFFAOYSA-N'
p1368
(lp1369
F9600
asS'NTBYINQTYWZXLH-UHFFFAOYSA-N'
p1370
(lp1371
F210
asS'LOTKRQAVGJMPNV-UHFFFAOYSA-N'
p1372
(lp1373
F106
assS'2.5.1.10'
p1374
(dp1375
sS'2.5.1.17'
p1376
(dp1377
S'ASARMUCNOOHMLO-PPDMUPKDSA-L'
p1378
(lp1379
F166.19999999999999
aF285
aF297.60000000000002
asg80
(lp1380
F166.19999999999999
aF285
aF297.60000000000002
assS'2.5.1.16'
p1381
(dp1382
sS'4.2.1.22'
p1383
(dp1384
g252
(lp1385
F6.2000000000000002
aF34
aF3.2999999999999998
aF4.6600000000000001
aF12.699999999999999
asS'MTCFGRXMJLQNBG-REOHCLBHSA-N'
p1386
(lp1387
F0.52000000000000002
aF1.3
aF2.5
aF3.6699999999999999
aF5.4000000000000004
aF7.5
aF14.01
aF19.699999999999999
assS'4.4.1.16'
p1388
(dp1389
sS'3.2.1.76'
p1390
(dp1391
sS'4.2.1.24'
p1392
(dp1393
sS'2.7.4.14'
p1394
(dp1395
S'DJJCXFVJDGTHFX-XVFCMESISA-N'
p1396
(lp1397
F92
aF130
asS'WUMZLKDCOINBEA-RQJHMYQMSA-N'
p1398
(lp1399
F14
aF36
asg1075
(lp1400
F30
aF73
asS'IERHLVCPSMICTF-CCXZUQQUSA-N'
p1401
(lp1402
F45
aF150
asS'IERHLVCPSMICTF-XVFCMESISA-N'
p1403
(lp1404
F72
aF130
assS'2.7.4.11'
p1405
(dp1406
sS'1.2.4.4'
p1407
(dp1408
g460
(lp1409
F3.2999999999999998
aF9.4000000000000004
aF0.1983
assS'1.11.1.8'
p1410
(dp1411
sS'1.11.1.9'
p1412
(dp1413
g258
(lp1414
F14.48
aF19.5
aF24.5
aF221.69999999999999
aF293.30000000000001
aF361.69999999999999
aF408.30000000000001
asS'MHAJPDPJQMAIIY-UHFFFAOYSA-N'
p1415
(lp1416
F10.550000000000001
aF16.02
aF20.829999999999998
aF316.69999999999999
aF445
aF560
aF670
assS'1.11.1.6'
p1417
(dp1418
sS'2.3.1.50'
p1419
(dp1420
sS'2.3.1.57'
p1421
(dp1422
sS'1.14.11.18'
p1423
(dp1424
sS'3.1.6.18'
p1425
(dp1426
sS'2.1.2.10'
p1427
(dp1428
sS'3.1.3.18'
p1429
(dp1430
S'ASCFNMCAHFUBCO-UHFFFAOYSA-N'
p1431
(lp1432
F19
assS'1.14.11.4'
p1433
(dp1434
sS'1.1.1.30'
p1435
(dp1436
sS'1.1.1.31'
p1437
(dp1438
sS'3.1.6.13'
p1439
(dp1440
sS'3.1.6.12'
p1441
(dp1442
sS'1.1.1.34'
p1443
(dp1444
sS'1.1.1.35'
p1445
(dp1446
S'OJFDKHTZOUZBOS-CITAKDKDSA-N'
p1447
(lp1448
F21.300000000000001
aF23.800000000000001
aF37
aF113
aF252
aF681.70000000000005
aF1287
asS'WPIVBCGRGVNDDT-CECATXLMSA-N'
p1449
(lp1450
F28
asg152
(lp1451
F705
aF1817
asS'CBMYJHIOYJEBSB-YSZCXEEOSA-N'
p1452
(lp1453
F0.092999999999999999
asS'VOXZDWNPVJITMN-ZBRFXRBCSA-N'
p1454
(lp1455
F0.010999999999999999
asS'QHHKKMYHDBRONY-VKBDFPRVSA-N'
p1456
(lp1457
F533.29999999999995
aF643.29999999999995
asS'NQMPLXPCRJOSHL-BBECNAHFSA-N'
p1458
(lp1459
F24
asS'QGXBDMJGAMFCBF-HLUDHZFRSA-N'
p1460
(lp1461
F0.010999999999999999
assS'3.1.3.10'
p1462
(dp1463
sS'1.1.1.37'
p1464
(dp1465
sS'2.3.1.51'
p1466
(dp1467
sS'1.11.1.7'
p1468
(dp1469
sS'4.1.1.19'
p1470
(dp1471
sS'5.4.2.3'
p1472
(dp1473
S'OVRNDRQMDRJTHS-PVFLNQBWSA-N'
p1474
(lp1475
F1.79
aF2.9399999999999999
assS'5.4.2.1'
p1476
(dp1477
sS'2.4.2.28'
p1478
(dp1479
S'KTLQJVHQZSXYOD-YEFCAQKCSA-N'
p1480
(lp1481
F3.7999999999999998
asS'FEUWMZLAKGHCOJ-LSCFUAHRSA-N'
p1482
(lp1483
F2.4900000000000002
asS'LYTIDKQIRXAXFG-XNIJJKJLSA-N'
p1484
(lp1485
F0.80000000000000004
asS'JDDUQGRUPLKDNT-IDTAVKCVSA-N'
p1486
(lp1487
F2.8999999999999999
asS'YPBFMIZDPCDUOG-LSCFUAHRSA-N'
p1488
(lp1489
F1.5
asS'RAVZCFVYBJGXAY-WOUKDFQISA-N'
p1490
(lp1491
F1.5
asS'FAXRUSMAJVYOCY-SCFUHWHPSA-N'
p1492
(lp1493
F2.5
asS'QUZCYTPZYQVRBV-QYVSTXNMSA-N'
p1494
(lp1495
F1.46
asS'SZXHSSHDQHZYAO-LSCFUAHRSA-N'
p1496
(lp1497
F2.1400000000000001
asS'JKPIENNMIYUJJP-YXYADJKSSA-N'
p1498
(lp1499
F5.5
asS'HYLJGASTSTUVMR-XLPZGREQSA-N'
p1500
(lp1501
F0.28000000000000003
asS'KLTQZXHABWFANM-MVKOHCKWSA-N'
p1502
(lp1503
F0.0040000000000000001
asS'ZZJZQYJDHAIMJM-SDBHATRESA-N'
p1504
(lp1505
F1.5700000000000001
asS'YIZBUJZFFMODRY-IDTAVKCVSA-N'
p1506
(lp1507
F2.2999999999999998
asS'LYDGCMAAUJUZIN-PMXXHBEXSA-N'
p1508
(lp1509
F0.23000000000000001
asS'UYVYUNPSTIWZDD-LSCFUAHRSA-N'
p1510
(lp1511
F1.3999999999999999
aF0.29999999999999999
asS'VBZWFEMCJOZUPI-HUKYDQBMSA-N'
p1512
(lp1513
F0.040000000000000001
aF0.00040000000000000002
asS'HMXHURAGFHWODC-WOUKDFQISA-N'
p1514
(lp1515
F0.67000000000000004
asS'SGSWFEQDPUFITR-BGIGGGFGSA-N'
p1516
(lp1517
F3.4399999999999999
asS'YCKCXPMZAPQBPA-XNIJJKJLSA-N'
p1518
(lp1519
F1.01
asS'XECCOMIMOJOGCO-WOUKDFQISA-N'
p1520
(lp1521
F5.9000000000000004
asS'XGYIMTFOTBMPFP-KQYNXXCUSA-N'
p1522
(lp1523
F4.7999999999999998
asS'CUXKVTIHEHVUNU-SDBHATRESA-N'
p1524
(lp1525
F0.84999999999999998
asS'FGCXULVIORNKMS-HGOJYGERSA-N'
p1526
(lp1527
F4.2000000000000002
asS'WUUGFSXJNOTRMR-IOSLPCCCSA-N'
p1528
(lp1529
F4.5999999999999996
asS'QVFVRQNGWNWFTF-XNIJJKJLSA-N'
p1530
(lp1531
F3.1600000000000001
asS'WMPUQTSDVJBPLH-IWCJZZDYSA-N'
p1532
(lp1533
F2.3999999999999999
assS'3.3.1.1'
p1534
(dp1535
S'FFFHZYDWPBMWHY-UHFFFAOYSA-N'
p1536
(lp1537
F6666
asS'ZJUKTBDSGOFHSH-VLCCZNNZSA-N'
p1538
(lp1539
F3.4500000000000002
aF1908
asg657
(lp1540
F6666
assS'5.4.2.4'
p1541
(dp1542
S'XOHUEYCVLUUEJJ-UHFFFAOYSA-N'
p1543
(lp1544
F0.0037000000000000002
assS'1.14.99.36'
p1545
(dp1546
sS'2.3.1.1'
p1547
(dp1548
sS'2.4.2.26'
p1549
(dp1550
S'NYLIQTKLRSZBPI-OMYGFQLXSA-N'
p1551
(lp1552
F0.036299999999999999
assS'4.1.1.15'
p1553
(dp1554
S'WHUUTDBJXJRKMK-VKHMYHEASA-N'
p1555
(lp1556
F0.40999999999999998
aF1.8
aF6.2000000000000002
aF7.7000000000000002
assS'2.3.1.4'
p1557
(dp1558
S'XHMJOUIAFHJHBW-IVMDWMLBSA-N'
p1559
(lp1560
F9
aF22.100000000000001
assS'2.3.1.7'
p1561
(dp1562
g293
(lp1563
F38.5
assS'2.3.1.6'
p1564
(dp1565
sS'2.3.3.8'
p1566
(dp1567
sS'1.1.1.49'
p1568
(dp1569
g800
(lp1570
F251
asS'NBSCHQHZLSJFNQ-GASJEMHNSA-N'
p1571
(lp1572
F251
aF275
aF279
aF571
asS'NBSCHQHZLSJFNQ-SVZMEOIVSA-N'
p1573
(lp1574
F157
asS'WKSUSMNNBQFESD-NNYOXOHSSA-N'
p1575
(lp1576
F98
asS'UQJFZAAGZAYVKZ-CERMHHMHSA-N'
p1577
(lp1578
F43
assS'1.1.1.45'
p1579
(dp1580
sS'1.1.1.44'
p1581
(dp1582
S'BIRSGZKFKXLSJQ-SQOUGZDYSA-N'
p1583
(lp1584
F0.217
assS'1.1.1.47'
p1585
(dp1586
sS'2.7.8.11'
p1587
(dp1588
sS'1.1.1.41'
p1589
(dp1590
S'ODBLHEXUDAPZAU-UHFFFAOYSA-N'
p1591
(lp1592
F30
asS'ODBLHEXUDAPZAU-ZAFYKAAXSA-N'
p1593
(lp1594
F30
asg152
(lp1595
F30
assS'1.1.1.40'
p1596
(dp1597
g800
(lp1598
F113.2
aF126
aF135.80000000000001
asg152
(lp1599
F28.899999999999999
aF34.18
aF51
asS'BJEPYKJPYRNKOW-REOHCLBHSA-N'
p1600
(lp1601
F110.90000000000001
assS'2.3.3.5'
p1602
(dp1603
sS'1.1.1.42'
p1604
(dp1605
sS'2.3.3.10'
p1606
(dp1607
sS'2.8.2.11'
p1608
(dp1609
sS'2.4.1.223'
p1610
(dp1611
sS'2.4.1.224'
p1612
(dp1613
sS'2.4.1.225'
p1614
(dp1615
sS'2.4.1.226'
p1616
(dp1617
sS'3.4.21.35'
p1618
(dp1619
S'LATXIQYQVGEJJC-HJOGWXRNSA-N'
p1620
(lp1621
F6.0999999999999996
asS'CCOBFOPWDBZKQO-IPJJNNNSSA-N'
p1622
(lp1623
F0.0074999999999999997
asS'CBECFYSOGJBLKH-FKBYEOEOSA-N'
p1624
(lp1625
F0.0064999999999999997
asS'XNWUNAVBWQXOGO-WWWPNJDSSA-N'
p1626
(lp1627
F0.33000000000000002
asS'CDWDQCWCHDTVHU-FXXABNLPSA-N'
p1628
(lp1629
F3.1000000000000001
asS'USFWOAQSHMLTIU-LHPDDAPDSA-N'
p1630
(lp1631
F0.72999999999999998
asS'YTUDUOMORVJATA-SNRMKQJTSA-N'
p1632
(lp1633
F0.12
asS'GHPYVMAXHWZRHO-ROUUACIJSA-N'
p1634
(lp1635
F0.0035000000000000001
asS'BTCWZEKYFOKVMQ-DZUOILHNSA-N'
p1636
(lp1637
F0.031
asS'RUAVTBUGJWJRRE-VABKMULXSA-N'
p1638
(lp1639
F0.040000000000000001
asS'UHDMYWFHWBHIAJ-NUQJMHIBSA-N'
p1640
(lp1641
F17.699999999999999
asS'SJTRFFLMKSZGRQ-JQFCIGGWSA-N'
p1642
(lp1643
F0.0038
asS'OBJGWCXLPDIAKS-LJWNLINESA-N'
p1644
(lp1645
F0.91700000000000004
asS'GXOKQACKPQXZQC-HZLPDVBGSA-N'
p1646
(lp1647
F0.026700000000000002
assS'2.7.1.33'
p1648
(dp1649
sS'2.7.1.31'
p1650
(dp1651
sS'2.7.1.30'
p1652
(dp1653
sS'2.7.1.36'
p1654
(dp1655
sS'3.1.1.19'
p1656
(dp1657
sS'3.1.1.13'
p1658
(dp1659
sS'2.7.1.151'
p1660
(dp1661
sS'2.7.1.153'
p1662
(dp1663
sS'3.1.1.17'
p1664
(dp1665
sS'2.4.1.11'
p1666
(dp1667
sS'2.4.1.17'
p1668
(dp1669
sS'2.4.1.18'
p1670
(dp1671
sS'3.1.6.15'
p1672
(dp1673
sS'4.1.2.27'
p1674
(dp1675
sS'3.1.6.14'
p1676
(dp1677
sS'3.2.2.6'
p1678
(dp1679
sS'4.3.1.8'
p1680
(dp1681
sS'3.1.3.11'
p1682
(dp1683
S'RNBGYGVWRKECFJ-ARQDHWQXSA-N'
p1684
(lp1685
F16.699999999999999
aF20.800000000000001
aF21.699999999999999
aF23.399999999999999
aF23.5
assS'4.3.1.3'
p1686
(dp1687
sS'5.1.3.1'
p1688
(dp1689
sS'2.4.1.65'
p1690
(dp1691
S'IOGFYVKKXYYAPL-YTVNPTHBSA-N'
p1692
(lp1693
F0.10000000000000001
asS'FLUMFXWMGPMKRG-CWYDIIEISA-N'
p1694
(lp1695
F0.0089999999999999993
aF0.40000000000000002
asS'MGSDFCKWGHNUSM-QVPNGJTFSA-N'
p1696
(lp1697
F8.0199999999999996
assS'4.3.1.17'
p1698
(dp1699
sS'6.4.1.4'
p1700
(dp1701
sS'2.4.1.62'
p1702
(dp1703
sS'1.1.1.146'
p1704
(dp1705
sS'4.3.1.19'
p1706
(dp1707
sS'1.13.11.33'
p1708
(dp1709
S'OYHQOLUKZRVURQ-HZJYTTRNSA-N'
p1710
(lp1711
F10.199999999999999
aF17.800000000000001
asg1029
(lp1712
F5.0999999999999996
aF5.2000000000000002
aF5.5999999999999996
aF7
aF7.5999999999999996
asS'YZXBAPSDXZZRGB-DOFZRALJSA-N'
p1713
(lp1714
F14
aF0.56999999999999995
aF0.62
aF0.73999999999999999
aF0.75
aF1.04
aF1.3799999999999999
assS'2.4.1.69'
p1715
(dp1716
S'LQEBEXMHBLQMDB-JGQUBWHWSA-N'
p1717
(lp1718
F0.0070000000000000001
assS'2.4.1.68'
p1719
(dp1720
S'UPORYLBXQJDYFC-XOEKKIKJSA-N'
p1721
(lp1722
F0.45000000000000001
assS'2.3.1.61'
p1723
(dp1724
sS'1.2.1.48'
p1725
(dp1726
g152
(lp1727
F1.28
asS'UHUFTBALEZWWIH-UHFFFAOYSA-N'
p1728
(lp1729
F0.85999999999999999
asS'FWWQKRXKHIRPJY-UHFFFAOYSA-N'
p1730
(lp1731
F1.52
asS'AMTITFMUKRZZEE-WAYWQWQTSA-N'
p1732
(lp1733
F1.3999999999999999
asS'YHRUHBBTQZKMEX-YFVJMOTDSA-N'
p1734
(lp1735
F0.93000000000000005
asS'KSMVZQYAVGTKIV-UHFFFAOYSA-N'
p1736
(lp1737
F2.1800000000000002
asS'NIOYUNMRJMEDGI-UHFFFAOYSA-N'
p1738
(lp1739
F0.94999999999999996
asg541
(lp1740
F2.23
assS'1.2.1.49'
p1741
(dp1742
sS'2.7.7.13'
p1743
(dp1744
sS'1.2.1.47'
p1745
(dp1746
sS'1.2.1.40'
p1747
(dp1748
sS'1.2.1.41'
p1749
(dp1750
sS'2.4.2.8'
p1751
(dp1752
g513
(lp1753
F0.041000000000000002
asS'FDGQSTZJBFJUBT-UHFFFAOYSA-N'
p1754
(lp1755
F1.1299999999999999
aF2.6000000000000001
aF5.7000000000000002
asS'GRSZFWQUAKGDAV-KQYNXXCUSA-N'
p1756
(lp1757
F0.037999999999999999
asS'PQGCEDQWHSBAJP-TXICZTDVSA-N'
p1758
(lp1759
F2.5
asS'UYTPUPDQBNUYGX-UHFFFAOYSA-N'
p1760
(lp1761
F1.2
aF10.5
asS'LRFVTYWOQMYALW-UHFFFAOYSA-N'
p1762
(lp1763
F2.8999999999999999
assS'2.4.1.88'
p1764
(dp1765
sS'3.6.1.21'
p1766
(dp1767
sS'3.6.1.23'
p1768
(dp1769
S'AHCYMLUZIRLXAA-SHYZEUOFSA-N'
p1770
(lp1771
F5.7999999999999998
aF9.1699999999999999
assS'3.4.24.15'
p1772
(dp1773
S'YUDHZPZWTRBRFR-JPRYDEJLSA-N'
p1774
(lp1775
F0.69999999999999996
asS'CDHXXEKDLLJPCM-KHVQSSSXSA-N'
p1776
(lp1777
F2.8999999999999999
asS'LWBIRMFHZURSKK-UJKKYYSESA-N'
p1778
(lp1779
F7
asS'LNMYRVPQOHZRLK-BGBFCPIGSA-N'
p1780
(lp1781
F4.5
asS'GCOLKPJQUSVAQJ-DUGSHLAESA-N'
p1782
(lp1783
F0.029999999999999999
asS'SKLSTVWQRMCXQO-UNHORJANSA-N'
p1784
(lp1785
F0.29999999999999999
asS'FZJGJFSIXVSXJC-RRXWZPBSSA-N'
p1786
(lp1787
F6
asS'ZYKLBQIMZCUKLV-UNHORJANSA-N'
p1788
(lp1789
F0.02
asS'MWNXFRKSLIJEKZ-UJKKYYSESA-N'
p1790
(lp1791
F1.6000000000000001
asS'JIXGTLAZTGJRRS-IDNKWEKWSA-N'
p1792
(lp1793
F11.1
asS'YQYMNERJCDLEFV-KHVQSSSXSA-N'
p1794
(lp1795
F9.0999999999999996
asS'PIZMAPGPVJTLQE-DUGSHLAESA-N'
p1796
(lp1797
F0.40000000000000002
asS'YVEVCAWAPWKCOW-FQEQRRFLSA-N'
p1798
(lp1799
F5.9000000000000004
asS'ZRFCKBDKFHYMHU-JPRYDEJLSA-N'
p1800
(lp1801
F0.01
asS'OGTNXNNAUDLFKU-MVMYWSRKSA-N'
p1802
(lp1803
F0.040000000000000001
asS'AGXIGKVFHLQKIK-RIKCFSDVSA-N'
p1804
(lp1805
F0.19
asS'GKWIACHEQKKVOR-WGXSSYHUSA-N'
p1806
(lp1807
F13.300000000000001
asS'SICSCHPGOPHLDD-SKGSPYGFSA-N'
p1808
(lp1809
F0.29999999999999999
asS'IIYBRTZIUBWZOU-QJSKOQLASA-N'
p1810
(lp1811
F1.7
asS'UIWJLIUTJXCLOO-SKGSPYGFSA-N'
p1812
(lp1813
F9.1999999999999993
assS'2.4.1.131'
p1814
(dp1815
sS'2.4.1.132'
p1816
(dp1817
sS'2.4.2.2'
p1818
(dp1819
sS'3.6.1.28'
p1820
(dp1821
S'IWLROWZYZPNOFC-UHFFFAOYSA-N'
p1822
(lp1823
F140
aF240
asg80
(lp1824
F0.23999999999999999
assS'2.4.2.4'
p1825
(dp1826
g677
(lp1827
F0.157
asS'USBZWPXQQCSGAV-KPGICGJXSA-N'
p1828
(lp1829
F2.8799999999999999
assS'2.4.2.7'
p1830
(dp1831
sS'2.3.1.15'
p1832
(dp1833
sS'2.3.1.14'
p1834
(dp1835
sS'2.3.1.17'
p1836
(dp1837
sS'2.3.1.16'
p1838
(dp1839
sS'2.3.1.13'
p1840
(dp1841
sS'2.3.1.12'
p1842
(dp1843
sS'4.2.1.99'
p1844
(dp1845
sS'1.17.3.2'
p1846
(dp1847
sS'2.3.1.9'
p1848
(dp1849
sS'1.1.1.72'
p1850
(dp1851
sS'1.6.99.7'
p1852
(dp1853
sS'1.1.1.78'
p1854
(dp1855
sS'1.1.1.79'
p1856
(dp1857
sS'1.6.99.3'
p1858
(dp1859
g1060
(lp1860
F677
assS'2.5.1.6'
p1861
(dp1862
sS'1.17.1.4'
p1863
(dp1864
sS'2.5.1.1'
p1865
(dp1866
sS'5.4.2.7'
p1867
(dp1868
sS'1.1.1.88'
p1869
(dp1870
sS'4.1.1.50'
p1871
(dp1872
sS'3.1.3.56'
p1873
(dp1874
sS'2.7.1.7'
p1875
(dp1876
sS'2.7.1.6'
p1877
(dp1878
g609
(lp1879
F8.6999999999999993
aF8.6999999999999993
asg80
(lp1880
F8.6999999999999993
assS'2.7.1.1'
p1881
(dp1882
S'PMMURAAUARKVCB-KAZBKCHUSA-N'
p1883
(lp1884
F29
asg80
(lp1885
F54
aF62.299999999999997
asg584
(lp1886
F0.17999999999999999
aF29
aF37
aF38
aF38
aF60.399999999999999
aF64
aF74
aF75
aF101
assS'2.7.1.3'
p1887
(dp1888
S'BJHIKXHVCXFQLS-OTWZMJIISA-N'
p1889
(lp1890
F5.2000000000000002
aF6.5
asS'RFSUNEUAIZKAJO-VRPWFDPXSA-N'
p1891
(lp1892
F1.7
aF5.9000000000000004
aF6.9000000000000004
aF7.5999999999999996
asS'ZAQJHHRNXZUBTE-NQXXGFSBSA-N'
p1893
(lp1894
F4.7999999999999998
aF7.5999999999999996
asS'HMFHBZSHGGEWLO-SOOFDHNKSA-N'
p1895
(lp1896
F1.55
aF8.1999999999999993
asg88
(lp1897
F7.5999999999999996
aF11.1
assS'5.4.99.7'
p1898
(dp1899
sS'5.4.99.2'
p1900
(dp1901
S'PPQOFITXUZOJDA-MIZDRFBCSA-N'
p1902
(lp1903
F150
aF283
assS'1.14.99.10'
p1904
(dp1905
sS'2.7.1.107'
p1906
(dp1907
S'AJMZUFBKADIAKC-SKTOPKGQSA-N'
p1908
(lp1909
F0.086999999999999994
aF1.23
aF2.7999999999999998
asS'SAEPUUXWQQNLGN-QNGWXLTQSA-N'
p1910
(lp1911
F2.3500000000000001
asS'AFSHUZFNMVJNKX-LLWMBOQKSA-N'
p1912
(lp1913
F0.032000000000000001
aF1.2
aF2.4300000000000002
asg80
(lp1914
F0.01
aF8.1999999999999993
aF23
asS'NSXLMTYRMFVYNT-XDPLQJFFSA-N'
p1915
(lp1916
F0.16200000000000001
aF1.7
aF5.7000000000000002
assS'2.7.1.105'
p1917
(dp1918
sS'2.7.1.108'
p1919
(dp1920
sS'4.1.1.17'
p1921
(dp1922
sS'6.2.1.30'
p1923
(dp1924
sS'1.7.14.1'
p1925
(dp1926
sS'2.7.1.76'
p1927
(dp1928
sS'2.7.1.74'
p1929
(dp1930
S'HBUBKKRHXORPQB-FJFJXFQQSA-N'
p1931
(lp1932
F0.17699999999999999
aF1.3340000000000001
asS'CKTSBUTUHBMZGZ-SHYZEUOFSA-N'
p1933
(lp1934
F0.033000000000000002
aF0.040000000000000001
aF0.043999999999999997
aF0.014999999999999999
aF0.021000000000000001
aF0.064000000000000001
asg80
(lp1935
F0.012
aF0.028000000000000001
aF0.029999999999999999
aF0.033000000000000002
aF0.095000000000000001
aF0.40000000000000002
asS'SDUQYLNIPVEERB-QPPQHZFASA-N'
p1936
(lp1937
F0.44
aF0.39000000000000001
asS'YKBGVTZYEHREMT-KVQBGUIXSA-N'
p1938
(lp1939
F0.33000000000000002
aF0.53000000000000003
aF0.72999999999999998
aF2.5
aF2.6000000000000001
aF2.6000000000000001
aF3.2599999999999998
asS'WDDPHFBMKLOVOX-AYQXTPAHSA-N'
p1940
(lp1941
F0.48599999999999999
aF1.1100000000000001
asS'PTOAARAWEBMLNO-KVQBGUIXSA-N'
p1942
(lp1943
F0.37
aF0.59999999999999998
aF0.080399999999999999
aF0.17199999999999999
asS'JTEGQNOMFQHVDC-RQJHMYQMSA-N'
p1944
(lp1945
F0.029999999999999999
aF0.10199999999999999
asg1264
(lp1946
F0.01
aF0.049000000000000002
aF0.10199999999999999
aF0.17899999999999999
asS'RXRGZNYSEHTMHC-BQBZGAKWSA-N'
p1947
(lp1948
F0.095000000000000001
asS'OLXZPDWKRNYJJZ-RRKCRQDMSA-N'
p1949
(lp1950
F0.33000000000000002
aF0.37
aF0.77000000000000002
aF1.7
aF2.1000000000000001
aF2.1299999999999999
aF3.1000000000000001
asS'UHDGCWIWMRVCDJ-JDNPWWSISA-N'
p1951
(lp1952
F0.34000000000000002
asg677
(lp1953
F0.38
asS'UHDGCWIWMRVCDJ-CCXZUQQUSA-N'
p1954
(lp1955
F0.17000000000000001
aF0.29999999999999999
aF0.32000000000000001
assS'2.7.1.73'
p1956
(dp1957
sS'1.3.1.38'
p1958
(dp1959
sS'1.3.1.34'
p1960
(dp1961
sS'4.1.1.21'
p1962
(dp1963
sS'3.1.3.59'
p1964
(dp1965
sS'3.2.1.96'
p1966
(dp1967
sS'2.1.1.17'
p1968
(dp1969
sS'3.1.3.51'
p1970
(dp1971
sS'2.1.1.13'
p1972
(dp1973
sS'5.1.3.19'
p1974
(dp1975
sS'5.1.3.14'
p1976
(dp1977
sS'5.1.3.17'
p1978
(dp1979
sS'3.2.1.31'
p1980
(dp1981
S'PRIOPKVBCZTKIT-ZFORQUDYSA-N'
p1982
(lp1983
F0.26000000000000001
asS'JXWGCVLNCGCZRU-JENRNSKYSA-N'
p1984
(lp1985
F1.6499999999999999
asS'XDPLKWRSVXUQBN-LVEHSUOCSA-N'
p1986
(lp1987
F0.34999999999999998
asS'QSUILVWOWLUOEU-GOVZDWNOSA-N'
p1988
(lp1989
F0.67000000000000004
asS'FNTJVYCFNVUBOL-ZUGPOPFOSA-N'
p1990
(lp1991
F0.65000000000000002
asS'MMIBOZXVZLENRZ-ZFORQUDYSA-N'
p1992
(lp1993
F1.0700000000000001
asS'DUBCCGAQYVUYEU-ZUGPOPFOSA-N'
p1994
(lp1995
F1.8999999999999999
assS'2.7.2.11'
p1996
(dp1997
sS'5.3.1.25'
p1998
(dp1999
sS'2.6.1.44'
p2000
(dp2001
g182
(lp2002
F0.068000000000000005
aF11.1
aF18.300000000000001
aF20.5
aF37
aF37
aF39
aF40
aF45
aF45
aF45
asg264
(lp2003
F0.22
asg913
(lp2004
F0.33000000000000002
asg473
(lp2005
F0.35999999999999999
asS'QNAYBMKLOCPYGJ-REOHCLBHSA-N'
p2006
(lp2007
F0.070000000000000007
aF10.6
aF17.100000000000001
aF19.800000000000001
aF33
aF33
aF33.600000000000001
aF35
aF45
aF45
aF45
assS'4.1.1.9'
p2008
(dp2009
S'LTYOQGRJFJAKNA-DVVLENMVSA-N'
p2010
(lp2011
F13
aF47.299999999999997
assS'2.6.1.40'
p2012
(dp2013
sS'5.3.1.23'
p2014
(dp2015
sS'2.6.1.42'
p2016
(dp2017
S'AGPKZVBTJJNPAG-WHFBIAKZSA-N'
p2018
(lp2019
F371
aF1075
asg469
(lp2020
F337
aF898
asg433
(lp2021
F340
asS'KZSNJWFQEVHDMF-BYPYZUCNSA-N'
p2022
(lp2023
F277
aF1236
asg1555
(lp2024
F290
aF1075
assS'4.1.1.4'
p2025
(dp2026
sS'5.1.3.13'
p2027
(dp2028
sS'3.5.1.26'
p2029
(dp2030
sS'4.1.3.7'
p2031
(dp2032
sS'1.1.1.102'
p2033
(dp2034
sS'4.1.3.5'
p2035
(dp2036
sS'2.4.1.212'
p2037
(dp2038
sS'4.1.3.3'
p2039
(dp2040
sS'1.1.1.105'
p2041
(dp2042
S'FPIPGXGPPPQFEQ-OVSJKPMPSA-N'
p2043
(lp2044
F0.02
assS'3.5.2.5'
p2045
(dp2046
sS'3.1.3.25'
p2047
(dp2048
sS'3.1.2.1'
p2049
(dp2050
sS'3.5.2.3'
p2051
(dp2052
sS'3.5.2.2'
p2053
(dp2054
sS'1.5.1.34'
p2055
(dp2056
S'ARHXUJTYUBUXBB-UHFFFAOYSA-N'
p2057
(lp2058
F510
asg1031
(lp2059
F200
asS'SYMNQIBTCYDGIS-UHFFFAOYSA-N'
p2060
(lp2061
F10.9
aF23.699999999999999
aF28.899999999999999
aF113
asg124
(lp2062
F280
asS'ZHQJVZLJDXWFFX-RPDRRWSUSA-N'
p2063
(lp2064
F10.9
aF23.699999999999999
aF28.899999999999999
aF113
assS'2.7.8.15'
p2065
(dp2066
sS'3.5.2.9'
p2067
(dp2068
sS'3.5.1.25'
p2069
(dp2070
sS'4.2.1.46'
p2071
(dp2072
sS'4.1.3.25'
p2073
(dp2074
sS'3.5.1.23'
p2075
(dp2076
sS'2.4.1.174'
p2077
(dp2078
sS'2.4.1.175'
p2079
(dp2080
sS'2.7.7.9'
p2081
(dp2082
sS'4.1.2.13'
p2083
(dp2084
g1684
(lp2085
F0.010999999999999999
aF0.029000000000000001
aF0.19
aF0.60999999999999999
aF2.1000000000000001
aF5.2000000000000002
aF12.6
aF16.699999999999999
aF20.100000000000001
aF59.700000000000003
asS'RHKKZBWRNHGJEZ-ARQDHWQXSA-N'
p2086
(lp2087
F0.0080000000000000002
aF0.019
aF0.12
aF0.67000000000000004
aF2
aF2.7999999999999998
aF6.0800000000000001
aF1.28
aF1.48
aF10.800000000000001
assS'2.7.7.3'
p2088
(dp2089
sS'2.7.7.2'
p2090
(dp2091
S'DXVIFONVCCHBHO-LXINESAQSA-N'
p2092
(lp2093
F0.070000000000000007
asS'FVTCRASFADXXNN-SCRDCRAPSA-N'
p2094
(lp2095
F0.0035999999999999999
aF0.0035999999999999999
aF0.0047999999999999996
aF0.02
aF0.078
aF0.080000000000000002
assS'2.7.7.1'
p2096
(dp2097
S'DAYLJWODMCOQEW-TURQNECASA-O'
p2098
(lp2099
F2.5
aF8.8000000000000007
aF53.799999999999997
asg80
(lp2100
F2.5
aF8.8000000000000007
aF53.899999999999999
asS'XDDGVTBJYGSVPM-DBRKOABJSA-N'
p2101
(lp2102
F0.41999999999999998
aF0.55000000000000004
aF14.9
asS'XQHMUSRSLNRVGA-TURQNECASA-N'
p2103
(lp2104
F3.2999999999999998
aF7.2000000000000002
aF18.600000000000001
asS'JOUIQRNQJGXQDC-ZYUZMQFOSA-O'
p2105
(lp2106
F3.7999999999999998
aF6.9000000000000004
aF42.899999999999999
assS'2.7.7.4'
p2107
(dp2108
sS'2.7.7.30'
p2109
(dp2110
S'CABDYDUZLRXGTB-UUOKFMHZSA-N'
p2111
(lp2112
F0.32000000000000001
asS'HXXFSFRBOHSIMQ-GASJEMHNSA-N'
p2113
(lp2114
F0.32000000000000001
asS'HFAGVQOGJSRBDX-UUOKFMHZSA-N'
p2115
(lp2116
F0.27000000000000002
asS'YEUMCUWPACWSLF-VKZRYZQFSA-N'
p2117
(lp2118
F0.02
asS'CAEFEWVYEZABLA-UUOKFMHZSA-N'
p2119
(lp2120
F0.029999999999999999
asS'HXXFSFRBOHSIMQ-QTVWNMPRSA-N'
p2121
(lp2122
F0.20000000000000001
asS'HXXFSFRBOHSIMQ-SVZMEOIVSA-N'
p2123
(lp2124
F0.23000000000000001
asg1266
(lp2125
F2.6000000000000001
asS'YJPQBHBYFRRQBE-DSKATIKOSA-N'
p2126
(lp2127
F0.0089999999999999993
asS'XKMLYUALXHKNFT-UUOKFMHZSA-N'
p2128
(lp2129
F2.5
aF2.5
asS'PTVXQARCLQPGIR-SXUWKVJYSA-N'
p2130
(lp2131
F3.6000000000000001
asg80
(lp2132
F0.0089999999999999993
asS'RWHOZGRAXYWRNX-GASJEMHNSA-N'
p2133
(lp2134
F0.17999999999999999
asg2086
(lp2135
F0.029999999999999999
asS'UULMAMAYNIKMIL-XJSXVSLSSA-N'
p2136
(lp2137
F0.089999999999999997
asS'OXGSLGMQACUSDD-BBBNYMBOSA-N'
p2138
(lp2139
F0.28999999999999998
asS'YMJBYRVFGYXULK-IVMDWMLBSA-N'
p2140
(lp2141
F0.20999999999999999
asS'YXJDFQJKERBOBM-KLVWXMOXSA-N'
p2142
(lp2143
F0.40000000000000002
asS'HAEJPQIATWHALX-KQYNXXCUSA-N'
p2144
(lp2145
F1.2
asS'IWJONOSHQAAANK-IGOKSWBJSA-N'
p2146
(lp2147
F1.5
assS'5.4.2.8'
p2148
(dp2149
sS'2.6.1.39'
p2150
(dp2151
sS'5.3.3.5'
p2152
(dp2153
S'CGSJXLIKVBJVRY-XTGBIJOFSA-N'
p2154
(lp2155
F0.42299999999999999
assS'5.2.1.3'
p2156
(dp2157
sS'4.1.1.28'
p2158
(dp2159
g947
(lp2160
F2.48
asS'WTDRDQBEARUVNC-LURJTMIESA-N'
p2161
(lp2162
F0.070000000000000007
assS'5.2.1.7'
p2163
(dp2164
sS'1.1.1.211'
p2165
(dp2166
sS'1.3.3.4'
p2167
(dp2168
S'UHSGPDMIQQYNAX-UHFFFAOYSA-N'
p2169
(lp2170
F0.050000000000000003
aF0.17499999999999999
aF0.17499999999999999
aF0.17499999999999999
assS'1.3.3.6'
p2171
(dp2172
sS'1.3.3.1'
p2173
(dp2174
sS'1.3.3.2'
p2175
(dp2176
sS'2.5.1.29'
p2177
(dp2178
sS'2.5.1.26'
p2179
(dp2180
sS'3.10.1.1'
p2181
(dp2182
sS'2.5.1.22'
p2183
(dp2184
S'ATHGHQPFGPMSJY-UHFFFAOYSA-N'
p2185
(lp2186
F32
aF32
assS'2.5.1.21'
p2187
(dp2188
sS'1.2.1.12'
p2189
(dp2190
sS'1.15.1.1'
p2191
(dp2192
S'MXDZWXWHPVATGF-UHFFFAOYSA-N'
p2193
(lp2194
F4600
aF40000
assS'3.2.1.46'
p2195
(dp2196
sS'1.2.1.16'
p2197
(dp2198
sS'5.3.99.4'
p2199
(dp2200
sS'3.2.1.45'
p2201
(dp2202
sS'1.2.1.19'
p2203
(dp2204
sS'1.5.3.1'
p2205
(dp2206
sS'1.5.3.7'
p2207
(dp2208
sS'2.4.1.101'
p2209
(dp2210
sS'2.2.1.1'
p2211
(dp2212
sS'2.2.1.2'
p2213
(dp2214
sS'2.4.1.102'
p2215
(dp2216
sS'3.5.1.42'
p2217
(dp2218
sS'1.5.5.1'
p2219
(dp2220
S'XGCJRRDNIMSYNC-INVBOZNNSA-N'
p2221
(lp2222
F35.5
asS'SQQWBSBBCSFQGC-JLHYYAGUSA-N'
p2223
(lp2224
F78.799999999999997
asS'VMEGFMNVSYVVOM-UHFFFAOYSA-N'
p2225
(lp2226
F74.299999999999997
asg190
(lp2227
F21.399999999999999
asS'SOECUQMRSRVZQQ-UHFFFAOYSA-N'
p2228
(lp2229
F33.5
assS'2.7.7.41'
p2230
(dp2231
sS'2.7.7.43'
p2232
(dp2233
sS'2.3.1.29'
p2234
(dp2235
sS'4.1.3.6'
p2236
(dp2237
sS'1.8.4.4'
p2238
(dp2239
sS'2.3.1.26'
p2240
(dp2241
sS'3.1.6.2'
p2242
(dp2243
S'CZWCKYRVOZZJNM-USOAJAOKSA-N'
p2244
(lp2245
F6.4800000000000004
assS'2.7.3.2'
p2246
(dp2247
g80
(lp2248
F51.700000000000003
aF75
aF76
aF88
aF115
aF143
aF155
asg742
(lp2249
F78.299999999999997
aF90
aF350
aF483.30000000000001
asS'CVSVTCORWBXHQV-UHFFFAOYSA-N'
p2250
(lp2251
F51.700000000000003
aF75
aF138
aF170
aF238
aF417
asS'DRBBFCLWYRJSJZ-UHFFFAOYSA-N'
p2252
(lp2253
F78.299999999999997
aF90
aF350
aF483.30000000000001
assS'2.3.1.21'
p2254
(dp2255
sS'4.2.1.107'
p2256
(dp2257
sS'1.1.1.28'
p2258
(dp2259
sS'1.1.1.22'
p2260
(dp2261
g226
(lp2262
F1.3999999999999999
asg152
(lp2263
F1.8
assS'1.14.17.1'
p2264
(dp2265
sS'1.1.1.20'
p2266
(dp2267
sS'1.1.1.27'
p2268
(dp2269
sS'2.7.1.113'
p2270
(dp2271
sS'3.5.4.9'
p2272
(dp2273
sS'1.3.1.72'
p2274
(dp2275
sS'1.6.5.5'
p2276
(dp2277
S'MBDOYVRWFFCFHM-UHFFFAOYSA-N'
p2278
(lp2279
F0.28000000000000003
asS'KETQAJRQOHHATG-UHFFFAOYSA-N'
p2280
(lp2281
F2.7999999999999998
asS'DTCCTIQRPGSLPT-ONEGZZNKSA-N'
p2282
(lp2283
F0.20000000000000001
asS'HGINCPLSRVDWNT-UHFFFAOYSA-N'
p2284
(lp2285
F1.6599999999999999
asS'HDKLIZDXVUCLHQ-BQYQJAHWSA-N'
p2286
(lp2287
F0.20999999999999999
asS'BSAIUMLZVGUGKX-UHFFFAOYSA-N'
p2288
(lp2289
F0.11
asS'JYTUBIHWMKQZRB-ONEGZZNKSA-N'
p2290
(lp2291
F1.3300000000000001
asS'LABTWGUMFABVFG-ONEGZZNKSA-N'
p2292
(lp2293
F0.20000000000000001
asS'JVJFIQYAHPMBBX-FNORWQNLSA-N'
p2294
(lp2295
F1.1499999999999999
asg136
(lp2296
F2.2000000000000002
asS'FUSUHKVFWTUUBE-UHFFFAOYSA-N'
p2297
(lp2298
F0.16
assS'1.6.5.4'
p2299
(dp2300
sS'1.14.15.4'
p2301
(dp2302
sS'3.5.4.5'
p2303
(dp2304
sS'3.5.4.4'
p2305
(dp2306
g657
(lp2307
F180
assS'3.1.2.22'
p2308
(dp2309
sS'4.1.1.65'
p2310
(dp2311
sS'2.4.1.198'
p2312
(dp2313
sS'1.3.5.1'
p2314
(dp2315
sS'3.4.11.4'
p2316
(dp2317
S'VENMDXUVHSKEIN-GUBZILKMSA-N'
p2318
(lp2319
F0.56000000000000005
asS'SGYSTDWPNPKJPP-GUBZILKMSA-N'
p2320
(lp2321
F5.2999999999999998
assS'2.1.1.114'
p2322
(dp2323
sS'3.6.3.1'
p2324
(dp2325
sS'3.6.3.6'
p2326
(dp2327
sS'3.5.99.6'
p2328
(dp2329
sS'3.6.3.9'
p2330
(dp2331
sS'1.14.13.9'
p2332
(dp2333
sS'1.14.13.8'
p2334
(dp2335
S'SRVJKTDHMYAMHA-WUXMJOGZSA-N'
p2336
(lp2337
F0.023
aF0.085000000000000006
aF1.335
asS'AEOCXXJPGCBFJA-UHFFFAOYSA-N'
p2338
(lp2339
F0.97299999999999998
asS'PMRYVIKBURPHAH-UHFFFAOYSA-N'
p2340
(lp2341
F0.037999999999999999
aF0.042999999999999997
aF0.52500000000000002
assS'1.5.1.8'
p2342
(dp2343
sS'1.5.1.9'
p2344
(dp2345
sS'1.14.11.1'
p2346
(dp2347
g433
(lp2348
F0.39000000000000001
aF0.55000000000000004
aF5.0999999999999996
assS'2.8.2.17'
p2349
(dp2350
sS'1.14.11.2'
p2351
(dp2352
S'RXTODGGZGCUMON-VXKWHMMOSA-N'
p2353
(lp2354
F6
asS'QRWOQKWSTQIQPU-SFTDATJTSA-N'
p2355
(lp2356
F7.7999999999999998
asS'VVVNOTZJSFQXKB-CHWRWOIISA-N'
p2357
(lp2358
F0.22
asS'XBSXQNFDBJWWOT-BDYUSTAISA-N'
p2359
(lp2360
F0.14999999999999999
asS'XKJACYXSYALHFD-BVSLBCMMSA-N'
p2361
(lp2362
F4.2000000000000002
assS'1.5.1.2'
p2363
(dp2364
g800
(lp2365
F55
asS'OMGHIGVFLOPEHJ-BYPYZUCNSA-N'
p2366
(lp2367
F10
assS'1.5.1.3'
p2368
(dp2369
g1248
(lp2370
F8.3300000000000001
aF10
aF10
aF51
asg1254
(lp2371
F1.0800000000000001
asg1058
(lp2372
F51
assS'1.5.1.5'
p2373
(dp2374
S'QYNUQALWYRSVHF-ABLWVSNPSA-N'
p2375
(lp2376
F3.2000000000000002
aF9.4000000000000004
asg800
(lp2377
F3.7999999999999998
aF10
assS'1.5.1.6'
p2378
(dp2379
sS'2.4.1.228'
p2380
(dp2381
sS'3.1.3.7'
p2382
(dp2383
sS'2.7.1.149'
p2384
(dp2385
sS'6.4.1.2'
p2386
(dp2387
g80
(lp2388
F0.155
asg293
(lp2389
F0.192
aF10.1
aF11.800000000000001
assS'6.4.1.3'
p2390
(dp2391
sS'6.4.1.1'
p2392
(dp2393
sS'1.14.19.1'
p2394
(dp2395
sS'3.4.21.39'
p2396
(dp2397
S'BSMIMUOMFFQXMO-ZGDGUDBWSA-N'
p2398
(lp2399
F56
asS'FRNYCQUVWVZCDR-FKBYEOEOSA-N'
p2400
(lp2401
F56
aF86
asS'UOHWRCYZPQVZLY-KCHLEUMXSA-N'
p2402
(lp2403
F7.5
asS'XNPAPYMJZRSQNE-HWBMXIPRSA-N'
p2404
(lp2405
F19
asS'CCKUMEZOVJIKNK-MGQBIDJDSA-N'
p2406
(lp2407
F68
asS'LKXGYPZLEFOYGZ-LQGLAIQGSA-N'
p2408
(lp2409
F10
asS'LKDMKWNDBAVNQZ-WJNSRDFLSA-N'
p2410
(lp2411
F65
aF2.5
aF3.6000000000000001
asS'FNQRFPHVWWKSCE-VABKMULXSA-N'
p2412
(lp2413
F100
asS'WMNLHPCAOHRAON-BOPPZIMTSA-N'
p2414
(lp2415
F160
asS'BAQAGSKMSJLKSP-MNKWLDRPSA-N'
p2416
(lp2417
F24.699999999999999
aF25.600000000000001
asS'QGHNLMGVRPPREV-YRUYCOJQSA-N'
p2418
(lp2419
F58
asS'LRADSKUFXJUEHR-VVWQDTPRSA-N'
p2420
(lp2421
F2.5
asS'PMDVINIXNOAYGX-QKDODKLFSA-N'
p2422
(lp2423
F120
asS'MTZBOHHLCSOETA-IPJJNNNSSA-N'
p2424
(lp2425
F21
aF21
asS'MKTCKIYGFQCTIS-VZTVMPNDSA-N'
p2426
(lp2427
F53
asS'YHDWQNOFCGFTQL-YRUYCOJQSA-N'
p2428
(lp2429
F79
asS'XZOZFJSPNPKSLH-GSDHBNRESA-N'
p2430
(lp2431
F3.8999999999999999
asS'WXLJMJFAMYVXHX-HWBMXIPRSA-N'
p2432
(lp2433
F75
aF75
asS'FOPKXFSCSMKBTK-ZEZDXWPOSA-N'
p2434
(lp2435
F4
asS'CFXDFGWREFEKMF-ACRUOGEOSA-N'
p2436
(lp2437
F38
asS'XOLDYOMGVDACAQ-HJOGWXRNSA-N'
p2438
(lp2439
F77
asS'NZPNSJNHMRBFQP-QLPRNTKGSA-N'
p2440
(lp2441
F10
asS'ADFSKYNAASCKOQ-WFXMLNOXSA-N'
p2442
(lp2443
F1.2
aF8.6999999999999993
aF8.6999999999999993
asS'QFOPGAYQILHLSR-GSDHBNRESA-N'
p2444
(lp2445
F8.4000000000000004
asS'VGQSFPRHTFAOCG-YAJHFMINSA-N'
p2446
(lp2447
F6.7000000000000002
asS'FFYPQBXBRUILGA-SDHOMARFSA-N'
p2448
(lp2449
F6.2000000000000002
asS'HGLWNAAKEQVSEW-BFYRRKHWSA-N'
p2450
(lp2451
F210
asS'XNTNHYLNJTWETI-USJZOSNVSA-N'
p2452
(lp2453
F23
asS'FGIROCKRKVGUJN-HJOGWXRNSA-N'
p2454
(lp2455
F14
asS'ORWYRWWVDCYOMK-HBZPZAIKSA-N'
p2456
(lp2457
F65
aF140
aF143
asS'PIWNYCMHNGJHLM-KCHLEUMXSA-N'
p2458
(lp2459
F5.9000000000000004
asS'RLTPUJDOELVTRF-FKBYEOEOSA-N'
p2460
(lp2461
F61
asS'JJYSJBMKKZTIOY-LNMJFAINSA-N'
p2462
(lp2463
F19.300000000000001
asS'SDUAKMPTDHAQKJ-XRQBVDHJSA-N'
p2464
(lp2465
F51
asS'ZCWMSMLAGCXPPA-FHQLIMNDSA-N'
p2466
(lp2467
F143
assS'2.7.1.140'
p2468
(dp2469
sS'3.3.2.6'
p2470
(dp2471
S'VUUNELJIFNFWJC-NSHDSACASA-N'
p2472
(lp2473
F0.040000000000000001
asS'TWYRZWVFWYSNBU-JTQLQIEISA-N'
p2474
(lp2475
F1.8999999999999999
asS'PXFUDSMGEYRNNC-LURJTMIESA-N'
p2476
(lp2477
F0.59999999999999998
aF1.7
asS'PXFUDSMGEYRNNC-UHFFFAOYSA-N'
p2478
(lp2479
F1.8999999999999999
asg2318
(lp2480
F0.56000000000000005
asS'TWYRZWVFWYSNBU-UHFFFAOYSA-N'
p2481
(lp2482
F0.14999999999999999
asS'AVVSPQJVXCWBDF-UHFFFAOYSA-N'
p2483
(lp2484
F0.14999999999999999
aF0.34999999999999998
asg394
(lp2485
F0.14999999999999999
aF0.84999999999999998
aF0.84999999999999998
aF1.5
aF2.0800000000000001
asS'JWXPYNYNEUYKOW-JTQLQIEISA-N'
p2486
(lp2487
F0.14999999999999999
assS'4.2.1.47'
p2488
(dp2489
S'MVMSCBBUIHUTGJ-GDJBGNAASA-N'
p2490
(lp2491
F0.80000000000000004
assS'1.13.11.52'
p2492
(dp2493
g439
(lp2494
F0.87
aF1
aF1.3
aF1.3999999999999999
aF1.3999999999999999
aF1.7
aF2.2000000000000002
aF2.2400000000000002
aF2.5
aF3
aF3.1000000000000001
aF3.2000000000000002
aF3.3999999999999999
aF3.5
aF4.2000000000000002
aF6.4000000000000004
aF8.0999999999999996
aF10
aF12
asS'LDCYZAJDBXYCGN-VIFPVBQESA-N'
p2495
(lp2496
F0.025000000000000001
asS'INPQIVHQSQUEAJ-VIFPVBQESA-N'
p2497
(lp2498
F0.76000000000000001
asS'ZADWXFSZEAPBJS-JTQLQIEISA-N'
p2499
(lp2500
F0.064000000000000001
asg1029
(lp2501
F2.8999999999999999
asS'HUNCSWANZMJLPM-JTQLQIEISA-N'
p2502
(lp2503
F3.7799999999999998
asg907
(lp2504
F0.20000000000000001
aF3.9300000000000002
aF5.9000000000000004
assS'5.3.1.8'
p2505
(dp2506
S'NBSCHQHZLSJFNQ-RWOPYEJCSA-N'
p2507
(lp2508
F3
assS'3.4.19.6'
p2509
(dp2510
sS'1.13.11.5'
p2511
(dp2512
S'IGMNYECMUMZDDF-UHFFFAOYSA-N'
p2513
(lp2514
F10.1
aF32.200000000000003
aF43.399999999999999
assS'1.13.11.6'
p2515
(dp2516
sS'3.4.19.9'
p2517
(dp2518
sS'3.4.17.1'
p2519
(dp2520
S'QAUUDNIGJSLPSX-UHFFFAOYSA-N'
p2521
(lp2522
F0.042000000000000003
asS'KTQKWSPZOZKAEE-LJADHVKFSA-N'
p2523
(lp2524
F1.45
asS'FLGYJBNDDWLTQR-INIZCTEOSA-N'
p2525
(lp2526
F48.299999999999997
aF112
asS'NOTCFISCFHKOHX-AULVFQMTSA-N'
p2527
(lp2528
F24.300000000000001
asS'AQWSWFXLHMHNPN-UKMAJIJPSA-N'
p2529
(lp2530
F19.399999999999999
asS'AULZEWXDQALHSZ-INIZCTEOSA-N'
p2531
(lp2532
F13.300000000000001
asS'YFGBQHOOROIVKG-UHFFFAOYSA-N'
p2533
(lp2534
F3.4300000000000002
asS'JAPJOLBDXOXSKE-WQICJITCSA-N'
p2535
(lp2536
F44.299999999999997
asS'LFGVVNZHOSLHJR-MIMFYIINSA-N'
p2537
(lp2538
F13.4
asS'HXJYLPIYSIXEAK-UZEKWKPYSA-N'
p2539
(lp2540
F57.299999999999997
asg2456
(lp2541
F8.2300000000000004
asS'PCJGZPGTCUMMOT-ISULXFBGSA-N'
p2542
(lp2543
F0.23999999999999999
asS'URLZCHNOLZSCCA-VABKMULXSA-N'
p2544
(lp2545
F2.3300000000000001
asS'SHXQCNAHTBAAMT-KDHVSHQXSA-N'
p2546
(lp2547
F12.4
asS'ZUBMCRJZWDZYHC-VCVRMXLYSA-N'
p2548
(lp2549
F23.899999999999999
asS'CCLJGZGVIQBNDH-HNNXBMFYSA-N'
p2550
(lp2551
F11.699999999999999
aF66.700000000000003
assS'3.1.4.37'
p2552
(dp2553
sS'5.3.3.12'
p2554
(dp2555
sS'4.1.1.23'
p2556
(dp2557
g1052
(lp2558
F0.75
aF8.0999999999999996
assS'5.1.99.4'
p2559
(dp2560
S'SAHWFIOQEWXFSQ-TZQJYCFMSA-N'
p2561
(lp2562
F0.0094999999999999998
asS'KHEIXDLMIXBLRR-WAJDXPIUSA-N'
p2563
(lp2564
F0.014999999999999999
asS'IERLRQNOXCBECM-RQOYCFECSA-N'
p2565
(lp2566
F0.031
aF0.070000000000000007
assS'1.1.1.153'
p2567
(dp2568
sS'3.6.1.39'
p2569
(dp2570
sS'2.6.1.5'
p2571
(dp2572
g452
(lp2573
F1.2
asg448
(lp2574
F1
aF83
asg433
(lp2575
F0.25
asg1555
(lp2576
F3.7999999999999998
aF69
assS'1.13.11.27'
p2577
(dp2578
sS'1.13.11.20'
p2579
(dp2580
g264
(lp2581
F1.7
assS'5.3.1.1'
p2582
(dp2583
sS'2.3.1.76'
p2584
(dp2585
sS'3.5.1.14'
p2586
(dp2587
S'SNCJTJSQAMLIQZ-ZETCQYMHSA-N'
p2588
(lp2589
F0.0015
asS'BXHXAMZDCPRECC-QMMMGPOBSA-N'
p2590
(lp2591
F16.199999999999999
asS'IGIFWQPGFGHFQY-JTQLQIEISA-N'
p2592
(lp2593
F0.0062300000000000003
asS'RBAAEQRITQHPJM-LURJTMIESA-N'
p2594
(lp2595
F25.699999999999999
asS'WUVVOUFAPBDGTP-VIFPVBQESA-N'
p2596
(lp2597
F16.100000000000001
asS'OMVFHSRJYHNQFU-ZETCQYMHSA-N'
p2598
(lp2599
F0.52900000000000003
aF6.0800000000000001
asS'PEDXUVCGOLSNLQ-WUJLRWPWSA-N'
p2600
(lp2601
F2.23
asS'JDMCEGLQFSOMQH-ZETCQYMHSA-N'
p2602
(lp2603
F156
asS'BVCAPFTWLHLMJP-ZETCQYMHSA-N'
p2604
(lp2605
F12.4
asS'SCOFHFUTEYTKHR-VIFPVBQESA-N'
p2606
(lp2607
F13.300000000000001
asS'KSMRODHGGIIXDV-YFKPBYRVSA-N'
p2608
(lp2609
F30.699999999999999
asS'JCOYMIGUZVEFJA-QMMMGPOBSA-N'
p2610
(lp2611
F0.105
asS'CBQJSKKFNMDLON-JTQLQIEISA-N'
p2612
(lp2613
F0.14000000000000001
asS'LPJXPACOXRZCCP-VIFPVBQESA-N'
p2614
(lp2615
F0.0101
asS'NZIOTNYOYJRBSN-ZETCQYMHSA-N'
p2616
(lp2617
F139
asS'PWKSKIMOESPYIA-BYPYZUCNSA-N'
p2618
(lp2619
F30
aF28.100000000000001
asS'ORGKYHFOPHPHQL-AGROOBSYSA-N'
p2620
(lp2621
F120
asS'KBOJOGQFRVVWBH-ZETCQYMHSA-N'
p2622
(lp2623
F1.2
asS'XUYPXLNMDZIRQH-LURJTMIESA-N'
p2624
(lp2625
F65
aF38.299999999999997
aF38.299999999999997
asS'UEDFZGJQHLHYIX-SBKAZOPESA-N'
p2626
(lp2627
F150
asS'IHYJTAOFMMMOPX-LURJTMIESA-N'
p2628
(lp2629
F14.699999999999999
asS'WXNXCEHXYPACJF-ZETCQYMHSA-N'
p2630
(lp2631
F55.5
asS'PYUSHNKNPOHWEZ-YFKPBYRVSA-N'
p2632
(lp2633
F177
asS'RFMMMVDNIPUKGG-YFKPBYRVSA-N'
p2634
(lp2635
F156
aF156
asS'OKJIRPAQVSHGFK-UHFFFAOYSA-N'
p2636
(lp2637
F31.699999999999999
asS'PPFRJEXUPZWQPI-JTQLQIEISA-N'
p2638
(lp2639
F0.158
asS'XXMMIIWNECFPCS-SJQFFEKCSA-N'
p2640
(lp2641
F80
assS'3.1.3.27'
p2642
(dp2643
sS'3.5.1.16'
p2644
(dp2645
sS'2.3.1.78'
p2646
(dp2647
sS'3.4.11.1'
p2648
(dp2649
sS'3.5.1.12'
p2650
(dp2651
sS'3.4.11.2'
p2652
(dp2653
S'RQHPADKWNYTHOH-VIFPVBQESA-N'
p2654
(lp2655
F303
assS'3.1.3.4'
p2656
(dp2657
S'FAZBDRGXCKPVJU-MRXNPFEDSA-N'
p2658
(lp2659
F354
asS'WRGQSWVCFNIUNZ-GDCKJWNLSA-N'
p2660
(lp2661
F177
assS'3.1.3.5'
p2662
(dp2663
S'RQFCJASXJCIDSX-UUOKFMHZSA-N'
p2664
(lp2665
F132
asg1396
(lp2666
F289
asS'UGQMRVRMYYASKQ-KQYNXXCUSA-N'
p2667
(lp2668
F19
aF22
asg1756
(lp2669
F104
asg744
(lp2670
F187
asg718
(lp2671
F40
asS'KHWCHTKSEGGWEX-RRKCRQDMSA-N'
p2672
(lp2673
F174
asS'IWUCXVSUMQZMFG-AFCXAGJDSA-N'
p2674
(lp2675
F0.023
aF0.027
aF0.067000000000000004
aF0.14999999999999999
asg1403
(lp2676
F202
assS'2.7.1.67'
p2677
(dp2678
sS'2.4.1.149'
p2679
(dp2680
sS'1.14.99.25'
p2681
(dp2682
sS'3.1.3.2'
p2683
(dp2684
g1262
(lp2685
F93
asg742
(lp2686
F73
asS'WMDDNKROYKCDJC-UHFFFAOYSA-N'
p2687
(lp2688
F109
asS'XCCTYIAWTASOJW-XVFCMESISA-N'
p2689
(lp2690
F79
asS'DTBNBXWJWCWCIK-UHFFFAOYSA-N'
p2691
(lp2692
F2
asg2128
(lp2693
F113
asS'ZWIADYZPOWUWEW-XVFCMESISA-N'
p2694
(lp2695
F58
asg80
(lp2696
F119
asS'YNXICDMQCQPQEW-UHFFFAOYSA-N'
p2697
(lp2698
F53
asS'BCHIXGBGRHLSBE-UHFFFAOYSA-N'
p2699
(lp2700
F121
asg1264
(lp2701
F119
asS'UJLXYODCHAELLY-XLPZGREQSA-N'
p2702
(lp2703
F69
asS'XZKIHKMTEMTJQX-UHFFFAOYSA-N'
p2704
(lp2705
F198
asS'QGWNDRXFNXRZMB-UUOKFMHZSA-N'
p2706
(lp2707
F86
asg1270
(lp2708
F107
asS'CMPQUABWPXYYSH-UHFFFAOYSA-N'
p2709
(lp2710
F62
assS'3.1.3.3'
p2711
(dp2712
sS'2.4.1.145'
p2713
(dp2714
sS'2.4.1.144'
p2715
(dp2716
sS'3.3.2.9'
p2717
(dp2718
sS'2.4.1.141'
p2719
(dp2720
sS'3.1.3.9'
p2721
(dp2722
sS'2.4.1.143'
p2723
(dp2724
sS'2.4.1.142'
p2725
(dp2726
sS'3.6.1.1'
p2727
(dp2728
sS'4.1.2.14'
p2729
(dp2730
sS'3.6.1.5'
p2731
(dp2732
sS'3.6.1.7'
p2733
(dp2734
sS'1.6.1.2'
p2735
(dp2736
sS'3.6.1.9'
p2737
(dp2738
sS'3.6.1.6'
p2739
(dp2740
sS'4.1.3.4'
p2741
(dp2742
S'CABVTRNMFUVUDM-VRHQGPGLSA-N'
p2743
(lp2744
F0.105
aF0.127
assS'2.6.19.4'
p2745
(dp2746
sS'3.1.1.7'
p2747
(dp2748
S'GFFIJCYHQYHUHB-UHFFFAOYSA-N'
p2749
(lp2750
F6500
assS'3.1.1.4'
p2751
(dp2752
sS'3.1.1.2'
p2753
(dp2754
S'YEEDHQQUIZYWJP-UHFFFAOYSA-N'
p2755
(lp2756
F403
asg2521
(lp2757
F26
aF1300
asS'DQPGSVFUEXLEFB-UHFFFAOYSA-N'
p2758
(lp2759
F145
asS'IAWZWMGUTKRLQB-UHFFFAOYSA-N'
p2760
(lp2761
F571
asS'YKYONYBAUNKHLG-UHFFFAOYSA-N'
p2762
(lp2763
F0.40000000000000002
asS'DKPFZGUDAPQIHT-UHFFFAOYSA-N'
p2764
(lp2765
F0.27000000000000002
asS'PFJLHSIZFYNAHH-UHFFFAOYSA-N'
p2766
(lp2767
F0.81999999999999995
asS'PVDYNYCZGYOXAF-UHFFFAOYSA-N'
p2768
(lp2769
F0.5
asS'XEKOWRVHYACXOJ-UHFFFAOYSA-N'
p2770
(lp2771
F0.24199999999999999
asS'HWCUCNKPBMGSSC-UHFFFAOYSA-N'
p2772
(lp2773
F1
asS'KEUPLGRNURQXAR-UHFFFAOYSA-N'
p2774
(lp2775
F117
asS'PGJQPLVEUVHSFQ-UHFFFAOYSA-N'
p2776
(lp2777
F14
asS'HSNBGFVFXQYLMI-UHFFFAOYSA-N'
p2778
(lp2779
F125
asS'QUKGYYKBILRGFE-UHFFFAOYSA-N'
p2780
(lp2781
F0.00080000000000000004
aF0.02
asS'SEVSMVUOKAMPDO-UHFFFAOYSA-N'
p2782
(lp2783
F26
asS'SJMMFGNAJFFWNL-UHFFFAOYSA-N'
p2784
(lp2785
F334
asS'ZOWSJJBOQDKOHI-UHFFFAOYSA-N'
p2786
(lp2787
F4
asS'CJGXWABHYYJNJH-UHFFFAOYSA-N'
p2788
(lp2789
F23
asS'VIBOGIYPPWLDTI-UHFFFAOYSA-N'
p2790
(lp2791
F18
asS'GEYKMXGLAWGAEY-UHFFFAOYSA-N'
p2792
(lp2793
F0.24399999999999999
asS'BXMJPAFREVJCQB-UHFFFAOYSA-N'
p2794
(lp2795
F59
asS'CDJJKTLOZJAGIZ-UHFFFAOYSA-N'
p2796
(lp2797
F68
asS'IPBVNPXQWQGGJP-UHFFFAOYSA-N'
p2798
(lp2799
F454
aF503
aF659
aF698
aF796
aF843.60000000000002
aF843.60000000000002
aF850
aF854
aF1200
aF1541
aF1901
aF3373
aF4778
asS'ZFIOOTIKKICLOR-UHFFFAOYSA-N'
p2800
(lp2801
F51
asS'SMIOEQSLJNNKQF-UHFFFAOYSA-N'
p2802
(lp2803
F13
asS'PUNIIEHHUHGISF-UHFFFAOYSA-N'
p2804
(lp2805
F431
assS'1.1.1.62'
p2806
(dp2807
g1454
(lp2808
F4.4000000000000004
asg138
(lp2809
F0.33000000000000002
asg158
(lp2810
F0.16
asS'DNXHEGUUPJUMQT-CBZIJGRNSA-N'
p2811
(lp2812
F5.7999999999999998
assS'3.1.1.1'
p2813
(dp2814
S'DVDUMIQZEUTAGK-UHFFFAOYSA-N'
p2815
(lp2816
F190
asg2521
(lp2817
F17
aF70
asS'JLNOMNLFFZKXRM-MUUNZHRXSA-N'
p2818
(lp2819
F3.0000000000000001e-06
aF0.00027
aF0.0040000000000000001
asS'GLVVKKSPKXTQRB-UHFFFAOYSA-N'
p2820
(lp2821
F31
asS'RLLPVAHGXHCWKJ-MJGOQNOKSA-N'
p2822
(lp2823
F0.00080000000000000004
aF0.0028
asS'MEGHWIAOTJPCHQ-UHFFFAOYSA-N'
p2824
(lp2825
F210
asS'GPAKSCDFLIZRDC-MGBGTMOVSA-N'
p2826
(lp2827
F1.5e-05
aF8.0000000000000007e-05
aF0.017000000000000001
asS'VEMKTZHHVJILDY-UXHICEINSA-N'
p2828
(lp2829
F0.034000000000000002
asS'FRMYXXQXSOWFIV-MGBGTMOVSA-N'
p2830
(lp2831
F0.00040999999999999999
asS'RLLPVAHGXHCWKJ-HKUYNNGSSA-N'
p2832
(lp2833
F0.028000000000000001
aF0.056000000000000001
asS'QLHFGNPCPMZWQU-JTQLQIEISA-N'
p2834
(lp2835
F651
asS'XTXRWKRVRITETP-UHFFFAOYSA-N'
p2836
(lp2837
F140
asS'YZWRNSARCRTXDS-UHFFFAOYSA-N'
p2838
(lp2839
F7
asS'XIVJNRXPRQKFRZ-UHFFFAOYSA-N'
p2840
(lp2841
F48
asS'UIWXSTHGICQLQT-UHFFFAOYSA-N'
p2842
(lp2843
F105
asS'UYXTWWCETRIEDR-UHFFFAOYSA-N'
p2844
(lp2845
F18
assS'3.4.15.1'
p2846
(dp2847
S'GQKRRZAUNABSCW-OALUTQOASA-N'
p2848
(lp2849
F383
asg1776
(lp2850
F2.2000000000000002
aF2.7000000000000002
aF4.2000000000000002
asS'CFRYZAQXODRSQB-CQJMVLFOSA-N'
p2851
(lp2852
F13.699999999999999
aF28.600000000000001
asS'JQPHXASFDMFJDK-YDPTYEFTSA-N'
p2853
(lp2854
F1.01
aF58.799999999999997
aF85.599999999999994
asS'BYMBPTPTFQSUNY-KRCBVYEFSA-N'
p2855
(lp2856
F31
aF79
aF79.900000000000006
aF101.7
asS'CSRXXRXRLYZXJK-CZZXPTITSA-N'
p2857
(lp2858
F0.20000000000000001
aF13.9
aF82
asS'QGYPBQRIGDHXNE-KRCBVYEFSA-N'
p2859
(lp2860
F7
aF28.899999999999999
aF62.5
asS'ZLAXQKOXPCIAPB-UJKKYYSESA-N'
p2861
(lp2862
F0.29999999999999999
aF0.59999999999999998
aF2
asS'YBSJCQWQTKKJKR-WGXSSYHUSA-N'
p2863
(lp2864
F0.90000000000000002
aF1
aF1.3999999999999999
asS'ACMLDDRMYJNXEC-QRJIKESZSA-N'
p2865
(lp2866
F0.059999999999999998
aF1.1000000000000001
aF18.699999999999999
aF36.299999999999997
asS'SOCTVSMLGYTVEC-DEWCAVSXSA-N'
p2867
(lp2868
F3.3999999999999999
aF5
aF10.4
asS'QXZGBUJJYSLZLT-FDISYFBBSA-N'
p2869
(lp2870
F8.3300000000000001
asS'YGDCTOGHNZNNSC-MIPYRDRASA-N'
p2871
(lp2872
F550
asS'QMMQWUIHTBDYPV-ASQDNUSESA-N'
p2873
(lp2874
F1400
asS'YRQNNWNMKQDSMS-SKGSPYGFSA-N'
p2875
(lp2876
F0.80000000000000004
aF2
aF2.2999999999999998
asS'WVCBSRFDEBSSQR-UJKKYYSESA-N'
p2877
(lp2878
F1.8
aF3.2999999999999998
aF3.7999999999999998
asg2533
(lp2879
F58.299999999999997
asS'CYQZRSVDAIOAIY-UHFFFAOYSA-N'
p2880
(lp2881
F283
asS'MSPGIYUPGNCJRC-UJKKYYSESA-N'
p2882
(lp2883
F2.2000000000000002
asS'MHWYEMQVORTTCS-ZCGNUHBKSA-N'
p2884
(lp2885
F368
asS'JWJYYPIBSUEZRQ-FQEQRRFLSA-N'
p2886
(lp2887
F2.3999999999999999
aF10.1
aF12.6
asS'XHWDVRRNQHMAPE-CUZNLEPHSA-N'
p2888
(lp2889
F3.75
asg2456
(lp2890
F0.57999999999999996
aF8.3300000000000001
aF8.6999999999999993
aF52
asS'BODOSSIKMQLZKC-IDNKWEKWSA-N'
p2891
(lp2892
F1
aF2
aF3.2999999999999998
asS'GMKYRHRAUUXWAX-ZJZGAYNASA-N'
p2893
(lp2894
F0.10000000000000001
aF24.600000000000001
aF44.200000000000003
asS'VKSXBRRMCBLXTN-UJKKYYSESA-N'
p2895
(lp2896
F0.90000000000000002
aF1.3
aF2.3999999999999999
asS'ZDLZKMDMBBMJLI-FDMDGMSGSA-N'
p2897
(lp2898
F179
asS'AZSPINRRKIHBAB-RMWOQXJUSA-N'
p2899
(lp2900
F460
asS'CKPBASVDHBIVNU-KODIBZKNSA-N'
p2901
(lp2902
F2.6000000000000001
aF2.8999999999999999
aF8.6999999999999993
asg2542
(lp2903
F0.56699999999999995
asg2544
(lp2904
F11.699999999999999
asS'AAXWBCKQYLBQKY-IRXDYDNUSA-N'
p2905
(lp2906
F76.700000000000003
aF196
aF414
aF545
asS'ZEWJTBVOMMZVAU-YDPTYEFTSA-N'
p2907
(lp2908
F26.699999999999999
aF54.899999999999999
aF69.200000000000003
asS'YLUZUCSDKWAKGR-RYICAFHUSA-N'
p2909
(lp2910
F1
aF1.3999999999999999
aF4.2000000000000002
asS'XCTDNJFYSVYEAC-WGXSSYHUSA-N'
p2911
(lp2912
F3
aF3.7000000000000002
aF4.7999999999999998
assS'4.4.1.1'
p2913
(dp2914
g264
(lp2915
F0.40000000000000002
aF0.67000000000000004
asS'ILRYLPWNYFXEMH-WHFBIAKZSA-N'
p2916
(lp2917
F1.8999999999999999
aF1.7
aF1.8999999999999999
aF7.5
asg252
(lp2918
F3.5
aF3.7000000000000002
assS'4.4.1.5'
p2919
(dp2920
S'JKRODHBGNBKZLE-YUMQZZPRSA-N'
p2921
(lp2922
F164
asS'NEDQLXHBVHSKNV-STQMWFEESA-N'
p2923
(lp2924
F83
asg258
(lp2925
F1360
asg322
(lp2926
F104
asS'AIJULSRZWUXGPQ-UHFFFAOYSA-N'
p2927
(lp2928
F1130
aF1130
asg588
(lp2929
F1070
aF1070
asS'MVNCPACIPXNJIW-IUCAKERBSA-N'
p2930
(lp2931
F222
assS'3.2.1.18'
p2932
(dp2933
sS'3.2.1.10'
p2934
(dp2935
sS'3.2.1.14'
p2936
(dp2937
S'GLFUTORXYSMPOK-WOIRZSRHSA-N'
p2938
(lp2939
F0.050000000000000003
assS'2.4.1.80'
p2940
(dp2941
sS'3.5.1.89'
p2942
(dp2943
sS'1.3.1.2'
p2944
(dp2945
sS'1.3.1.1'
p2946
(dp2947
sS'3.4.13.3'
p2948
(dp2949
sS'2.6.1.21'
p2950
(dp2951
sS'3.5.4.1'
p2952
(dp2953
sS'2.7.1.137'
p2954
(dp2955
sS'2.7.1.134'
p2956
(dp2957
sS'2.1.4.1'
p2958
(dp2959
sS'3.1.3.36'
p2960
(dp2961
sS'2.7.1.138'
p2962
(dp2963
sS'1.1.1.181'
p2964
(dp2965
sS'3.5.1.3'
p2966
(dp2967
sS'2.1.2.5'
p2968
(dp2969
sS'2.7.1.40'
p2970
(dp2971
sS'1.1.1.188'
p2972
(dp2973
S'AEMFNILZOJDQLW-QAGGRKNESA-N'
p2974
(lp2975
F0.0027000000000000001
asg136
(lp2976
F1.3999999999999999
assS'2.1.2.1'
p2977
(dp2978
g1256
(lp2979
F0.040000000000000001
asg1386
(lp2980
F9.5800000000000001
assS'2.1.2.2'
p2981
(dp2982
S'OBQMLSFOUZUIOB-SHUUEZRQSA-N'
p2983
(lp2984
F0.0033999999999999998
aF0.026200000000000001
aF0.066199999999999995
aF0.26200000000000001
aF0.29299999999999998
aF0.63
aF7.5
asS'QHUBQNFYSLRYQG-KRWDZBQOSA-N'
p2985
(lp2986
F0.0019
aF0.0058999999999999999
aF0.017999999999999999
aF0.031
aF0.042999999999999997
aF0.10199999999999999
assS'2.1.2.3'
p2987
(dp2988
sS'1.3.1.21'
p2989
(dp2990
sS'1.3.1.20'
p2991
(dp2992
S'BHQCQFFYRZLCQQ-OELDTZBJSA-N'
p2993
(lp2994
F0.23300000000000001
asS'MXUCIEHYJYRTLT-UHFFFAOYSA-N'
p2995
(lp2996
F0.125
aF0.41699999999999998
aF0.48999999999999999
aF0.58499999999999996
asg164
(lp2997
F0.086699999999999999
aF0.123
aF0.158
aF0.158
aF0.16300000000000001
aF0.16700000000000001
aF0.20799999999999999
asS'CBMYJHIOYJEBSB-GRYCMQMASA-N'
p2998
(lp2999
F0.108
asS'YDRSQRPHLBEPTP-PHDIDXHHSA-N'
p3000
(lp3001
F0.0117
aF0.014999999999999999
aF0.0183
aF0.031699999999999999
aF0.033300000000000003
aF0.048300000000000003
aF0.0533
asg1460
(lp3002
F0.0066699999999999997
aF0.0183
assS'6.2.1.7'
p3003
(dp3004
sS'1.3.1.24'
p3005
(dp3006
sS'1.3.1.27'
p3007
(dp3008
g2294
(lp3009
F1.1499999999999999
asg2288
(lp3010
F0.113
asg2290
(lp3011
F1.3300000000000001
asg2297
(lp3012
F0.16700000000000001
assS'6.2.1.3'
p3013
(dp3014
sS'6.3.2.5'
p3015
(dp3016
g1262
(lp3017
F0.53000000000000003
asg80
(lp3018
F0.56000000000000005
assS'1.13.99.1'
p3019
(dp3020
sS'1.1.1.184'
p3021
(dp3022
g2280
(lp3023
F3.4700000000000002
aF6.7000000000000002
asg96
(lp3024
F0.0103
aF0.29999999999999999
aF1.2
asg142
(lp3025
F0.32000000000000001
aF5.1299999999999999
asg1301
(lp3026
F0.0103
aF0.20999999999999999
asg110
(lp3027
F0.25
aF0.55000000000000004
asg641
(lp3028
F2.6200000000000001
asg1058
(lp3029
F179
asg150
(lp3030
F0.010999999999999999
aF0.28000000000000003
aF0.29999999999999999
aF0.68000000000000005
aF110
asg122
(lp3031
F0.17000000000000001
aF9.7699999999999996
asg136
(lp3032
F3.5699999999999998
aF5.25
aF6.7000000000000002
asS'XEYBRNLFEZDVAW-ARSRFYASSA-N'
p3033
(lp3034
F25
asS'STQGQHZAVUOBTE-VGBVRHCVSA-N'
p3035
(lp3036
F1.9399999999999999
aF91
assS'3.1.1.47'
p3037
(dp3038
S'PWTCCMJTPHCGMS-QFIPXVFZSA-N'
p3039
(lp3040
F0.25
aF3
asS'YLYBTZIQSIBWLI-UHFFFAOYSA-N'
p3041
(lp3042
F0.28000000000000003
aF0.68999999999999995
aF1.8999999999999999
aF6.0800000000000001
asS'KLLCFZPZFUTMGS-AREMUKBSSA-O'
p3043
(lp3044
F1.1000000000000001
aF8.0999999999999996
asS'URAYPUMNDPQOKB-UHFFFAOYSA-N'
p3045
(lp3046
F1.7
aF16.5
aF37
asS'ZXCIEWBDUAPBJF-UHFFFAOYSA-O'
p3047
(lp3048
F0.68000000000000005
aF4.7999999999999998
aF6.0800000000000001
asS'HVAUUPRFYPCOCA-AREMUKBSSA-O'
p3049
(lp3050
F0.34000000000000002
aF3.2000000000000002
aF24.600000000000001
assS'4.1.1.32'
p3051
(dp3052
sS'2.1.1.20'
p3053
(dp3054
g521
(lp3055
F1.6000000000000001
asg913
(lp3056
F1.6000000000000001
assS'4.1.1.30'
p3057
(dp3058
sS'4.1.1.37'
p3059
(dp3060
sS'4.1.1.36'
p3061
(dp3062
S'XQYALQVLCNHCFT-CBAPKCEASA-N'
p3063
(lp3064
F2.8999999999999999
assS'4.1.1.35'
p3065
(dp3066
sS'4.1.1.34'
p3067
(dp3068
sS'2.1.1.28'
p3069
(dp3070
S'ULSIYEODSMZIPX-UHFFFAOYSA-N'
p3071
(lp3072
F0.042999999999999997
aF0.044999999999999998
aF0.047
asS'QFRCSJBYSNCGPY-UHFFFAOYSA-N'
p3073
(lp3074
F0.0061999999999999998
asS'IIMSEFZOOYSTDO-VHSXEESVSA-N'
p3075
(lp3076
F0.0047999999999999996
asg521
(lp3077
F0.047300000000000002
asS'QHGUCRYDKWKLMG-UHFFFAOYSA-N'
p3078
(lp3079
F0.02
aF0.021000000000000001
asS'RRBRWAPWPGAJMA-UHFFFAOYSA-N'
p3080
(lp3081
F0.0080000000000000002
aF0.0083000000000000001
assS'3.1.3.46'
p3082
(dp3083
sS'3.1.3.41'
p3084
(dp3085
sS'1.2.1.4'
p3086
(dp3087
sS'1.13.11.11'
p3088
(dp3089
g439
(lp3090
F1.55
aF0.59999999999999998
aF1.3999999999999999
aF1.3999999999999999
aF2.1000000000000001
aF6.1200000000000001
asg2495
(lp3091
F0.065000000000000002
asg2497
(lp3092
F0.17999999999999999
asg907
(lp3093
F2.0699999999999998
aF0.20000000000000001
assS'2.4.1.148'
p3094
(dp3095
sS'3.2.2.5'
p3096
(dp3097
sS'2.8.3.5'
p3098
(dp3099
sS'1.13.11.19'
p3100
(dp3101
sS'3.5.3.1'
p3102
(dp3103
S'ODKSFYDXXFIFQN-BYPYZUCNSA-N'
p3104
(lp3105
F190
aF190
assS'3.1.1.3'
p3106
(dp3107
sS'5.5.1.4'
p3108
(dp3109
sS'4.3.1.4'
p3110
(dp3111
sS'5.2.1.2'
p3112
(dp3113
S'GACSIVHAIFQKTC-UPHRSURJSA-N'
p3114
(lp3115
F464
asg1355
(lp3116
F0.55000000000000004
aF0.58999999999999997
aF0.81999999999999995
aF1.3
assS'5.3.1.9'
p3117
(dp3118
g1571
(lp3119
F500
asS'BGWGXPAPYGQALX-VRPWFDPXSA-N'
p3120
(lp3121
F3330
assS'2.4.1.201'
p3122
(dp3123
sS'1.5.3.11'
p3124
(dp3125
sS'2.4.99.6'
p3126
(dp3127
sS'2.4.99.7'
p3128
(dp3129
sS'2.4.99.4'
p3130
(dp3131
sS'1.2.4.2'
p3132
(dp3133
sS'2.4.99.3'
p3134
(dp3135
sS'1.5.1.29'
p3136
(dp3137
sS'1.2.4.1'
p3138
(dp3139
g473
(lp3140
F0.076999999999999999
aF66.099999999999994
aF69.900000000000006
assS'2.4.99.8'
p3141
(dp3142
sS'1.5.1.20'
p3143
(dp3144
sS'1.3.3.3'
p3145
(dp3146
S'TYUUJNDMZMREDW-UHFFFAOYSA-N'
p3147
(lp3148
F6.0000000000000002e-06
asS'XZGOFAVRAJJBHF-UHFFFAOYSA-N'
p3149
(lp3150
F0.000165
asS'HINHRTVWFJENDG-UJJXFSCMSA-N'
p3151
(lp3152
F0.027
asS'POZPKGHGQULZAO-UHFFFAOYSA-N'
p3153
(lp3154
F0.01167
aF0.028299999999999999
aF0.042999999999999997
asS'HTOLCBBKGVOLFK-IUNJRDNESA-N'
p3155
(lp3156
F0.0063299999999999997
asS'BXZUJYPTQMCSAD-UHFFFAOYSA-N'
p3157
(lp3158
F0.0063
asS'WGFZINXENRCSBF-UHFFFAOYSA-N'
p3159
(lp3160
F0.0016999999999999999
asS'NIUVHXTXUXOFEB-UHFFFAOYSA-N'
p3161
(lp3162
F0.0033
aF0.0033
aF0.012500000000000001
aF0.016160000000000001
aF0.026700000000000002
aF0.044999999999999998
aF0.055
aF0.059999999999999998
aF0.059999999999999998
aF0.059999999999999998
aF1.8
aF16
asS'NJOHCPMVGKOWTE-UHFFFAOYSA-N'
p3163
(lp3164
F0.13170000000000001
asS'KRQBHRDDDQYZMF-UHFFFAOYSA-N'
p3165
(lp3166
F0.0089999999999999993
asS'UPVGACOTQJVOMR-UHFFFAOYSA-N'
p3167
(lp3168
F0.028299999999999999
asS'XDBLMRUKSLSFGO-UHFFFAOYSA-N'
p3169
(lp3170
F0.0063
assS'2.4.1.147'
p3171
(dp3172
sS'3.1.6.4'
p3173
(dp3174
sS'3.2.1.21'
p3175
(dp3176
sS'3.2.1.1'
p3177
(dp3178
S'FFFVUJZCDBUWRY-WUZXSGHDSA-N'
p3179
(lp3180
F283
aF285
asS'RDZZHXLYJSZTDQ-QUYVBRFLSA-N'
p3181
(lp3182
F443
asS'MPJMJSVSVMGORJ-PICCSMPSSA-N'
p3183
(lp3184
F150
asS'XRWPEPZTMTVFPI-UYDBUFRNSA-N'
p3185
(lp3186
F175
asS'KMYYNUOXSFGLNX-XFNLHOCBSA-N'
p3187
(lp3188
F2.98
aF1.8999999999999999
aF2
aF2.1000000000000001
aF2.2000000000000002
aF2.3999999999999999
aF3.5
aF4.4000000000000004
aF15.800000000000001
assS'2.4.1.1'
p3189
(dp3190
sS'3.2.1.3'
p3191
(dp3192
sS'4.2.1.4'
p3193
(dp3194
sS'4.2.1.2'
p3195
(dp3196
sS'4.2.1.3'
p3197
(dp3198
sS'4.2.1.1'
p3199
(dp3200
S'CURLTUGMZLYLDI-UHFFFAOYSA-N'
p3201
(lp3202
F0.00040000000000000002
aF800
aF13000
aF13000
aF18300
aF130000
aF150000
aF150000
aF150000
aF200000
aF1400000
aF1400000
asS'BVKZGUZCCUSVTD-UHFFFAOYSA-M'
p3203
(lp3204
F28700
aF29500
assS'1.1.1.50'
p3205
(dp3206
S'MUMGGOZAMZWBJJ-DYKIIFRCSA-N'
p3207
(lp3208
F0.075700000000000003
asS'AURFZBICLPNKBZ-SYBPFIFISA-N'
p3209
(lp3210
F0.00017000000000000001
asS'IBMZAHKIAAJREF-MZQZJKNOSA-N'
p3211
(lp3212
F0.0023
aF0.0025000000000000001
aF0.045999999999999999
aF0.073499999999999996
asS'SDQLXVZKRIGEKD-UHFFFAOYSA-N'
p3213
(lp3214
F0.0040000000000000001
aF0.0167
aF0.20300000000000001
aF0.32000000000000001
aF0.50700000000000001
asS'YLEUWNOTNJZCBN-CZTKNSHGSA-N'
p3215
(lp3216
F1.5999999999999999e-05
aF0.012
asS'YLEUWNOTNJZCBN-XAAPQAIWSA-N'
p3217
(lp3218
F1.5999999999999999e-05
aF0.00050000000000000001
aF0.0040000000000000001
aF0.016
asg800
(lp3219
F0.00017000000000000001
asg138
(lp3220
F0.0038
aF0.02
aF0.039800000000000002
aF0.096500000000000002
aF0.114
aF0.0167
asS'XQARIKRDYJHYTM-UHFFFAOYSA-N'
p3221
(lp3222
F0.14000000000000001
asS'XMRPGKVKISIQBV-BJMCWZGWSA-N'
p3223
(lp3224
F0.0030000000000000001
aF0.0040000000000000001
aF0.0080000000000000002
aF0.040000000000000001
asg1460
(lp3225
F0.0078300000000000002
aF0.13300000000000001
asg114
(lp3226
F1.0800000000000001
asg1058
(lp3227
F0.0030000000000000001
asg102
(lp3228
F0.0167
aF0.017999999999999999
aF0.050000000000000003
asS'RAJWOBJTTGJROA-RNQTWYFASA-N'
p3229
(lp3230
F1.8999999999999999
asg136
(lp3231
F18.899999999999999
assS'4.2.3.1'
p3232
(dp3233
sS'1.14.13.17'
p3234
(dp3235
S'UCTLRSWJYQTBFZ-DDPQNLDTSA-N'
p3236
(lp3237
F0.040000000000000001
asS'IZVFFXVYBHFIHY-SKCNUYALSA-N'
p3238
(lp3239
F0.059999999999999998
aF0.12
assS'2.6.1.22'
p3240
(dp3241
sS'1.14.13.15'
p3242
(dp3243
S'LINVVMHRTUSXHL-GGVPDPBRSA-N'
p3244
(lp3245
F0.072999999999999995
asS'NSBRSRMPFRZDDF-LTXUFZTJSA-N'
p3246
(lp3247
F0.0183
assS'6.3.4.1'
p3248
(dp3249
sS'6.3.4.3'
p3250
(dp3251
sS'4.99.1.1'
p3252
(dp3253
S'PTFCDOFLOPIGGS-UHFFFAOYSA-N'
p3254
(lp3255
F3.2000000000000002
aF3.5
asS'RKCAIXNGYQCCAL-CEVVSZFKSA-N'
p3256
(lp3257
F0.057299999999999997
asS'CWYNVVGOOAEACU-UHFFFAOYSA-N'
p3258
(lp3259
F0.017999999999999999
aF0.10000000000000001
assS'3.5.3.11'
p3260
(dp3261
S'QYPPJABKJHAVHS-UHFFFAOYSA-N'
p3262
(lp3263
F3
assS'1.1.1.204'
p3264
(dp3265
sS'1.1.1.205'
p3266
(dp3267
g1756
(lp3268
F0.023300000000000001
aF0.029999999999999999
aF0.17999999999999999
aF0.31
aF1.3999999999999999
aF1.47
aF1.8
asg152
(lp3269
F0.021700000000000001
aF0.025000000000000001
aF0.39000000000000001
assS'2.4.1.47'
p3270
(dp3271
sS'2.4.1.41'
p3272
(dp3273
S'RMOHKJTUZKUWFK-LQVRMVFCSA-N'
p3274
(lp3275
F0.067000000000000004
aF0.074999999999999997
aF0.10299999999999999
aF0.108
aF0.17000000000000001
aF0.28999999999999998
aF0.31
aF0.40000000000000002
asS'LKWXSPWZGSKEOP-LQVRMVFCSA-N'
p3276
(lp3277
F0.127
asS'CUMMJFMZAPUHSK-GFRUNGTMSA-N'
p3278
(lp3279
F0.040000000000000001
aF0.050000000000000003
aF0.051999999999999998
aF0.052999999999999999
aF0.123
aF0.193
asS'HRJMVSYHSVDIJI-LQVRMVFCSA-N'
p3280
(lp3281
F0.040000000000000001
aF0.058000000000000003
aF0.13700000000000001
aF0.14999999999999999
aF0.218
aF0.22
aF0.23999999999999999
aF0.33000000000000002
asS'GPFLHPRUUZLGFP-PPNNXVHVSA-N'
p3282
(lp3283
F0.52000000000000002
aF0.76000000000000001
aF1.3999999999999999
assS'2.3.1.88'
p3284
(dp3285
sS'1.2.1.32'
p3286
(dp3287
sS'3.2.1.113'
p3288
(dp3289
S'YCSLVHWAMHEXLV-IPSCQJQJSA-N'
p3290
(lp3291
F3.7000000000000002
asS'XKWOYMOGTLQCQM-ODUOZAIISA-N'
p3292
(lp3293
F3.7000000000000002
assS'2.3.1.86'
p3294
(dp3295
sS'2.3.1.87'
p3296
(dp3297
g943
(lp3298
F17.300000000000001
aF20.300000000000001
aF25.899999999999999
assS'2.3.1.85'
p3299
(dp3300
g2010
(lp3301
F2.7000000000000002
asg293
(lp3302
F2.7000000000000002
assS'1.2.1.27'
p3303
(dp3304
sS'1.2.1.24'
p3305
(dp3306
sS'3.2.1.51'
p3307
(dp3308
sS'3.2.1.50'
p3309
(dp3310
sS'3.2.1.52'
p3311
(dp3312
sS'3.6.1.45'
p3313
(dp3314
sS'3.6.1.43'
p3315
(dp3316
sS'1.2.1.29'
p3317
(dp3318
sS'2.4.1.117'
p3319
(dp3320
sS'2.4.1.119'
p3321
(dp3322
sS'1.14.13.67'
p3323
(dp3324
sS'2.3.1.39'
p3325
(dp3326
sS'2.3.1.38'
p3327
(dp3328
sS'2.3.1.37'
p3329
(dp3330
sS'1.14.11.8'
p3331
(dp3332
sS'4.2.1.74'
p3333
(dp3334
sS'4.2.1.75'
p3335
(dp3336
S'WDFJYRZCZIUBPR-UHFFFAOYSA-N'
p3337
(lp3338
F5.8300000000000001
aF30
aF890
assS'6.3.4.4'
p3339
(dp3340
sS'1.1.1.19'
p3341
(dp3342
sS'1.1.1.14'
p3343
(dp3344
sS'1.1.1.15'
p3345
(dp3346
sS'1.1.1.12'
p3347
(dp3348
sS'1.1.1.10'
p3349
(dp3350
S'RXKJFZQQPQGTFL-UHFFFAOYSA-N'
p3351
(lp3352
F0.23000000000000001
asg535
(lp3353
F0.52000000000000002
asS'UQPHVQVXLPRNCX-VKHMYHEASA-N'
p3354
(lp3355
F0.59999999999999998
asg1893
(lp3356
F0.52000000000000002
asS'ROWKJAVDOGWPAT-UHFFFAOYSA-N'
p3357
(lp3358
F0.65000000000000002
asS'UNXHWFMMPAWVPI-QWWZWVQMSA-N'
p3359
(lp3360
F0.47999999999999998
asg800
(lp3361
F0.65000000000000002
asg124
(lp3362
F3.7999999999999998
asS'YTBSYETUWUMLBZ-QWWZWVQMSA-N'
p3363
(lp3364
F0.81999999999999995
asS'YTBSYETUWUMLBZ-IMJSIDKUSA-N'
p3365
(lp3366
F0.52000000000000002
asg1058
(lp3367
F1.5
asg152
(lp3368
F1.5
asS'LQXVFWRQNMEDEE-PYHARJCCSA-N'
p3369
(lp3370
F0.65000000000000002
asg160
(lp3371
F1.5700000000000001
aF1.6000000000000001
asS'HEBKCHPVOIAQTA-SCDXWVJYSA-N'
p3372
(lp3373
F0.59999999999999998
asg88
(lp3374
F0.10000000000000001
asS'YTBSYETUWUMLBZ-IUYQGCFVSA-N'
p3375
(lp3376
F0.42999999999999999
assS'2.7.1.82'
p3377
(dp3378
S'HZAXFHJVJLSVMW-UHFFFAOYSA-N'
p3379
(lp3380
F0.00016000000000000001
assS'1.1.1.1'
p3381
(dp3382
S'KFZMGEQAYNKOFK-UHFFFAOYSA-N'
p3383
(lp3384
F0.75
asS'AMQJEAYHLZJPGS-UHFFFAOYSA-N'
p3385
(lp3386
F0.183
aF0.245
aF0.66700000000000004
aF8
aF16
asg98
(lp3387
F0.017999999999999999
aF0.55000000000000004
aF1.8300000000000001
asS'MBBOMCVGYCRMEA-UHFFFAOYSA-N'
p3388
(lp3389
F1.8300000000000001
asS'PDWIQYODPROSQH-PYHARJCCSA-N'
p3390
(lp3391
F2.8300000000000001
asS'PLILDISEFZJECC-ITCDGTHUSA-N'
p3392
(lp3393
F0.16700000000000001
aF7.8300000000000001
aF20
asg596
(lp3394
F0.68300000000000005
asg531
(lp3395
F3.3300000000000001
asg638
(lp3396
F2.9500000000000002
aF3.0299999999999998
aF4
aF0.33300000000000002
asS'ZENOXNGFMSCLLL-UHFFFAOYSA-N'
p3397
(lp3398
F0.46700000000000003
aF8.6699999999999999
asS'FPIPGXGPPPQFEQ-BOOMUCAASA-N'
p3399
(lp3400
F0.087999999999999995
aF2.5
asS'LFQSCWFLJHTTHZ-UHFFFAOYSA-N'
p3401
(lp3402
F0.69999999999999996
aF2.5
aF3.8300000000000001
aF4
aF7.8300000000000001
aF30.699999999999999
asS'OKKJLVBELUTLKV-UHFFFAOYSA-N'
p3403
(lp3404
F0.10199999999999999
asS'IOELQUUUYMBPSA-ITCDGTHUSA-N'
p3405
(lp3406
F0.091999999999999998
aF2.8300000000000001
aF34.200000000000003
asg2043
(lp3407
F0.028000000000000001
aF0.25
aF0.40000000000000002
aF0.90000000000000002
asS'VAJVDSVGBWFCLW-UHFFFAOYSA-N'
p3408
(lp3409
F7.5
asS'KBPLFHHGFOOTCA-UHFFFAOYSA-N'
p3410
(lp3411
F2.8300000000000001
aF4.3300000000000001
aF7.3300000000000001
aF8.3300000000000001
asS'BDERNNFJNOPAEC-UHFFFAOYSA-N'
p3412
(lp3413
F17.199999999999999
asS'UGAGPNKCDRTDHP-UHFFFAOYSA-N'
p3414
(lp3415
F6.1699999999999999
asS'HPXRVTGHNJAIIH-UHFFFAOYSA-N'
p3416
(lp3417
F0.58299999999999996
asg152
(lp3418
F0.71699999999999997
asS'LRHPLDYGYMQRHN-UHFFFAOYSA-N'
p3419
(lp3420
F0.69999999999999996
aF34.799999999999997
asS'NCYCYZXNIZJOKI-HWCYFHEPSA-N'
p3421
(lp3422
F0.22
aF1.22
asg600
(lp3423
F19.5
asS'LYCAIKOWRPUZTN-UHFFFAOYSA-N'
p3424
(lp3425
F0.75
asS'BTANRVKWQNVYAZ-BYPYZUCNSA-N'
p3426
(lp3427
F2.1699999999999999
asg549
(lp3428
F4.6699999999999999
aF9.1699999999999999
assS'1.1.1.2'
p3429
(dp3430
S'WRMNZCZEMHIOCP-UHFFFAOYSA-N'
p3431
(lp3432
F0.028299999999999999
asg3397
(lp3433
F0.14799999999999999
asS'DNIAPMSPPWPWGF-UHFFFAOYSA-N'
p3434
(lp3435
F0.043299999999999998
asS'PWMWNFMRSKOCEY-UHFFFAOYSA-N'
p3436
(lp3437
F0.080000000000000002
asS'PEDCQBHIVMGVHV-UHFFFAOYSA-N'
p3438
(lp3439
F0.028299999999999999
asg114
(lp3440
F9.5
asg549
(lp3441
F0.073300000000000004
assS'1.13.11.31'
p3442
(dp3443
g1713
(lp3444
F2.5
aF14
aF17.800000000000001
aF46
aF1.3999999999999999
aF20
asg1029
(lp3445
F13.1
assS'1.1.1.8'
p3446
(dp3447
sS'1.1.1.9'
p3448
(dp3449
sS'3.2.1.20'
p3450
(dp3451
sS'2.4.99.9'
p3452
(dp3453
sS'3.2.1.22'
p3454
(dp3455
sS'3.2.1.23'
p3456
(dp3457
sS'3.2.1.24'
p3458
(dp3459
sS'3.2.1.25'
p3460
(dp3461
sS'3.2.1.26'
p3462
(dp3463
sS'4.2.3.3'
p3464
(dp3465
sS'3.2.1.28'
p3466
(dp3467
sS'1.13.11.34'
p3468
(dp3469
sS'1.2.1.21'
p3470
(dp3471
sS'2.8.2.23'
p3472
(dp3473
sS'2.3.2.4'
p3474
(dp3475
sS'2.3.2.2'
p3476
(dp3477
S'TYMLOMAKGOJONV-UHFFFAOYSA-N'
p3478
(lp3479
F1150
ass.