(dp1
S'2.3.1.137'
p2
(dp3
sS'2.5.1.56'
p4
(dp5
sS'3.2.1.114'
p6
(dp7
S'3-O-alpha-D-mannopyranosyl-alpha-D-mannopyranose'
p8
(lp9
F4.6699999999999999
asS'4-nitrophenyl alpha-D-mannopyranoside'
p10
(lp11
F0.0025000000000000001
assS'3.2.1.45'
p12
(dp13
sS'2.3.1.65'
p14
(dp15
sS'2.7.1.11'
p16
(dp17
S'ATP'
p18
(lp19
F357
assS'3.2.1.49'
p20
(dp21
sS'2.7.1.15'
p22
(dp23
sS'2.7.1.17'
p24
(dp25
S'D-xylulose'
p26
(lp27
F35
assS'4.3.1.19'
p28
(dp29
sS'1.1.5.3'
p30
(dp31
sS'5.3.1.6'
p32
(dp33
sS'1.1.3.12'
p34
(dp35
sS'1.1.3.15'
p36
(dp37
S'glycolate'
p38
(lp39
F3.6000000000000001
aF4.0999999999999996
aF15.6
asS'L-Mandelate'
p40
(lp41
F0.11
asS'L-lactate'
p42
(lp43
F0.46000000000000002
asS'flavin'
p44
(lp45
F54.100000000000001
asS'glyoxylate'
p46
(lp47
F0.69999999999999996
aF0.82999999999999996
asS'2-oxo-octanoate'
p48
(lp49
F0.080000000000000002
assS'3.1.1.31'
p50
(dp51
sS'4.3.2.1'
p52
(dp53
S'argininosuccinate'
p54
(lp55
F3.2799999999999998
asS"N,N'-bis(tert-butoxycarbonyl)-5-[(3-aminopropyl)amino]pentan-1-ol"
p56
(lp57
F34.5
aF34.5
assS'4.3.2.2'
p58
(dp59
sS'3.4.21.59'
p60
(dp61
S'D-Val-Leu-Arg-p-nitroanilide'
p62
(lp63
F0.83299999999999996
aF7.0999999999999996
aF16.300000000000001
aF21.100000000000001
aF31
asS'Arg-Asn-Lys-5-amino-2-nitrobenzoylamide'
p64
(lp65
F159
asS'Ac-PRNK-AAC'
p66
(lp67
F0.96999999999999997
aF0.98999999999999999
asS'Ac-Pro-Ile-Arg-Asn-Lys-5-amino-2-nitrobenzoylamide'
p68
(lp69
F378
asS'Ala-Ala-Pro-Ile-Arg-Asn-Lys-5-amino-2-nitrobenzoylamide'
p70
(lp71
F187
asS'D-Phe-Pip-Arg-p-nitroanilide'
p72
(lp73
F24.100000000000001
aF27.100000000000001
aF51
aF59.5
asS'Glu-Gly-Arg-p-nitroanilide'
p74
(lp75
F9
aF60.600000000000001
aF183
asS'MeOCO-Nle-Gly-Arg-p-nitroanilide'
p76
(lp77
F15.199999999999999
aF22.899999999999999
aF30.5
aF2628
aF2630
asS'N-p-tosyl-Gly-Pro-Arg-p-nitroanilide'
p78
(lp79
F21
asS'Z-D-Arg-Gly-Arg-p-nitroanilide'
p80
(lp81
F1.8999999999999999
aF3
aF5.4000000000000004
aF10.300000000000001
asS'benzyloxycarbonyl-L-Ala-L-Leu-L-Lys 4-methylcoumarin 7-amide'
p82
(lp83
F1870
asS'Benzyloxycarbonyl-Gly-Pro-Arg 4-nitroanilide'
p84
(lp85
F551
aF553
asS'benzyloxycarbonyl-Arg 4-nitroanilide'
p86
(lp87
F5.3499999999999996
aF5.5199999999999996
asS'tosyl-Gly-Pro-Lys-p-nitroanilide'
p88
(lp89
F27.899999999999999
aF40
aF45.899999999999999
aF75.5
asS'D-Ile-Pro-Arg-4-nitroanilide'
p90
(lp91
F170
asS'Ac-PANK-AAC'
p92
(lp93
F1.1000000000000001
aF3.5
asS'D-Pro-Phe-Arg-p-nitroanilide'
p94
(lp95
F2.7999999999999998
aF5
aF5.2000000000000002
aF5.2999999999999998
asS'Bz-Arg-p-nitroanilide'
p96
(lp97
F0.029999999999999999
aF1.6599999999999999
aF2.5099999999999998
aF2.9399999999999999
aF3
aF6.5099999999999998
aF8.9000000000000004
asS'Benzyloxycarbonyl-Gly-Arg 4-trifluoromethylcoumarin 7-amide'
p98
(lp99
F104
aF107
asS'Benzyloxycarbonyl-Lys-Arg 4-trifluoromethylcoumarin 7-amide'
p100
(lp101
F45.700000000000003
asS'Ala-Pro-Ile-Arg-Asn-Lys-5-amino-2-nitrobenzoylamide'
p102
(lp103
F233
asS'Benzyloxycarbonyl-L-Ala-L-Arg-L-Arg 4-methylcoumarin 7-amide'
p104
(lp105
F2040
asS'Ile-Arg-Asn-Lys-5-amino-2-nitrobenzoylamide'
p106
(lp107
F199
asS'Pro-Ile-Arg-Asn-Lys-5-amino-2-nitrobenzoylamide'
p108
(lp109
F435
asS'Benzyloxycarbonyl-L-Ala-L-Lys-L-Lys 4-methylcoumarin 7-amide'
p110
(lp111
F1520
asS'Glu-Pro-Arg-p-nitroanilide'
p112
(lp113
F1.5
aF1.7
aF2.6000000000000001
aF56.399999999999999
aF56.899999999999999
asS'Benzyloxycarbonyl-L-Ala-L-Lys-L-Arg 4-methylcoumarin 7-amide'
p114
(lp115
F3290
asS'Ac-PRTK-AAC'
p116
(lp117
F0.98999999999999999
aF1.1000000000000001
asS'Ac-PRNR-AAC'
p118
(lp119
F3.7999999999999998
aF21.75
aF21.800000000000001
asS'Ac-Arg-Asn-Lys-5-amino-2-nitrobenzoylamide'
p120
(lp121
F141
asS'Ac-Ile-Arg-Asn-Lys-5-amino-2-nitrobenzoylamide'
p122
(lp123
F367
assS'3.4.2.1'
p124
(dp125
sS'1.13.11.42'
p126
(dp127
sS'2.4.1.38'
p128
(dp129
S'4-nitrophenyl beta-D-xylopyranoside'
p130
(lp131
F1.52
asS'UDP-glucose'
p132
(lp133
F0.02
asS'4-methylumbelliferyl beta-D-xylopyranoside'
p134
(lp135
F1.1299999999999999
asS'N-acetyl-beta-D-glucosaminyl-1,4-N-acetyl-beta-D-glucosamine'
p136
(lp137
F4.8200000000000003
asS'chitotriose'
p138
(lp139
F3.2999999999999998
aF4.8099999999999996
asS'UDP-xylose'
p140
(lp141
F0.01
asS'GlcNAcbeta1,2-Manalpha1,6 (GlcNAcbeta1,2-Manalpha1,3)Man'
p142
(lp143
F1.74
asS'GlcNAcbeta1,2-Manalpha1,3-Manbeta-OR'
p144
(lp145
F2.4700000000000002
asS'UDP-galactose'
p146
(lp147
F1.1399999999999999
asS'GlcNAcbeta1,2-Manalpha1,6-Manbeta-OR'
p148
(lp149
F1.8999999999999999
asS'GlcNAcbeta1,4-Manalpha1,3-Manbeta-OR'
p150
(lp151
F3.3500000000000001
asS'UDP-glucuronic acid'
p152
(lp153
F0.0030000000000000001
asS'N-acetyl-beta-D-glucosamine'
p154
(lp155
F3.6000000000000001
asS'UDP-N-acetyl-beta-D-glucosamine'
p156
(lp157
F0.0030000000000000001
assS'3.1.4.48'
p158
(dp159
sS'6.3.4.1'
p160
(dp161
sS'1.17.4.1'
p162
(dp163
sS'3.1.4.46'
p164
(dp165
sS'1.16.3.1'
p166
(dp167
sS'4.2.3.12'
p168
(dp169
S'6-(L-erythro-1,2-dihydroxypropyl 3-triphosphate)-7,8-dihydropterin'
p170
(lp171
F0.032000000000000001
assS'3.4.24.15'
p172
(dp173
S'Abz-GFSWFRQ-EDDnp'
p174
(lp175
F6
asS'Abz-GFSAFRQ-EDDnp'
p176
(lp177
F11.1
asS'Abz-GFSSFRQ-EDDnp'
p178
(lp179
F9.1999999999999993
asS'Abz-GFSPQRQ-EDDnp'
p180
(lp181
F0.69999999999999996
asS'Abz-GFSHFRQ-EDDnp'
p182
(lp183
F13.300000000000001
asS'Abz-GFSIFRQ-EDDnp'
p184
(lp185
F0.19
asS'Abz-GFSQFRQ-EDDnp'
p186
(lp187
F7
asS'Abz-GFSRFRQ-EDDnp'
p188
(lp189
F9.0999999999999996
asS'Abz-GFSPIRQ-EDDnp'
p190
(lp191
F0.040000000000000001
asS'Abz-GFSPFRQ-EDDnp'
p192
(lp193
F2.8999999999999999
asS'Abz-GFSPSRQ-EDDnp'
p194
(lp195
F0.40000000000000002
asS'Abz-GFSPERQ-EDDnp'
p196
(lp197
F0.01
asS'Abz-GFSPRRQ-EDDnp'
p198
(lp199
F4.5
asS'Abz-GFSFFRQ-EDDnp'
p200
(lp201
F5.9000000000000004
asS'Abz-GFSPLRQ-EDDnp'
p202
(lp203
F0.02
asS'Abz-GFSPARQ-EDDnp'
p204
(lp205
F1.7
asS'Abz-GFSPHRQ-EDDnp'
p206
(lp207
F0.29999999999999999
asS'Abz-GFSEFRQ-EDDnp'
p208
(lp209
F1.6000000000000001
asS'Abz-GFSDFRQ-EDDnp'
p210
(lp211
F0.29999999999999999
asS'Abz-GFSPDRQ-EDDnp'
p212
(lp213
F0.029999999999999999
assS'2.8.1.2'
p214
(dp215
S'glutathione'
p216
(lp217
F0.29999999999999999
asS'L-homocysteine'
p218
(lp219
F0.80000000000000004
asS'2-mercaptoethanol'
p220
(lp221
F229
asS'dithiothreitol'
p222
(lp223
F6.0999999999999996
asS'L-cysteine'
p224
(lp225
F1.1000000000000001
asS'cyanide'
p226
(lp227
F2.3999999999999999
asS'Dihydrolipoic acid'
p228
(lp229
F1.7
asS'thioredoxin'
p230
(lp231
F1.3
assS'2.8.1.1'
p232
(dp233
sS'3.6.3.14'
p234
(dp235
sS'2.3.1.42'
p236
(dp237
sS'2.3.1.43'
p238
(dp239
sS'3.6.3.10'
p240
(dp241
sS'5.1.1.1'
p242
(dp243
sS'2.7.1.25'
p244
(dp245
S'adenylyl sulfate'
p246
(lp247
F0.36399999999999999
asS'ATP'
p248
(lp249
F1.7
aF2.2999999999999998
aF4.4000000000000004
assS'2.4.1.83'
p250
(dp251
sS'2.7.8.2'
p252
(dp253
sS'6.3.2.17'
p254
(dp255
S'5,6,7,8-tetrahydropteroyl-Glu2'
p256
(lp257
F0.81000000000000005
asS'7,8-dihydropteroyl-Glu2'
p258
(lp259
F0.94999999999999996
asS'pteroyl-Glu2'
p260
(lp261
F0.81999999999999995
asS'pteroyl-Glu3'
p262
(lp263
F0.55000000000000004
asS'pteroyl-Glu4'
p264
(lp265
F0.34000000000000002
asS'pteroyl-Glu5'
p266
(lp267
F0.01
asS'aminopterin'
p268
(lp269
F1.1699999999999999
asS'7,8-dihydropteroyl-Glu'
p270
(lp271
F0.83999999999999997
asS'pteroyl-Glu'
p272
(lp273
F0.65000000000000002
asS'5,6,7,8-tetrahydropteroyl-Glu'
p274
(lp275
F0.98999999999999999
assS'2.7.8.7'
p276
(dp277
S'Mg2+'
p278
(lp279
F0.23999999999999999
asS'acetyl-CoA'
p280
(lp281
F0.23999999999999999
assS'2.7.8.8'
p282
(dp283
sS'2.4.1.155'
p284
(dp285
sS'2.4.1.152'
p286
(dp287
S'Fucalpha(1,2)Galbeta(1,4)GlcNAc'
p288
(lp289
F1.7
assS'2.4.1.150'
p290
(dp291
sS'1.8.1.4'
p292
(dp293
S'NAD+'
p294
(lp295
F574
asS'Lipoamide'
p296
(lp297
F519
aF649
asS'NADH'
p298
(lp299
F340
asS'Dihydrolipoamide'
p300
(lp301
F505
aF505
aF567
aF899
assS'1.8.1.7'
p302
(dp303
S'(Z)-ajoene'
p304
(lp305
F2.6000000000000001
asS'trypanothione'
p306
(lp307
F0.16
asS'6-methylquinoline-5,8-dione'
p308
(lp309
F0.34999999999999998
asS'GSSG'
p310
(lp311
F210
aF210
aF210
aF210
asS'(E)-ajoene'
p312
(lp313
F0.34000000000000002
aF1.47
asS'7-methylquinoline-5,8-dione'
p314
(lp315
F0.13
asS'1,4-Naphthoquinone'
p316
(lp317
F1.0800000000000001
asS'menadione'
p318
(lp319
F0.16
asS'diallyl trisulfide'
p320
(lp321
F0.16
asS'glutathione disulfide'
p322
(lp323
F48.299999999999997
aF165
asS'quinoline-5,8-dione'
p324
(lp325
F2.23
asS'quinoxaline-5,8-dione'
p326
(lp327
F0.34000000000000002
asS'6,7-dimethylquinoline-5,8-dione'
p328
(lp329
F0.11
assS'2.4.1.80'
p330
(dp331
sS'1.8.1.3'
p332
(dp333
sS'2.7.7.18'
p334
(dp335
sS'3.6.1.28'
p336
(dp337
S'thiamine triphosphate'
p338
(lp339
F140
aF240
asS'ATP'
p340
(lp341
F0.23999999999999999
assS'2.7.7.15'
p342
(dp343
sS'2.7.7.14'
p344
(dp345
sS'1.8.1.9'
p346
(dp347
S'Lipoamide'
p348
(lp349
F1.6000000000000001
aF3.2999999999999998
asS'thioredoxin'
p350
(lp351
F0.016
aF5.5800000000000001
aF8.0999999999999996
aF25.780000000000001
aF27.399999999999999
aF46.57
asS'rat thioredoxin'
p352
(lp353
F1.8300000000000001
asS"5,5'-dithiobis(2-nitrobenzoic acid)"
p354
(lp355
F0.55000000000000004
aF8.2799999999999994
aF18.73
aF30.02
aF33.329999999999998
asS'DTNB'
p356
(lp357
F29.5
asS'methylseleninate'
p358
(lp359
F23
asS'lipoic acid'
p360
(lp361
F1.8
assS'2.7.7.12'
p362
(dp363
sS'2.4.1.1'
p364
(dp365
sS'1.4.3.14'
p366
(dp367
sS'2.7.9.3'
p368
(dp369
sS'1.8.3.1'
p370
(dp371
S'cytochrome c'
p372
(lp373
F18.100000000000001
asS'sulfite'
p374
(lp375
F12.1
aF17.199999999999999
aF24.199999999999999
aF24.199999999999999
aF24.199999999999999
aF24.699999999999999
aF24.699999999999999
aF25
aF25.899999999999999
aF25.899999999999999
aF25.899999999999999
aF26.899999999999999
aF27
assS'3.6.1.17'
p376
(dp377
sS'2.1.3.85'
p378
(dp379
sS'3.4.24.16'
p380
(dp381
sS'5.3.3.9'
p382
(dp383
sS'5.3.3.1'
p384
(dp385
S'5-androstene-3,17-dione'
p386
(lp387
F0.55700000000000005
aF0.82999999999999996
aF6.0800000000000001
aF13.6
asS'dehydroepiandrosterone'
p388
(lp389
F3012
aF4890
assS'5.3.3.2'
p390
(dp391
sS'4.4.1.22'
p392
(dp393
sS'4.4.1.20'
p394
(dp395
S'leukotriene A4'
p396
(lp397
F11.699999999999999
asS'glutathione'
p398
(lp399
F2.1099999999999999
aF2.2200000000000002
asS'leukotriene A4 methyl ester'
p400
(lp401
F1.6899999999999999
aF1.97
assS'2.7.1.48'
p402
(dp403
S'cytidine'
p404
(lp405
F3.2000000000000002
assS'3.1.2.12'
p406
(dp407
sS'3.1.3.29'
p408
(dp409
sS'2.1.1.43'
p410
(dp411
sS'2.1.1.45'
p412
(dp413
S'5,10-methylenetetrahydrofolate'
p414
(lp415
F48
asS'dUMP'
p416
(lp417
F3.1099999999999999
aF48
asS'deoxyuridine phosphate'
p418
(lp419
F4.1699999999999999
assS'2.1.1.49'
p420
(dp421
sS'2.6.1.6'
p422
(dp423
sS'2.6.1.7'
p424
(dp425
S'L-leucine'
p426
(lp427
F339
asS'2-oxobutanoate'
p428
(lp429
F234
asS'4-methyl-2-oxopentanoate'
p430
(lp431
F2.5099999999999998
asS'L-methionine'
p432
(lp433
F215
asS'phenylpyruvate'
p434
(lp435
F4.7300000000000004
aF110
asS'2-oxobutyrate'
p436
(lp437
F3.4900000000000002
asS'L-tryptophan'
p438
(lp439
F43.100000000000001
asS'2-oxovalerate'
p440
(lp441
F2.6600000000000001
asS'3-methyl-2-oxopentanoate'
p442
(lp443
F0.92000000000000004
asS'2-oxocaproate'
p444
(lp445
F4.8300000000000001
asS'L-kynurenine'
p446
(lp447
F1.8
aF2.2000000000000002
aF9.7599999999999998
aF201
asS'2-oxoglutarate'
p448
(lp449
F7.6699999999999999
asS'L-asparagine'
p450
(lp451
F14.4
asS'indo-3-pyruvate'
p452
(lp453
F1.49
asS'glyoxylate'
p454
(lp455
F3.6400000000000001
aF263
asS'hydroxyphenylpyruvate'
p456
(lp457
F0.39000000000000001
asS'L-histidine'
p458
(lp459
F143
asS'Mercaptopyruvate'
p460
(lp461
F3.5899999999999999
aF234
asS'pyruvate'
p462
(lp463
F0.35999999999999999
aF29
asS'L-phenylalanine'
p464
(lp465
F91
asS'2-oxoisocaproate'
p466
(lp467
F296
asS'L-cysteine'
p468
(lp469
F9.5999999999999996
asS'2-oxo-4-methylthiobutyrate'
p470
(lp471
F4.2699999999999996
asS'oxaloacetate'
p472
(lp473
F0.065000000000000002
aF143
asS'2-aminobutanoate'
p474
(lp475
F38.299999999999997
asS'2-oxoadipate'
p476
(lp477
F4.8399999999999999
asS'L-tyrosine'
p478
(lp479
F91
asS'L-glutamine'
p480
(lp481
F440
asS'3-methyl-2-oxobutanoate'
p482
(lp483
F0.92000000000000004
assS'2.4.1.86'
p484
(dp485
sS'2.6.1.1'
p486
(dp487
sS'2.6.1.2'
p488
(dp489
sS'2.6.1.3'
p490
(dp491
sS'1.1.1.197'
p492
(dp493
sS'2.7.1.59'
p494
(dp495
S'N-acetyl-D-glucosamine'
p496
(lp497
F0.032500000000000001
assS'6.2.1.16'
p498
(dp499
sS'6.2.1.17'
p500
(dp501
sS'6.2.1.12'
p502
(dp503
sS'6.2.1.13'
p504
(dp505
sS'2.7.1.52'
p506
(dp507
sS'5.3.99.2'
p508
(dp509
S'prostaglandin H2'
p510
(lp511
F2.6400000000000001
assS'5.3.99.3'
p512
(dp513
S'prostaglandin G2'
p514
(lp515
F75
asS'glutathione'
p516
(lp517
F21
asS'prostaglandin H2'
p518
(lp519
F50
asS'(5Z,13E)-(15S)-9alpha,11alpha-epidioxy-15-hydroxyprosta-5,13-dienoate'
p520
(lp521
F7
aF50
asS'prostaglandine G2'
p522
(lp523
F75
assS'3.1.3.1'
p524
(dp525
S'diphosphate'
p526
(lp527
F244
asS"pyridoxal 5'-phosphate"
p528
(lp529
F92
assS'2.7.1.47'
p530
(dp531
sS'1.5.99.8'
p532
(dp533
sS'2.1.1.37'
p534
(dp535
S'poly-(dI-dC)/poly(dI-dC)'
p536
(lp537
F0.058000000000000003
asS'(CGG*CCG)73'
p538
(lp539
F0.00055000000000000003
asS'pRW3602, supercoiled'
p540
(lp541
F0.0027799999999999999
asS'S-adenosyl-L-methionine'
p542
(lp543
F0.058000000000000003
asS'pRW3602, relaxed circular'
p544
(lp545
F0.00055000000000000003
asS'pRW3602, linear'
p546
(lp547
F0.00167
asS'(CGG*CGG)12'
p548
(lp549
F0.0030500000000000002
asS'poly(dI-dC)poly(dI-dC)'
p550
(lp551
F0.0511
asS'poly(dI-dC)*poly(dI-dC)'
p552
(lp553
F0.14499999999999999
assS'1.1.1.59'
p554
(dp555
sS'1.5.99.2'
p556
(dp557
sS'6.2.1.24'
p558
(dp559
sS'1.1.1.21'
p560
(dp561
S'5-Pregnene-3beta,20alpha-diol'
p562
(lp563
F0.0060000000000000001
asS'Glyoxal'
p564
(lp565
F1.1200000000000001
asS'1-Dodecanal'
p566
(lp567
F1.25
asS'1-octanal'
p568
(lp569
F1.3700000000000001
asS'1-hexanal'
p570
(lp571
F2.3700000000000001
asS'1-nonanal'
p572
(lp573
F1.3799999999999999
asS'trans-2-decen-1-al'
p574
(lp575
F1.8300000000000001
asS'2,3-Hexanedione'
p576
(lp577
F1.3200000000000001
asS'DL-glyceraldehyde'
p578
(lp579
F0.43099999999999999
asS'isocaproaldehyde'
p580
(lp581
F1.4299999999999999
asS'1-nonanol'
p582
(lp583
F0.065000000000000002
asS'Phenylglyoxal'
p584
(lp585
F0.76000000000000001
asS'1-Hexanol'
p586
(lp587
F0.158
asS'D-glucuronate'
p588
(lp589
F2.2999999999999998
asS'Pyridine-3-methanol'
p590
(lp591
F0.042000000000000003
asS'geranylgeraniol'
p592
(lp593
F0.078
aF0.16500000000000001
asS'D-lactoaldehyde'
p594
(lp595
F1.8700000000000001
asS'trans-2-nonen-1-al'
p596
(lp597
F1.3400000000000001
asS'1-Tetradecanol'
p598
(lp599
F0.017000000000000001
asS'21-Dehydrocortisol'
p600
(lp601
F0.47999999999999998
asS'D-galactose'
p602
(lp603
F0.23300000000000001
asS'benzaldehyde'
p604
(lp605
F1.73
asS'trans,trans-Farnesol'
p606
(lp607
F0.155
aF0.5
asS'trans-2-hexen-1-al'
p608
(lp609
F0.81999999999999995
asS'1-butanal'
p610
(lp611
F1.3
asS'3-deoxyglucosone'
p612
(lp613
F0.75
asS'1-Decanol'
p614
(lp615
F0.050000000000000003
asS'benzyl alcohol'
p616
(lp617
F0.16700000000000001
asS'D-glyceraldehyde'
p618
(lp619
F0.55000000000000004
asS'nerol'
p620
(lp621
F0.11700000000000001
asS'1-heptanal'
p622
(lp623
F2
asS'5alpha-pregnane-3beta,20alpha-diol'
p624
(lp625
F0.012
asS'20alpha-Isocorticosterone'
p626
(lp627
F0.64000000000000001
asS'glycolaldehyde'
p628
(lp629
F0.57999999999999996
asS'geraniol'
p630
(lp631
F0.56699999999999995
asS'D-xylose'
p632
(lp633
F1.7
asS'isatin'
p634
(lp635
F1.1200000000000001
asS'5alpha-pregnan-20alpha-ol-3-one'
p636
(lp637
F0.0080000000000000002
asS'trans-2-buten-1-al'
p638
(lp639
F0.78000000000000003
asS'Pyridine-3-aldehyde'
p640
(lp641
F2.5
asS'D-glucose'
p642
(lp643
F0.183
asS'20alpha-hydroxyprogesterone'
p644
(lp645
F0.0040000000000000001
assS'1.5.99.6'
p646
(dp647
sS'2.3.1.168'
p648
(dp649
sS'6.2.1.4'
p650
(dp651
sS'1.2.7.2'
p652
(dp653
sS'4.2.1.96'
p654
(dp655
S'(6R)-6-(L-erythro-1,2-dihydroxypropyl)-5,6,7,8-tetrahydro-4a-hydroxypterin'
p656
(lp657
F23
aF24
assS'6.2.1.5'
p658
(dp659
sS'5.3.99.5'
p660
(dp661
S'prostaglandin H2'
p662
(lp663
F26.699999999999999
aF27.100000000000001
asS'Prostaglandin H3'
p664
(lp665
F20.399999999999999
aF59.399999999999999
asS'prostaglandin G2'
p666
(lp667
F28.199999999999999
assS'4.1.1.40'
p668
(dp669
sS'1.1.1.284'
p670
(dp671
S'NAD+'
p672
(lp673
F0.217
aF1.04
aF2.5
asS'NADH'
p674
(lp675
F34.5
asS'12-Hydroxydodecanoic acid'
p676
(lp677
F0.217
asS'S-hydroxymethyl glutathione'
p678
(lp679
F1.04
aF3.3300000000000001
asS'S-hydroxymethylglutathione'
p680
(lp681
F2.5
aF2.5
asS'S-nitrosoglutathione'
p682
(lp683
F7.5
aF20
aF20
aF29.300000000000001
aF72000
assS'6.2.1.1'
p684
(dp685
sS'2.7.1.28'
p686
(dp687
sS'3.5.1.15'
p688
(dp689
S'N-acetylaspartate'
p690
(lp691
F37.5
assS'6.2.1.2'
p692
(dp693
sS'4.1.2.4'
p694
(dp695
sS'2.7.1.20'
p696
(dp697
S'adenosine'
p698
(lp699
F0.5
assS'2.7.1.21'
p700
(dp701
S"3'-azido-3'-deoxythymidine"
p702
(lp703
F3.5
asS'3-[1(2)-propyltetrazol-5-yl]thymidine'
p704
(lp705
F0.34000000000000002
asS'3-[1(2)-closo-1,7-carboranylbutyltetrazol-5-ylmethyl]thymidine'
p706
(lp707
F0.46999999999999997
asS'thymidine'
p708
(lp709
F0.46000000000000002
aF9.5
asS'3-[1(2)-closo-1,7-carboranylpropyltetrazol-5-ylmethyl]thymidine'
p710
(lp711
F0.39000000000000001
asS'3-[1(2)-closo-1,7-carboranylethyltetrazol-5-ylmethyl]thymidine'
p712
(lp713
F0.44
asS'3-[1(2)-closo-1,7-carboranylethyltetrazol-5-yl]thymidine'
p714
(lp715
F0.34999999999999998
asS'3-[1(2)-closo-1,7-carboranylpropyltetrazol-5-yl]thymidine'
p716
(lp717
F0.37
asS'3-[1(2)-closo-1,7-carboranylbutyltetrazol-5-yl]thymidine'
p718
(lp719
F0.32000000000000001
asS'3-[1(2)-propyltetrazol-5-ylmethyl]thymidine'
p720
(lp721
F0.45000000000000001
assS'2.7.1.22'
p722
(dp723
sS'2.7.1.24'
p724
(dp725
sS'1.7.1.7'
p726
(dp727
sS'1.5.1.12'
p728
(dp729
sS'1.5.1.10'
p730
(dp731
sS'3.1.2.14'
p732
(dp733
sS'3.1.2.17'
p734
(dp735
sS'2.7.1.127'
p736
(dp737
sS'2.7.4.8'
p738
(dp739
sS'2.7.4.9'
p740
(dp741
S"3'-fluoro-3'-deoxythymidine 5'-monophosphate"
p742
(lp743
F0.029999999999999999
asS'TMP'
p744
(lp745
F0.40000000000000002
asS'dTMP'
p746
(lp747
F0.72999999999999998
aF0.76000000000000001
aF3
asS"2',3'-didehydro-2',3'-dideoxythymidine 5'-monophosphate"
p748
(lp749
F0.089999999999999997
asS'N1-[(E)-5-dihydroxyphosphonyl-pent-2-enyl]-5-fluorouracil'
p750
(lp751
F0.089999999999999997
asS'N1-[(E)-5-dihydroxyphosphonyl-pent-2-enyl]-uracil'
p752
(lp753
F0.073999999999999996
asS'N1-[(E)-4-dihydroxyphosphonyl-but-2-enyl]-thymine'
p754
(lp755
F0.83999999999999997
asS'N1-[(E)-3-dihydroxyphosphonyl-prop-2-enyl]-thymine'
p756
(lp757
F0.59999999999999998
asS'N1-[(E)-5-dihydroxyphosphonyl-pent-2-enyl]-thymine'
p758
(lp759
F0.32000000000000001
asS"3'-azido-3'-deoxythymidine 5'-monophosphate"
p760
(lp761
F0.0030000000000000001
aF0.01
aF0.012
asS'N1-[(E)-4-dihydroxyphosphonyl-but-2-enyl]-5-chlorouracil'
p762
(lp763
F0.5
aF0.90000000000000002
asS'ddTMP'
p764
(lp765
F0.029999999999999999
asS'N1-[(E)-4-dihydroxyphosphonyl-but-2-enyl]-5-fluorouracil'
p766
(lp767
F0.72999999999999998
asS'N1-[(E)-4-dihydroxyphosphonyl-but-2-enyl]-uracil'
p768
(lp769
F0.47999999999999998
asS"3'-amino-3'-deoxythymidine 5'-monophosphate"
p770
(lp771
F0.14000000000000001
asS'dUMP'
p772
(lp773
F4.7999999999999998
asS'5-bromo-dUMP'
p774
(lp775
F1.2
asS'N1-[(E)-5-dihydroxyphosphonyl-pent-2-enyl]-5-bromouracil'
p776
(lp777
F0.058000000000000003
asS'N1-[(E)-5-dihydroxyphosphonyl-pent-2-enyl]-5-chlorouracil'
p778
(lp779
F0.10000000000000001
assS'2.7.4.6'
p780
(dp781
sS'2.7.4.2'
p782
(dp783
sS'2.7.4.3'
p784
(dp785
S'AMP'
p786
(lp787
F842
aF842.29999999999995
asS'ADP'
p788
(lp789
F783
asS'ATP'
p790
(lp791
F0.0063
aF152
aF683
aF879
aF879.5
assS'3.5.4.3'
p792
(dp793
sS'1.4.1.3'
p794
(dp795
S'2-oxoglutarate'
p796
(lp797
F104
aF104
aF130
aF130
asS'NADH'
p798
(lp799
F104
aF104
aF104
aF104
aF104
aF130
aF130
aF130
aF130
assS'1.4.1.4'
p800
(dp801
sS'2.7.6.2'
p802
(dp803
S'thiamine'
p804
(lp805
F0.069000000000000006
asS'ATP'
p806
(lp807
F0.069000000000000006
assS'1.3.1.70'
p808
(dp809
sS'2.6.1.16'
p810
(dp811
sS'4.1.1.33'
p812
(dp813
S'5-diphosphomevalonate'
p814
(lp815
F4.5
assS'3.1.4.11'
p816
(dp817
sS'2.6.1.15'
p818
(dp819
sS'3.1.4.17'
p820
(dp821
S"3',5'-cGMP"
p822
(lp823
F4.2000000000000002
asS"3',5'-cAMP"
p824
(lp825
F0.29999999999999999
aF0.47999999999999998
aF0.5
aF0.52000000000000002
assS'2.6.1.13'
p826
(dp827
sS'3.1.4.14'
p828
(dp829
sS'1.2.3.5'
p830
(dp831
sS'1.2.3.1'
p832
(dp833
sS'3.5.4.6'
p834
(dp835
sS'1.1.1.271'
p836
(dp837
sS'1.1.1.270'
p838
(dp839
S'17beta-hydroxy-5alpha-androstan-3-one'
p840
(lp841
F0.0030000000000000001
aF0.049299999999999997
aF0.051999999999999998
assS'1.2.1.8'
p842
(dp843
sS'1.2.1.5'
p844
(dp845
S'NAD+'
p846
(lp847
F7.7000000000000002
aF45.299999999999997
asS'trans-2-hexenal'
p848
(lp849
F53
asS'NADP+'
p850
(lp851
F38.799999999999997
asS'Chloroacetaldehyde'
p852
(lp853
F7.7000000000000002
asS'Hexanal'
p854
(lp855
F34
asS'acetaldehyde'
p856
(lp857
F35.899999999999999
asS'benzaldehyde'
p858
(lp859
F51
assS'2.4.1.79'
p860
(dp861
sS'1.2.1.3'
p862
(dp863
S'2-quinolinone-4-carboxaldehyde'
p864
(lp865
F1.5700000000000001
asS'o-nitrobenzaldehyde'
p866
(lp867
F1.23
asS'm-methoxybenzaldehyde'
p868
(lp869
F5.8300000000000001
asS'4-methoxy-1-naphthaldehyde'
p870
(lp871
F4.4199999999999999
asS'glutathione-4-oxonon-2-enal'
p872
(lp873
F0.040000000000000001
asS'7-(dimethylamino)coumarin-4-carboxaldehyde'
p874
(lp875
F7.9000000000000004
asS'Indole-3-acetaldehyde'
p876
(lp877
F9.3300000000000001
aF11.300000000000001
asS'p-methylbenzaldehyde'
p878
(lp879
F3
asS'p-nitrocinnamaldehyde'
p880
(lp881
F0.45000000000000001
asS'm-hydroxybenzaldehyde'
p882
(lp883
F1
asS'quinoline-3-carboxaldehyde'
p884
(lp885
F11.199999999999999
asS'phenanthrene-9-carboxaldehyde'
p886
(lp887
F0.29999999999999999
asS'5-(dimethylamino)-2-naphthaldehyde'
p888
(lp889
F2.6699999999999999
asS'o-methoxybenzaldehyde'
p890
(lp891
F0.36699999999999999
asS'6-methoxy-2-quinolinone-4-carboxaldehyde'
p892
(lp893
F0.98299999999999998
asS'p-(dimethylamino)-benzaldehyde'
p894
(lp895
F2.3300000000000001
asS'trans-cinnamaldehyde'
p896
(lp897
F2.5
aF7.8300000000000001
asS'7-methoxycoumarin-3-carboxaldehyde'
p898
(lp899
F3.1699999999999999
asS'7-(dimethylamino)-coumarin-3-carboxaldehyde'
p900
(lp901
F1.3
asS'3-Pyridinecarboxaldehyde'
p902
(lp903
F27.699999999999999
asS'2,4-dinitrobenzaldehyde'
p904
(lp905
F0.66700000000000004
asS'5-bromo-1-naphthaldehyde'
p906
(lp907
F0.158
aF0.25
asS'hydrocinnamaldehyde'
p908
(lp909
F12.300000000000001
asS'6,7-dimethoxycoumarin-3-carboxaldehyde'
p910
(lp911
F0.98299999999999998
asS'benzaldehyde'
p912
(lp913
F5.8300000000000001
asS'p-(dimethylamino)benzaldehyde'
p914
(lp915
F2.1299999999999999
asS'propanal'
p916
(lp917
F0.41999999999999998
aF0.65000000000000002
aF1.3300000000000001
aF1.48
aF3.1600000000000001
aF6.1600000000000001
aF19.699999999999999
asS'phenylacetaldehyde'
p918
(lp919
F30
aF50
asS'o-methylbenzaldehyde'
p920
(lp921
F2.75
asS'p-Methoxybenzaldehyde'
p922
(lp923
F2.5
asS'm-methylbenzaldehyde'
p924
(lp925
F4.5
asS'formaldehyde'
p926
(lp927
F67.5
asS'2-naphthaldehyde'
p928
(lp929
F4
asS'6-(dimethylamino)-2-naphthaldehyde'
p930
(lp931
F0.61699999999999999
asS'7-methoxy-2-quinolinone-4-carboxaldehyde'
p932
(lp933
F5.3300000000000001
asS'p-(dimethylamino)cinnamaldehyde'
p934
(lp935
F1.5
aF8.1699999999999999
asS'7-hydroxycoumarin-3-carboxaldehyde'
p936
(lp937
F8.3300000000000001
asS'alpha-phenylpropanal'
p938
(lp939
F15.199999999999999
asS'3,4-dimethoxybenzaldehyde'
p940
(lp941
F1.4199999999999999
asS'NAD+'
p942
(lp943
F3.5
asS'p-nitrobenzaldehyde'
p944
(lp945
F7.1699999999999999
asS'7-acetoxycoumarin-3-carboxaldehyde'
p946
(lp947
F1.0800000000000001
asS'fluorene-2-carboxaldehyde'
p948
(lp949
F2.8300000000000001
aF6
asS'7-(dimethylamino)-2-quinolinone-4-carboxaldehyde'
p950
(lp951
F2.1699999999999999
asS'quinoline-4-carboxaldehyde'
p952
(lp953
F4.6699999999999999
asS'5-nitro-1-naphthaldehyde'
p954
(lp955
F0.55000000000000004
aF0.83299999999999996
assS'1.2.1.2'
p956
(dp957
sS'1.2.1.1'
p958
(dp959
sS'1.4.3.3'
p960
(dp961
S'D-serine'
p962
(lp963
F3
asS'glycine'
p964
(lp965
F0.90000000000000002
asS'D-phenylalanine'
p966
(lp967
F6.5999999999999996
asS'D-tyrosine'
p968
(lp969
F14.800000000000001
asS'D-proline'
p970
(lp971
F10.199999999999999
asS'D-alanine'
p972
(lp973
F5.2000000000000002
aF5.2000000000000002
aF10
aF10
asS'D-Aspartate'
p974
(lp975
F6.7000000000000002
asS'D-Dopa'
p976
(lp977
F21.699999999999999
asS'D-tryptophan'
p978
(lp979
F3.2000000000000002
assS'1.2.1.38'
p980
(dp981
sS'1.4.3.1'
p982
(dp983
sS'1.4.3.6'
p984
(dp985
sS'1.4.3.5'
p986
(dp987
S"pyridoxine 5'-phosphate"
p988
(lp989
F0.19
asS"pyridoxamine 5'-phosphate"
p990
(lp991
F0.20000000000000001
assS'1.4.3.4'
p992
(dp993
S'1-Methyl-4-phenyl-1,2,3,6-tetrahydropyridine'
p994
(lp995
F0.16
aF0.17999999999999999
aF0.24099999999999999
asS'tyramine'
p996
(lp997
F5.2999999999999998
asS'Phenylethylamine'
p998
(lp999
F0.89700000000000002
aF0.998
aF1.3999999999999999
aF2.8700000000000001
aF3.1000000000000001
asS'benzylamine'
p1000
(lp1001
F0.089999999999999997
aF0.32500000000000001
aF5
aF5
asS'2-Phenylethylamine'
p1002
(lp1003
F3.8199999999999998
asS'kynuramine'
p1004
(lp1005
F1.0800000000000001
aF1.6000000000000001
aF1.8999999999999999
aF1.8999999999999999
aF2.0800000000000001
aF2.0800000000000001
aF2.2000000000000002
aF2.5
asS'serotonin'
p1006
(lp1007
F0.42599999999999999
aF6
aF18.600000000000001
asS'dopamine'
p1008
(lp1009
F0.249
asS'phenylbutylamine'
p1010
(lp1011
F1.8300000000000001
asS'phenethylamine'
p1012
(lp1013
F1.4810000000000001
asS'p-nitrophenylethylamine'
p1014
(lp1015
F1.8500000000000001
asS'p-nitrobenzylamine'
p1016
(lp1017
F0.185
assS'1.2.1.31'
p1018
(dp1019
sS'4.2.1.11'
p1020
(dp1021
sS'1.2.1.32'
p1022
(dp1023
sS'3.1.4.3'
p1024
(dp1025
sS'1.2.1.36'
p1026
(dp1027
sS'2.4.1.133'
p1028
(dp1029
S'UDP-galactose'
p1030
(lp1031
F0.028000000000000001
aF1.1100000000000001
aF1.1399999999999999
aF1.52
aF5086
asS'UDP-glucose'
p1032
(lp1033
F72
asS'UDP-xylose'
p1034
(lp1035
F3
asS'4-methylumbelliferyl-beta-D-xylopyranoside'
p1036
(lp1037
F1.79
assS'3.1.2.2'
p1038
(dp1039
sS'3.1.2.4'
p1040
(dp1041
sS'3.1.2.6'
p1042
(dp1043
S'S-mandeloylglutathione'
p1044
(lp1045
F188
aF755
asS'S-D-mandeloylglutathione'
p1046
(lp1047
F183
asS'S-D-lactoylglutathione'
p1048
(lp1049
F280
aF727
asS'S-glycoloylglutathione'
p1050
(lp1051
F1740
asS'S-L-glyceroylglutathione'
p1052
(lp1053
F1490
assS'2.4.1.92'
p1054
(dp1055
sS'2.1.1.103'
p1056
(dp1057
sS'5.4.2.2'
p1058
(dp1059
sS'2.4.1.122'
p1060
(dp1061
sS'1.14.13.70'
p1062
(dp1063
sS'5.1.3.8'
p1064
(dp1065
sS'1.14.13.72'
p1066
(dp1067
sS'5.1.3.2'
p1068
(dp1069
sS'3.7.1.2'
p1070
(dp1071
sS'3.7.1.3'
p1072
(dp1073
S'3-Hydroxy-DL-kynurenine'
p1074
(lp1075
F3.5
asS'L-kynurenine'
p1076
(lp1077
F0.23000000000000001
asS'3-hydroxy-L-kynurenine'
p1078
(lp1079
F3.5
assS'5.1.3.7'
p1080
(dp1081
sS'3.1.3.67'
p1082
(dp1083
sS'3.1.3.66'
p1084
(dp1085
sS'3.1.3.64'
p1086
(dp1087
sS'3.4.14.9'
p1088
(dp1089
sS'3.1.3.61'
p1090
(dp1091
sS'2.4.1.135'
p1092
(dp1093
sS'1.14.16.4'
p1094
(dp1095
S'O2'
p1096
(lp1097
F1.383
aF6.7300000000000004
asS'L-tryptophan'
p1098
(lp1099
F2.6699999999999999
aF5.0300000000000002
asS'tetrahydrobiopterin'
p1100
(lp1101
F2.1669999999999998
aF4.5670000000000002
assS'1.14.16.2'
p1102
(dp1103
S'L-tyrosine'
p1104
(lp1105
F3.0299999999999998
aF3.3300000000000001
asS'tetrahydrobiopterin'
p1106
(lp1107
F0.017000000000000001
aF0.46999999999999997
aF0.57999999999999996
assS'1.14.16.1'
p1108
(dp1109
S'phenylalanine'
p1110
(lp1111
F6.5300000000000002
assS'3.2.1.33'
p1112
(dp1113
sS'2.4.2.14'
p1114
(dp1115
sS'3.2.1.31'
p1116
(dp1117
S'4-nitrophenyl-beta-D-glucuronide'
p1118
(lp1119
F0.67000000000000004
asS'equol 7-O-beta-D-glucuronide'
p1120
(lp1121
F0.34999999999999998
asS"quercetin 4'-O-beta-D-glucuronide"
p1122
(lp1123
F0.26000000000000001
asS'kaempferol 3-O-beta-D-glucuronide'
p1124
(lp1125
F0.65000000000000002
asS'daidzein 7-O-beta-D-glucuronide'
p1126
(lp1127
F1.0700000000000001
asS'quercetin-3-O-beta-D-glucuronide'
p1128
(lp1129
F1.8999999999999999
asS'quercetin 7-O-beta-D-glucuronide'
p1130
(lp1131
F1.6499999999999999
assS'2.4.2.11'
p1132
(dp1133
sS'2.4.2.10'
p1134
(dp1135
S'Orotidine'
p1136
(lp1137
F0.024
aF0.024
asS"orotidine 5'-phosphate"
p1138
(lp1139
F0.017000000000000001
aF0.10000000000000001
asS'Phosphonoacetic acid'
p1140
(lp1141
F0.017000000000000001
assS'1.6.2.2'
p1142
(dp1143
S'NADPH'
p1144
(lp1145
F33
asS'NADH'
p1146
(lp1147
F0.73299999999999998
asS'cytochrome b5'
p1148
(lp1149
F21.300000000000001
asS'ferricytochrome b5'
p1150
(lp1151
F360
aF600
asS'ferricyanide'
p1152
(lp1153
F98.299999999999997
aF500
aF677
aF700
aF800
aF827
assS'4.1.1.45'
p1154
(dp1155
sS'3.5.4.16'
p1156
(dp1157
sS'3.5.4.15'
p1158
(dp1159
sS'3.5.4.14'
p1160
(dp1161
sS'3.5.4.12'
p1162
(dp1163
S'dCMP'
p1164
(lp1165
F960
assS'3.5.4.10'
p1166
(dp1167
S'5-Formamido-1-(5-phosphoribosyl)imidazole-4-carboxamide'
p1168
(lp1169
F8.5999999999999996
aF8.5999999999999996
assS'1.1.1.94'
p1170
(dp1171
sS'1.1.1.95'
p1172
(dp1173
sS'3.1.6.8'
p1174
(dp1175
S'4-Methylumbelliferyl sulfate'
p1176
(lp1177
F0.81699999999999995
asS'cerebroside sulfate'
p1178
(lp1179
F1.45
asS'4-nitrocatechol sulfate'
p1180
(lp1181
F16.800000000000001
assS'1.3.99.6'
p1182
(dp1183
sS'1.3.99.7'
p1184
(dp1185
sS'1.3.99.5'
p1186
(dp1187
sS'1.3.99.2'
p1188
(dp1189
sS'1.3.99.3'
p1190
(dp1191
sS'1.3.99.1'
p1192
(dp1193
sS'1.14.99.7'
p1194
(dp1195
sS'4.6.1.1'
p1196
(dp1197
sS'1.14.99.1'
p1198
(dp1199
sS'1.14.14.1'
p1200
(dp1201
sS'1.14.99.3'
p1202
(dp1203
sS'1.1.1.272'
p1204
(dp1205
sS'1.14.99.9'
p1206
(dp1207
sS'5.1.99.1'
p1208
(dp1209
sS'2.1.3.3'
p1210
(dp1211
sS'2.1.3.2'
p1212
(dp1213
sS'1.3.99.10'
p1214
(dp1215
sS'1.1.1.170'
p1216
(dp1217
sS'1.3.99.12'
p1218
(dp1219
S'isobutyryl-CoA'
p1220
(lp1221
F2900
asS'Hexanoyl-CoA'
p1222
(lp1223
F7600
asS'(S)-2-methylbutanoyl-CoA'
p1224
(lp1225
F9700
assS'1.3.99.13'
p1226
(dp1227
sS'2.1.1.8'
p1228
(dp1229
sS'2.7.1.60'
p1230
(dp1231
sS'2.1.1.2'
p1232
(dp1233
sS'2.1.1.1'
p1234
(dp1235
S'nicotinamide'
p1236
(lp1237
F1.02
assS'2.7.1.68'
p1238
(dp1239
sS'2.1.1.6'
p1240
(dp1241
S'4-hydroxyestradiol'
p1242
(lp1243
F0.035000000000000003
aF0.076999999999999999
asS'epicatechin'
p1244
(lp1245
F0.17000000000000001
aF0.315
asS'epinephrine'
p1246
(lp1247
F0.085000000000000006
aF0.25
asS'norepinephrine'
p1248
(lp1249
F0.040000000000000001
aF0.17999999999999999
asS'2-hydroxyestradiol'
p1250
(lp1251
F0.085000000000000006
aF0.98999999999999999
asS'catechin'
p1252
(lp1253
F0.17999999999999999
aF0.26000000000000001
asS'dopamine'
p1254
(lp1255
F0.087999999999999995
aF0.19
asS'4-hydroxyequilenin'
p1256
(lp1257
F0.10000000000000001
assS'2.1.1.5'
p1258
(dp1259
S'S-methyl-L-methionine'
p1260
(lp1261
F0.0044000000000000003
aF24
aF38
asS'L-homocysteine'
p1262
(lp1263
F0.00029999999999999997
aF0.036700000000000003
aF0.0378
asS'betaine'
p1264
(lp1265
F0.0298
aF0.042200000000000001
aF88
assS'2.1.1.4'
p1266
(dp1267
sS'3.1.1.23'
p1268
(dp1269
S'4-Methylumbelliferyl butyrate'
p1270
(lp1271
F1.1299999999999999
assS'3.5.1.9'
p1272
(dp1273
sS'3.5.1.2'
p1274
(dp1275
sS'1.14.18.1'
p1276
(dp1277
sS'1.14.18.2'
p1278
(dp1279
sS'3.5.1.1'
p1280
(dp1281
S'L-asparagine'
p1282
(lp1283
F3.1899999999999999
asS'beta-L-Asp-L-Phe'
p1284
(lp1285
F0.80000000000000004
assS'3.5.1.6'
p1286
(dp1287
sS'1.14.15.67'
p1288
(dp1289
sS'4.2.1.18'
p1290
(dp1291
S'(E)-3-methylglutaconyl-CoA'
p1292
(lp1293
F5.0999999999999996
asS'(R,S)-3-hydroxy-3-methylglutaryl-CoA'
p1294
(lp1295
F0.26000000000000001
asS'crotonyl-CoA'
p1296
(lp1297
F6.7999999999999998
asS'(E)-glutaconyl-CoA'
p1298
(lp1299
F1.3999999999999999
asS'3-hydroxybutyryl-CoA'
p1300
(lp1301
F1.7
asS'3-methylcrotonyl-CoA'
p1302
(lp1303
F2.8999999999999999
assS'2.5.1.46'
p1304
(dp1305
sS'2.6.1.52'
p1306
(dp1307
sS'2.6.1.51'
p1308
(dp1309
sS'2.3.1.154'
p1310
(dp1311
sS'6.3.4.16'
p1312
(dp1313
S'NH3'
p1314
(lp1315
F5.7300000000000004
assS'2.6.1.58'
p1316
(dp1317
sS'6.3.4.15'
p1318
(dp1319
sS'1.1.99.5'
p1320
(dp1321
sS'1.1.99.1'
p1322
(dp1323
sS'1.1.1.133'
p1324
(dp1325
sS'4.2.1.55'
p1326
(dp1327
sS'4.2.1.56'
p1328
(dp1329
sS'3.1.4.4'
p1330
(dp1331
sS'3.6.1.19'
p1332
(dp1333
S'dTTP'
p1334
(lp1335
F0.69999999999999996
asS'CTP'
p1336
(lp1337
F0.80000000000000004
asS'5-methyl-UTP'
p1338
(lp1339
F1.5
asS'pseudo-UTP'
p1340
(lp1341
F2.5
asS'UTP'
p1342
(lp1343
F0.69999999999999996
asS'8-oxo-GTP'
p1344
(lp1345
F0.20000000000000001
asS'5-methyl-CTP'
p1346
(lp1347
F3.7000000000000002
asS'dCTP'
p1348
(lp1349
F0.29999999999999999
assS'6.3.2.11'
p1350
(dp1351
sS'3.6.1.15'
p1352
(dp1353
sS'3.2.1.106'
p1354
(dp1355
sS'3.5.1.38'
p1356
(dp1357
sS'3.6.1.13'
p1358
(dp1359
S'cADP-ribose'
p1360
(lp1361
F3.2000000000000002
asS'ADPribose'
p1362
(lp1363
F8
asS'ADP-ribose'
p1364
(lp1365
F5.5
aF11.4
aF35
asS"2',3'-cAMP"
p1366
(lp1367
F60
assS'4.2.1.17'
p1368
(dp1369
sS'6.3.3.2'
p1370
(dp1371
sS'6.3.3.1'
p1372
(dp1373
sS'2.7.7.22'
p1374
(dp1375
sS'2.7.7.23'
p1376
(dp1377
sS'6.3.5.2'
p1378
(dp1379
sS'1.14.13.39'
p1380
(dp1381
S'menadione'
p1382
(lp1383
F6.5999999999999996
aF8
aF9.5
aF88
aF96
asS'adriamycin'
p1384
(lp1385
F4.7999999999999998
aF4.9000000000000004
aF5.2999999999999998
aF94
aF95
asS'mitomycin C'
p1386
(lp1387
F0.62
aF0.80000000000000004
aF2.2000000000000002
aF15.800000000000001
aF26
assS'6.3.5.4'
p1388
(dp1389
sS'2.7.7.24'
p1390
(dp1391
sS'1.14.13.34'
p1392
(dp1393
sS'1.14.13.30'
p1394
(dp1395
sS'5.4.99.2'
p1396
(dp1397
S'(R/S)-2-methyl-3-oxopropanoyl-CoA'
p1398
(lp1399
F150
aF283
assS'2.8.2.5'
p1400
(dp1401
sS'2.8.2.4'
p1402
(dp1403
sS'3.6.1.52'
p1404
(dp1405
S'diphosphoinositol pentakisphosphate'
p1406
(lp1407
F0.029999999999999999
aF0.029999999999999999
aF0.14999999999999999
aF0.14999999999999999
aF0.20000000000000001
aF0.20000000000000001
assS'2.8.2.1'
p1408
(dp1409
S'daidzein'
p1410
(lp1411
F0.00033
aF0.0035000000000000001
aF0.0050000000000000001
aF0.0054999999999999997
aF0.02
aF0.095000000000000001
aF0.1065
asS"genistein 4'-sulfate"
p1412
(lp1413
F0.0067000000000000002
aF0.035000000000000003
asS'genistein'
p1414
(lp1415
F0.0015
aF0.0061999999999999998
aF0.012999999999999999
aF0.024
aF0.11
aF0.12
aF0.124
asS'daidzein 7-sulfate'
p1416
(lp1417
F0.00016000000000000001
aF0.075999999999999998
asS"daidzein 4'-sulfate"
p1418
(lp1419
F0.00183
aF0.063
asS'genistein 7-sulfate'
p1420
(lp1421
F0.00116
aF0.059999999999999998
assS'2.8.2.2'
p1422
(dp1423
sS'1.1.1.220'
p1424
(dp1425
sS'2.4.1.22'
p1426
(dp1427
sS'2.4.1.25'
p1428
(dp1429
sS'1.1.1.225'
p1430
(dp1431
sS'2.5.1.18'
p1432
(dp1433
S'(S)-styrene-7,8-oxide'
p1434
(lp1435
F8.4000000000000004
asS'(R,R)-trans-stilbene oxide'
p1436
(lp1437
F0.37
aF1.3
aF7.7000000000000002
asS'glutathione'
p1438
(lp1439
F7.6699999999999999
aF12.199999999999999
asS'3,4-dinitrobenzanilide'
p1440
(lp1441
F367
asS'cumene hydroperoxide'
p1442
(lp1443
F9600
asS'1,2-epoxy-3-(p-nitrophenoxy)propane'
p1444
(lp1445
F201
asS'1-chloro-2,4-dinitrobenzene'
p1446
(lp1447
F4.5
aF18.300000000000001
aF76
aF761
asS'(S,S)-1-phenylpropylene oxide'
p1448
(lp1449
F1.1000000000000001
aF2.3999999999999999
aF9
asS'(S,S)-trans-stilbene oxide'
p1450
(lp1451
F0.070000000000000007
aF0.20000000000000001
aF0.46000000000000002
asS'maleylacetone'
p1452
(lp1453
F0.34699999999999998
aF464
asS'1,2-dichloro-4-nitrobenzene'
p1454
(lp1455
F210
asS'GSH'
p1456
(lp1457
F108
aF464
aF1370
asS'1-Fluoro-2,4-dinitrobenzene'
p1458
(lp1459
F106
asS'(R)-styrene-7,8-oxide'
p1460
(lp1461
F4.7999999999999998
asS'(R,R)-1-phenylpropylene oxide'
p1462
(lp1463
F17.699999999999999
asS'(+)-2-bromo-3-(4-nitrophenyl)propanoic acid'
p1464
(lp1465
F0.55000000000000004
aF0.58999999999999997
aF0.81999999999999995
aF13
assS'2.5.1.10'
p1466
(dp1467
sS'2.5.1.17'
p1468
(dp1469
S'cob(I)alamin'
p1470
(lp1471
F166.19999999999999
aF285
aF297.60000000000002
asS'ATP'
p1472
(lp1473
F166.19999999999999
aF285
aF297.60000000000002
assS'2.5.1.16'
p1474
(dp1475
sS'4.2.1.22'
p1476
(dp1477
S'L-serine'
p1478
(lp1479
F0.52000000000000002
aF1.3
aF2.5
aF3.6699999999999999
aF5.4000000000000004
aF7.5
aF14.01
aF19.699999999999999
asS'homocysteine'
p1480
(lp1481
F6.2000000000000002
aF34
asS'L-homocysteine'
p1482
(lp1483
F3.2999999999999998
aF4.6600000000000001
aF12.699999999999999
assS'4.4.1.16'
p1484
(dp1485
sS'3.2.1.76'
p1486
(dp1487
sS'4.2.1.24'
p1488
(dp1489
sS'2.7.4.14'
p1490
(dp1491
S'dCMP'
p1492
(lp1493
F30
aF73
asS"beta-L-2',3'-dideoxy-3'-thiacytidine monophosphate"
p1494
(lp1495
F14
aF36
asS'UMP'
p1496
(lp1497
F92
aF130
asS'ara-CMP'
p1498
(lp1499
F45
aF150
asS'CMP'
p1500
(lp1501
F72
aF130
assS'2.7.4.11'
p1502
(dp1503
sS'1.2.4.4'
p1504
(dp1505
S'alpha-ketoisovaleric acid'
p1506
(lp1507
F0.1983
asS'2-oxo-isovalerate'
p1508
(lp1509
F3.2999999999999998
aF9.4000000000000004
assS'1.11.1.8'
p1510
(dp1511
sS'1.11.1.9'
p1512
(dp1513
S'GSH'
p1514
(lp1515
F14.48
aF19.5
aF24.5
aF221.69999999999999
aF293.30000000000001
aF361.69999999999999
aF408.30000000000001
asS'H2O2'
p1516
(lp1517
F10.550000000000001
aF16.02
aF20.829999999999998
aF316.69999999999999
aF445
aF560
aF670
assS'1.11.1.6'
p1518
(dp1519
sS'1.11.1.7'
p1520
(dp1521
S"3,3',5,5'-tetramethylbezidine"
p1522
(lp1523
F1.5
assS'2.3.1.57'
p1524
(dp1525
sS'1.14.11.18'
p1526
(dp1527
sS'3.1.6.18'
p1528
(dp1529
sS'2.1.2.10'
p1530
(dp1531
sS'3.1.3.18'
p1532
(dp1533
S'2-Phosphoglycolate'
p1534
(lp1535
F19
assS'1.14.11.4'
p1536
(dp1537
sS'1.1.1.30'
p1538
(dp1539
sS'1.1.1.31'
p1540
(dp1541
sS'3.1.6.13'
p1542
(dp1543
sS'2.4.99.1'
p1544
(dp1545
sS'1.1.1.34'
p1546
(dp1547
sS'1.1.1.35'
p1548
(dp1549
S'NAD+'
p1550
(lp1551
F705
aF1817
asS'acetoacetyl-CoA'
p1552
(lp1553
F21.300000000000001
aF23.800000000000001
aF37
aF113
aF252
aF681.70000000000005
aF1287
asS'3-ketohexdecanoyl-CoA'
p1554
(lp1555
F24
asS'17beta-estradiol'
p1556
(lp1557
F0.010999999999999999
asS'3-ketooctanoyl-CoA'
p1558
(lp1559
F28
asS'(S)-3-hydroxybutyryl-CoA'
p1560
(lp1561
F533.29999999999995
aF643.29999999999995
asS'(3beta,5alpha,17beta)-androstane-3,17-diol'
p1562
(lp1563
F0.092999999999999999
asS'androsterone'
p1564
(lp1565
F0.010999999999999999
assS'3.1.3.10'
p1566
(dp1567
sS'1.1.1.37'
p1568
(dp1569
sS'2.3.1.51'
p1570
(dp1571
sS'2.3.1.50'
p1572
(dp1573
sS'2.3.1.9'
p1574
(dp1575
sS'5.4.2.3'
p1576
(dp1577
S'N-acetyl-alpha-D-glucosamine'
p1578
(lp1579
F1.79
aF2.9399999999999999
assS'5.4.2.1'
p1580
(dp1581
sS'2.4.2.28'
p1582
(dp1583
S"5'-deoxy-5'-(2-(pyridin-2-yl)ethyl)-thioadenosine"
p1584
(lp1585
F2.1400000000000001
asS"5'-deoxy-5'-phenyl-thioadenosine"
p1586
(lp1587
F3.1600000000000001
asS"5'-deoxy-5'-tert-butylthioadenosine"
p1588
(lp1589
F1.46
asS"5'-deoxy-5'-cyclopentyl-thioadenosine"
p1590
(lp1591
F1.5700000000000001
asS"5'-deoxy-5'-ethylthioadenosine"
p1592
(lp1593
F0.67000000000000004
asS"5'-deoxy-5'-(4-methoxyphenyl)-thioadenosine"
p1594
(lp1595
F1.5
asS"5'-deoxy-5'-(1,3-thiazol)-2-yl-sulfanyladenosine"
p1596
(lp1597
F3.7999999999999998
asS"5'-deoxy-5'-(quinolin-2-yl)-sulfanyladenosine"
p1598
(lp1599
F3.4399999999999999
asS"3'-deoxy-5'-deoxy-5'-methylthioadenosine"
p1600
(lp1601
F0.0040000000000000001
asS"5'-deoxy-5'-(phenylethyl)-thioadenosine"
p1602
(lp1603
F2.5
asS"5'-deoxy-5'-isopentylthioadenosine"
p1604
(lp1605
F0.84999999999999998
asS"5'-deoxy-5'-(phenylmethyl)-thioadenosine"
p1606
(lp1607
F2.4900000000000002
asS"5'-deoxy-5'-pyridin-2-yl-sulfanyladenosine"
p1608
(lp1609
F0.23000000000000001
asS"5'-deoxy-5'-(2-methylbutyl)-thioadenosine"
p1610
(lp1611
F5.5
asS"2'-deoxy-2'-azido-5'-deoxy-5'-methylthioadenosine"
p1612
(lp1613
F0.040000000000000001
asS"5'-deoxy-5'-imidazol-2-yl-sulfanyladenosine"
p1614
(lp1615
F1.5
asS"5'-deoxy-5'-(4-methylphenyl)-thioadenosine"
p1616
(lp1617
F0.29999999999999999
asS"2'-deoxy-2-fluoro-5'-deoxy-5'-methylthioadenosine"
p1618
(lp1619
F0.00040000000000000002
asS"2'-deoxy-5'-deoxy-5'-methylthioadenosine"
p1620
(lp1621
F0.28000000000000003
asS"5'-deoxy-5'-isobutylthioadenosine"
p1622
(lp1623
F2.8999999999999999
asS"5'-deoxy-5'-[4-(trifluoromethyl)phenyl]-thioadenosine"
p1624
(lp1625
F0.80000000000000004
asS"5'-deoxy-5'-pyridin-4-yl-sulfanyladenosine"
p1626
(lp1627
F4.2000000000000002
asS"5'-deoxy-5'-hydroxyethylthioadenosine"
p1628
(lp1629
F5.9000000000000004
asS"5'-deoxy-5'-butylthioadenosine"
p1630
(lp1631
F2.2999999999999998
asS"5'-deoxy-5'-cyclohexyl-thioadenosine"
p1632
(lp1633
F1.01
asS"5'-deoxy-5'-methyl-thioadenosine"
p1634
(lp1635
F4.5999999999999996
asS"5'-deoxy-adenosine"
p1636
(lp1637
F4.7999999999999998
asS"5'-deoxy-5'-(3-methylphenyl)-thioadenosine"
p1638
(lp1639
F1.3999999999999999
asS"5'-deoxy-5'-(2-methylphenyl)-thioadenosine"
p1640
(lp1641
F2.3999999999999999
assS'3.3.1.1'
p1642
(dp1643
S'DL-homocysteine'
p1644
(lp1645
F6666
asS'S-adenosyl-DL-homocysteine'
p1646
(lp1647
F3.4500000000000002
aF1908
asS'adenosine'
p1648
(lp1649
F6666
assS'5.4.2.4'
p1650
(dp1651
S'2,3-diphosphoglycerate'
p1652
(lp1653
F0.0037000000000000002
assS'1.14.99.36'
p1654
(dp1655
sS'2.3.1.1'
p1656
(dp1657
sS'2.4.2.26'
p1658
(dp1659
S'biotin-NH-QEEEGSGGGQKK(5-fluorescein)-CONH2'
p1660
(lp1661
F0.036299999999999999
assS'4.1.1.15'
p1662
(dp1663
S'L-Glu'
p1664
(lp1665
F0.40999999999999998
aF1.8
aF6.2000000000000002
aF7.7000000000000002
assS'2.3.1.4'
p1666
(dp1667
S'D-Glucosamine 6-phosphate'
p1668
(lp1669
F9
aF22.100000000000001
assS'2.3.1.7'
p1670
(dp1671
S'acetyl-CoA'
p1672
(lp1673
F38.5
assS'2.3.1.6'
p1674
(dp1675
sS'2.3.3.8'
p1676
(dp1677
sS'1.1.1.49'
p1678
(dp1679
S'deamino-NADP+'
p1680
(lp1681
F98
asS'NADP+'
p1682
(lp1683
F251
asS'D-galactose 6-phosphate'
p1684
(lp1685
F157
asS'2-deoxyglucose 6-phosphate'
p1686
(lp1687
F43
asS'D-glucose 6-phosphate'
p1688
(lp1689
F251
aF275
aF279
aF571
assS'1.1.1.45'
p1690
(dp1691
sS'1.1.1.44'
p1692
(dp1693
S'6-phosphogluconate'
p1694
(lp1695
F0.217
assS'1.1.1.47'
p1696
(dp1697
sS'2.4.99.9'
p1698
(dp1699
sS'1.1.1.41'
p1700
(dp1701
S'NAD+'
p1702
(lp1703
F30
asS'isocitrate'
p1704
(lp1705
F30
asS'D-isocitrate'
p1706
(lp1707
F30
assS'1.1.1.40'
p1708
(dp1709
S'NAD+'
p1710
(lp1711
F28.899999999999999
aF34.18
aF51
asS'(S)-malate'
p1712
(lp1713
F110.90000000000001
asS'NADP+'
p1714
(lp1715
F113.2
aF126
aF135.80000000000001
assS'2.3.3.5'
p1716
(dp1717
sS'1.1.1.42'
p1718
(dp1719
sS'3.5.1.3'
p1720
(dp1721
sS'4.1.3.25'
p1722
(dp1723
sS'2.3.3.10'
p1724
(dp1725
sS'2.8.2.11'
p1726
(dp1727
sS'2.4.1.223'
p1728
(dp1729
sS'2.4.1.224'
p1730
(dp1731
sS'2.4.1.225'
p1732
(dp1733
sS'2.4.1.226'
p1734
(dp1735
sS'3.4.21.35'
p1736
(dp1737
S'Abz-KYFSSKQ-EDDnp'
p1738
(lp1739
F0.02
asS'Abz-KLFSIKQ-EDDnp'
p1740
(lp1741
F0.089999999999999997
asS'Abz-FLFSSKQ-EDDnp'
p1742
(lp1743
F0.089999999999999997
asS'Abz-NLFSSKQ-EDDnp'
p1744
(lp1745
F0.28000000000000003
asS'Abz-KLFSSRQ-EDDnp'
p1746
(lp1747
F0.17000000000000001
asS'Phe-Ser-Arg-7-amido-4-methylcoumarin'
p1748
(lp1749
F0.0064999999999999997
asS'Abz-KLFSSNQ-EDDnp'
p1750
(lp1751
F0.070000000000000007
asS'Abz-VLFSSKQ-EDDnp'
p1752
(lp1753
F0.13
asS'Abz-GFSPFRSSRI-Q-EDDnp'
p1754
(lp1755
F17.699999999999999
asS'Ala-Arg-Arg-7-amido-4-methylcoumarin'
p1756
(lp1757
F0.12
asS'Abz-KLYSSK-EDDnp'
p1758
(lp1759
F0.84999999999999998
asS'Abz-GLFSSKQ-EDDnp'
p1760
(lp1761
F0.029999999999999999
asS'Abz-KLFSSLQ-EDDnp'
p1762
(lp1763
F0.080000000000000002
asS'Abz-KFFSSKQ-EDDnp'
p1764
(lp1765
F0.02
asS'Leu-Leu-Arg-7-amido-4-methylcoumarin'
p1766
(lp1767
F0.040000000000000001
asS'Abz-RLFSSKQ-EDDnp'
p1768
(lp1769
F0.13
asS'Abz-KPFSSKQ-EDDnp'
p1770
(lp1771
F0.02
asS'Abz-KLFSSDQ-EDDnp'
p1772
(lp1773
F0.050000000000000003
asS'Pro-Phe-Arg-7-amido-4-methylcoumarin'
p1774
(lp1775
F0.031
asS'o-aminobenzoyl-GFSPFRSVTVQ-ethylenediamine 2,4-dinitrophenol'
p1776
(lp1777
F3.1000000000000001
asS'Pro-Phe-Arg-Arg-7-amido-4-methylcoumarin'
p1778
(lp1779
F0.91700000000000004
asS'Abz-KLFWSK-EDDnp'
p1780
(lp1781
F0.040000000000000001
asS'Abz-KVFSSKQ-EDDnp'
p1782
(lp1783
F0.040000000000000001
asS'Abz-KAFSSKQ-EDDnp'
p1784
(lp1785
F0.02
asS'Abz-KLFSLKQ-EDDnp'
p1786
(lp1787
F0.14999999999999999
asS'Abz-KLFSRKQ-EDDnp'
p1788
(lp1789
F0.14999999999999999
asS'Abz-KLFSSGQ-EDDnp'
p1790
(lp1791
F0.089999999999999997
asS'Abz-MISLMKRP-Q-EDDnp'
p1792
(lp1793
F0.33000000000000002
asS'Abz-KLFTSK-EDDnp'
p1794
(lp1795
F0.040000000000000001
asS'Gly-Pro-Arg-7-amido-4-methylcoumarin'
p1796
(lp1797
F0.0035000000000000001
asS'Abz-KLFRSK-EDDnp'
p1798
(lp1799
F0.040000000000000001
asS'Abz-FRSSR-Q-EDDnp'
p1800
(lp1801
F1.6000000000000001
asS'Abz-ALFSSKQ-EDDnp'
p1802
(lp1803
F0.10000000000000001
asS'Val-Pro-Arg-7-amido-4-methylcoumarin'
p1804
(lp1805
F0.0074999999999999997
asS'Abz-KLFFSK-EDDnp'
p1806
(lp1807
F0.040000000000000001
asS'Abz-KLFSSVQ-EDDnp'
p1808
(lp1809
F0.059999999999999998
asS'Abz-KLFSSK-EDDnp'
p1810
(lp1811
F0.10000000000000001
asS'Abz-ILFSSKQ-EDDnp'
p1812
(lp1813
F0.059999999999999998
asS'Abz-KLFSSQQ-EDDnp'
p1814
(lp1815
F0.14000000000000001
asS'Abz-LLFSSKQ-EDDnp'
p1816
(lp1817
F0.070000000000000007
asS'Abz-KLFSVKQ-EDDnp'
p1818
(lp1819
F0.34999999999999998
asS'Abz-QLFSSKQ-EDDnp'
p1820
(lp1821
F0.14999999999999999
asS'o-aminobenzoyl-MTEMARRPQ-ethylenediamine 2,4-dinitrophenol'
p1822
(lp1823
F0.72999999999999998
asS'Abz-KLFSSKQ-EDDnp'
p1824
(lp1825
F0.10000000000000001
asS'Abz-KLFSSIQ-EDDnp'
p1826
(lp1827
F0.02
asS'Pro-Phe-Arg-4-methylcoumarin 7-amide'
p1828
(lp1829
F6.0999999999999996
asS'Abz-KLFSGKQ-EDDnp'
p1830
(lp1831
F0.040000000000000001
asS'Val-Pro-Arg-Arg-7-amido-4-methylcoumarin'
p1832
(lp1833
F0.026700000000000002
asS'Gln-Ala-Arg-7-amido-4-methylcoumarin'
p1834
(lp1835
F0.0038
asS'Abz-HLFSSKQ-EDDnp'
p1836
(lp1837
F0.10000000000000001
asS'Abz-MISLMKLP-Q-EDDnp'
p1838
(lp1839
F0.02
asS'Abz-KLFSNKQ-EDDnp'
p1840
(lp1841
F0.040000000000000001
asS'Abz-GFSPFRSLRI-Q-EDDnp'
p1842
(lp1843
F4.5999999999999996
asS'Abz-KLFSSSQ-EDDnp'
p1844
(lp1845
F0.42999999999999999
asS'Abz-KLFSSEQ-EDDnp'
p1846
(lp1847
F0.5
asS'Abz-KLFSAKQ-EDDnp'
p1848
(lp1849
F0.42999999999999999
assS'2.4.1.228'
p1850
(dp1851
sS'2.7.1.31'
p1852
(dp1853
sS'2.7.1.30'
p1854
(dp1855
sS'2.7.1.36'
p1856
(dp1857
sS'3.1.1.19'
p1858
(dp1859
sS'3.1.1.13'
p1860
(dp1861
sS'2.7.1.151'
p1862
(dp1863
sS'2.7.1.153'
p1864
(dp1865
sS'3.1.1.17'
p1866
(dp1867
sS'2.4.1.11'
p1868
(dp1869
sS'3.1.6.12'
p1870
(dp1871
sS'2.4.1.17'
p1872
(dp1873
sS'2.4.1.18'
p1874
(dp1875
sS'3.1.6.15'
p1876
(dp1877
sS'4.1.2.27'
p1878
(dp1879
sS'3.1.6.14'
p1880
(dp1881
sS'3.2.2.6'
p1882
(dp1883
sS'3.2.2.5'
p1884
(dp1885
sS'3.1.3.11'
p1886
(dp1887
S'D-fructose 1,6-bisphosphate'
p1888
(lp1889
F16.699999999999999
aF20.800000000000001
aF21.699999999999999
aF23.399999999999999
aF23.5
assS'4.3.1.3'
p1890
(dp1891
sS'5.1.3.1'
p1892
(dp1893
sS'2.4.1.65'
p1894
(dp1895
S'Fucalpha(1,2)Galbeta(1,3)GlcNAc'
p1896
(lp1897
F8.0199999999999996
asS'Galbeta(1,3)GlcNAc-(CH2)3-NHCO-(CH2)5-NH-biotin'
p1898
(lp1899
F0.0089999999999999993
aF0.40000000000000002
asS'Gal-beta-1,3GlcNAcO(CH2)3NHCO(CH2)5NH-biotin'
p1900
(lp1901
F0.10000000000000001
assS'4.3.1.17'
p1902
(dp1903
sS'6.4.1.4'
p1904
(dp1905
sS'2.4.1.62'
p1906
(dp1907
sS'1.1.1.146'
p1908
(dp1909
sS'1.1.1.145'
p1910
(dp1911
S'NADH'
p1912
(lp1913
F0.75
aF1.6499999999999999
asS'5beta-androstane-3beta,17beta-diol'
p1914
(lp1915
F0.017000000000000001
asS'(S)-1-indanol'
p1916
(lp1917
F0.17999999999999999
asS'5beta-androstan-3beta-ol-17-one'
p1918
(lp1919
F0.017000000000000001
asS'2,3-Hexanedione'
p1920
(lp1921
F16.300000000000001
asS'2,3-Pentanedione'
p1922
(lp1923
F26.699999999999999
asS'5beta-pregnane-3beta,20alpha-diol'
p1924
(lp1925
F0.014
asS'2,3-heptanedione'
p1926
(lp1927
F40.200000000000003
asS'(S)-1-tetralol'
p1928
(lp1929
F0.25
asS'diacetyl'
p1930
(lp1931
F28.300000000000001
asS'5beta-Pregnan-3beta-ol-20-one'
p1932
(lp1933
F0.041000000000000002
asS'Dehydrolithocholic acid'
p1934
(lp1935
F0.042999999999999997
asS'menadione'
p1936
(lp1937
F0.65000000000000002
asS'4-benzoylpyridine'
p1938
(lp1939
F2
asS'16beta-hydroxy-dehydroepiandrosterone'
p1940
(lp1941
F0.040000000000000001
aF0.14000000000000001
asS'5beta-pregnan-20alpha-ol-3-one'
p1942
(lp1943
F0.070000000000000007
asS'1-phenylisatin'
p1944
(lp1945
F41.700000000000003
asS'5beta-androstan-17beta-ol-3-one'
p1946
(lp1947
F0.083000000000000004
asS'n-butyrophenone'
p1948
(lp1949
F0.84999999999999998
asS'valerophenone'
p1950
(lp1951
F2
asS'dimethyl-2-oxo-glutarate'
p1952
(lp1953
F33.299999999999997
asS'dehydroepiandrosterone'
p1954
(lp1955
F0.02
aF0.021000000000000001
aF0.050000000000000003
aF0.055
aF0.055
aF0.055
aF0.059999999999999998
aF0.14000000000000001
aF0.14499999999999999
asS"4,4'-dimethylbenzil"
p1956
(lp1957
F3.7000000000000002
asS'5alpha-androstane-3,17-dione'
p1958
(lp1959
F0.097000000000000003
asS'1,4-Naphthoquinone'
p1960
(lp1961
F0.88
asS'hexanophenone'
p1962
(lp1963
F2.7000000000000002
asS'(S)-phenyl-1-butanol'
p1964
(lp1965
F0.074999999999999997
asS'5beta-androstane-3,17-dione'
p1966
(lp1967
F0.076999999999999999
asS'16alpha-hydroxy-dehydroepiandrosterone'
p1968
(lp1969
F0.089999999999999997
asS'NAD+'
p1970
(lp1971
F0.02
aF0.021999999999999999
aF0.050000000000000003
aF0.058000000000000003
aF0.059999999999999998
aF0.070000000000000007
aF0.11
aF0.12
asS'benzil'
p1972
(lp1973
F31.699999999999999
asS'6-tert-butyl-2,3-epoxy-5-cyclohexene-1,4-dione'
p1974
(lp1975
F2
asS'9,10-phenanthrenequinone'
p1976
(lp1977
F11.800000000000001
asS'Pyridine-4-aldehyde'
p1978
(lp1979
F4.7000000000000002
asS'all-trans-retinal'
p1980
(lp1981
F0.050000000000000003
asS'isatin'
p1982
(lp1983
F31.699999999999999
asS'4-hexanoylpyridine'
p1984
(lp1985
F33.299999999999997
asS'4-Nitrobenzaldehyde'
p1986
(lp1987
F16.699999999999999
asS'5alpha-dihydrotestosterone'
p1988
(lp1989
F0.095000000000000001
asS'5beta-pregnane-3,20-dione'
p1990
(lp1991
F0.063
assS'1.13.11.33'
p1992
(dp1993
S'linoleic acid'
p1994
(lp1995
F10.199999999999999
aF17.800000000000001
asS'O2'
p1996
(lp1997
F5.0999999999999996
aF5.2000000000000002
aF5.5999999999999996
aF7
aF7.5999999999999996
asS'arachidonic acid'
p1998
(lp1999
F0.56999999999999995
aF0.62
aF0.73999999999999999
aF0.75
aF1.04
aF1.3799999999999999
asS'arachidonate'
p2000
(lp2001
F14
assS'2.4.1.69'
p2002
(dp2003
S'GDP-L-fucose'
p2004
(lp2005
F0.0070000000000000001
assS'2.4.1.68'
p2006
(dp2007
S'N4-[N-acetyl-beta-D-glucosaminyl-(1-2)-alpha-D-mannosyl-(1-3)-[N-acetyl-beta-D-glucosaminyl-(1-2)-alpha-D-mannosyl-(1-6)]-beta-D-mannosyl-(1-4)-N-acetyl-beta-D-glucosaminyl-(1-4)-N-acetyl-beta-D-glucosaminyl]asparagine'
p2008
(lp2009
F0.45000000000000001
assS'2.3.1.61'
p2010
(dp2011
sS'1.2.1.48'
p2012
(dp2013
S'NAD+'
p2014
(lp2015
F1.28
asS'hexadecanal'
p2016
(lp2017
F0.94999999999999996
asS'dodecanal'
p2018
(lp2019
F2.23
asS'farnesal'
p2020
(lp2021
F0.93000000000000005
asS'Tetradecanal'
p2022
(lp2023
F0.85999999999999999
asS'(11Z)-hexadec-11-enal'
p2024
(lp2025
F1.3999999999999999
asS'decanal'
p2026
(lp2027
F2.1800000000000002
asS'Octadecanal'
p2028
(lp2029
F1.52
assS'1.2.1.49'
p2030
(dp2031
sS'2.7.7.13'
p2032
(dp2033
sS'1.2.1.47'
p2034
(dp2035
sS'1.2.1.40'
p2036
(dp2037
sS'1.2.1.41'
p2038
(dp2039
sS'2.4.2.8'
p2040
(dp2041
S'xanthine'
p2042
(lp2043
F2.8999999999999999
asS'diphosphate'
p2044
(lp2045
F0.041000000000000002
asS'Guanine'
p2046
(lp2047
F1.2
aF10.5
asS'IMP'
p2048
(lp2049
F0.037999999999999999
asS'5-phospho-alpha-D-ribose 1-diphosphate'
p2050
(lp2051
F2.5
asS'hypoxanthine'
p2052
(lp2053
F1.1299999999999999
aF2.6000000000000001
aF5.7000000000000002
assS'2.4.1.88'
p2054
(dp2055
sS'3.6.1.21'
p2056
(dp2057
sS'3.6.1.23'
p2058
(dp2059
S'dUTP'
p2060
(lp2061
F5.7999999999999998
aF9.1699999999999999
assS'2.4.1.130'
p2062
(dp2063
sS'2.4.1.131'
p2064
(dp2065
sS'2.4.1.132'
p2066
(dp2067
sS'2.4.2.2'
p2068
(dp2069
sS'2.4.1.134'
p2070
(dp2071
sS'2.4.2.4'
p2072
(dp2073
S"5-nitro-2'-deoxyuridine"
p2074
(lp2075
F2.8799999999999999
asS'thymidine'
p2076
(lp2077
F0.157
assS'2.4.2.7'
p2078
(dp2079
sS'2.3.1.15'
p2080
(dp2081
sS'2.3.1.14'
p2082
(dp2083
sS'2.3.1.17'
p2084
(dp2085
sS'2.3.1.16'
p2086
(dp2087
sS'2.3.1.13'
p2088
(dp2089
sS'2.3.1.12'
p2090
(dp2091
sS'4.2.1.99'
p2092
(dp2093
sS'1.17.3.2'
p2094
(dp2095
sS'4.1.1.19'
p2096
(dp2097
sS'1.1.1.72'
p2098
(dp2099
sS'1.6.99.7'
p2100
(dp2101
sS'1.1.1.78'
p2102
(dp2103
sS'1.1.1.79'
p2104
(dp2105
sS'1.6.99.3'
p2106
(dp2107
S'ferricyanide'
p2108
(lp2109
F677
assS'2.5.1.6'
p2110
(dp2111
sS'1.17.1.4'
p2112
(dp2113
sS'2.5.1.1'
p2114
(dp2115
sS'5.4.2.7'
p2116
(dp2117
sS'1.1.1.88'
p2118
(dp2119
sS'4.1.1.50'
p2120
(dp2121
sS'3.1.3.56'
p2122
(dp2123
sS'2.7.1.7'
p2124
(dp2125
sS'2.7.1.6'
p2126
(dp2127
S'ATP'
p2128
(lp2129
F8.6999999999999993
asS'D-galactose'
p2130
(lp2131
F8.6999999999999993
aF8.6999999999999993
assS'2.7.1.1'
p2132
(dp2133
S'D-glucose'
p2134
(lp2135
F0.17999999999999999
aF29
aF37
aF38
aF38
aF60.399999999999999
aF64
aF74
aF75
aF101
asS'2-deoxy-D-glucose'
p2136
(lp2137
F29
asS'ATP'
p2138
(lp2139
F54
aF62.299999999999997
assS'2.7.1.3'
p2140
(dp2141
S'D-ribulose'
p2142
(lp2143
F4.7999999999999998
aF7.5999999999999996
asS'D-xylulose'
p2144
(lp2145
F7.5999999999999996
aF11.1
asS'D-ribose'
p2146
(lp2147
F1.55
aF8.1999999999999993
asS'D-fructose'
p2148
(lp2149
F1.7
aF5.9000000000000004
aF6.9000000000000004
aF7.5999999999999996
asS'L-sorbose'
p2150
(lp2151
F5.2000000000000002
aF6.5
assS'5.4.99.7'
p2152
(dp2153
sS'5.4.2.8'
p2154
(dp2155
sS'1.14.99.10'
p2156
(dp2157
sS'2.7.1.107'
p2158
(dp2159
S'1,2-dioleoyl-sn-glycerol'
p2160
(lp2161
F0.032000000000000001
aF1.2
aF2.4300000000000002
asS'1-stearoyl-2-oleoyl-sn-glycerol'
p2162
(lp2163
F2.3500000000000001
asS'1-stearoyl-2-linoleoyl-sn-glycerol'
p2164
(lp2165
F0.086999999999999994
aF1.23
aF2.7999999999999998
asS'ATP'
p2166
(lp2167
F0.01
aF8.1999999999999993
aF23
asS'1-stearoyl-2-arachidonoyl-sn-glycerol'
p2168
(lp2169
F0.16200000000000001
aF1.7
aF5.7000000000000002
assS'2.7.1.105'
p2170
(dp2171
sS'2.7.1.108'
p2172
(dp2173
sS'4.1.1.17'
p2174
(dp2175
sS'6.2.1.30'
p2176
(dp2177
sS'1.7.14.1'
p2178
(dp2179
sS'2.7.1.76'
p2180
(dp2181
sS'2.7.1.74'
p2182
(dp2183
S'1-beta-D-arabinosylcytosine'
p2184
(lp2185
F0.34000000000000002
asS'thymidine'
p2186
(lp2187
F0.38
asS"2'-deoxyadenosine"
p2188
(lp2189
F0.33000000000000002
aF0.37
aF0.77000000000000002
aF1.7
aF2.1000000000000001
aF2.1299999999999999
aF3.1000000000000001
asS'1-beta-D-arabinofuranosylcytosine'
p2190
(lp2191
F0.17000000000000001
aF0.29999999999999999
aF0.32000000000000001
asS'gemcitabine'
p2192
(lp2193
F0.39000000000000001
asS"2'-deoxyguanosine"
p2194
(lp2195
F0.33000000000000002
aF0.53000000000000003
aF0.72999999999999998
aF2.5
aF2.6000000000000001
aF2.6000000000000001
aF3.2599999999999998
asS'fludarabine'
p2196
(lp2197
F0.17699999999999999
aF1.3340000000000001
asS'clofarabine'
p2198
(lp2199
F0.48599999999999999
aF1.1100000000000001
asS'troxacitabine'
p2200
(lp2201
F0.095000000000000001
asS'UTP'
p2202
(lp2203
F0.01
aF0.049000000000000002
aF0.10199999999999999
aF0.17899999999999999
asS'2-chlorodeoxyadenosine'
p2204
(lp2205
F0.37
aF0.59999999999999998
asS"2'-deoxycytidine"
p2206
(lp2207
F0.033000000000000002
aF0.040000000000000001
aF0.043999999999999997
asS'ATP'
p2208
(lp2209
F0.012
aF0.028000000000000001
aF0.029999999999999999
aF0.033000000000000002
aF0.095000000000000001
aF0.40000000000000002
asS"(-)-beta-2',3'-dideoxy-3'-thiacytidine"
p2210
(lp2211
F0.029999999999999999
aF0.10199999999999999
asS'deoxycytidine'
p2212
(lp2213
F0.014999999999999999
aF0.021000000000000001
aF0.064000000000000001
asS"2',2'-difluorodeoxycytidine"
p2214
(lp2215
F0.44
asS'cladribine'
p2216
(lp2217
F0.080399999999999999
aF0.17199999999999999
assS'2.7.1.73'
p2218
(dp2219
sS'1.3.1.38'
p2220
(dp2221
sS'1.3.1.34'
p2222
(dp2223
sS'3.3.2.6'
p2224
(dp2225
S'L-alanine-4-nitroanilide'
p2226
(lp2227
F1.8999999999999999
asS'alanine-4-nitroanilide'
p2228
(lp2229
F0.59999999999999998
asS'leukotriene A4'
p2230
(lp2231
F0.14999999999999999
aF0.84999999999999998
aF0.84999999999999998
aF1.5
aF2.0800000000000001
asS'proline-4-nitroanilide'
p2232
(lp2233
F0.14999999999999999
asS'arginine-4-nitroanilide'
p2234
(lp2235
F0.14999999999999999
asS'lysine-4-nitroanilide'
p2236
(lp2237
F0.040000000000000001
asS'Arg-Ser-Arg'
p2238
(lp2239
F0.56000000000000005
asS'L-Ala-p-nitroanilide'
p2240
(lp2241
F1.7
asS'L-Arg-p-nitroanilide'
p2242
(lp2243
F1.8999999999999999
asS'leucine-4-nitroanilide'
p2244
(lp2245
F0.14999999999999999
aF0.34999999999999998
assS'4.1.1.21'
p2246
(dp2247
sS'3.1.3.59'
p2248
(dp2249
sS'3.2.1.96'
p2250
(dp2251
sS'2.1.1.17'
p2252
(dp2253
sS'3.1.3.51'
p2254
(dp2255
sS'2.1.1.13'
p2256
(dp2257
sS'5.1.3.19'
p2258
(dp2259
sS'5.1.3.14'
p2260
(dp2261
sS'5.1.3.17'
p2262
(dp2263
sS'2.7.2.11'
p2264
(dp2265
sS'5.1.3.13'
p2266
(dp2267
sS'5.3.1.25'
p2268
(dp2269
sS'1.1.1.161'
p2270
(dp2271
sS'4.1.1.9'
p2272
(dp2273
S'malonyl-CoA'
p2274
(lp2275
F13
aF47.299999999999997
assS'2.6.1.40'
p2276
(dp2277
sS'5.3.1.23'
p2278
(dp2279
sS'2.6.1.42'
p2280
(dp2281
S'L-valine'
p2282
(lp2283
F277
aF1236
asS'2-oxoglutarate'
p2284
(lp2285
F340
asS'L-glutamate'
p2286
(lp2287
F290
aF1075
asS'L-isoleucine'
p2288
(lp2289
F371
aF1075
asS'L-leucine'
p2290
(lp2291
F337
aF898
assS'4.1.1.4'
p2292
(dp2293
sS'5.3.3.8'
p2294
(dp2295
sS'2.7.8.11'
p2296
(dp2297
sS'2.6.1.44'
p2298
(dp2299
S'glycine'
p2300
(lp2301
F0.33000000000000002
asS'pyruvate'
p2302
(lp2303
F0.35999999999999999
asS'L-alanine'
p2304
(lp2305
F0.070000000000000007
aF10.6
aF17.100000000000001
aF19.800000000000001
aF33
aF33
aF33.600000000000001
aF35
aF45
aF45
aF45
asS'glyoxylate'
p2306
(lp2307
F0.068000000000000005
aF11.1
aF18.300000000000001
aF20.5
aF37
aF37
aF39
aF40
aF45
aF45
aF45
asS'L-cysteine'
p2308
(lp2309
F0.22
assS'4.1.3.7'
p2310
(dp2311
sS'1.1.1.102'
p2312
(dp2313
sS'4.1.3.5'
p2314
(dp2315
sS'2.4.1.212'
p2316
(dp2317
sS'4.1.3.3'
p2318
(dp2319
sS'1.1.1.105'
p2320
(dp2321
S'all-trans-retinol'
p2322
(lp2323
F0.02
assS'3.5.2.5'
p2324
(dp2325
sS'3.1.3.25'
p2326
(dp2327
sS'3.1.2.1'
p2328
(dp2329
sS'3.5.2.3'
p2330
(dp2331
sS'3.5.2.2'
p2332
(dp2333
sS'1.5.1.34'
p2334
(dp2335
S'quinonoid 7,8(6H)-dihydropterin'
p2336
(lp2337
F10.9
aF23.699999999999999
aF28.899999999999999
aF113
asS'2-amino-4-hydroxy-6,7-dimethyl-5,6,7,8-tetrahydropteridine'
p2338
(lp2339
F510
asS'NADH'
p2340
(lp2341
F280
asS'quinonoid 7,8-(6H)-dihydrobiopterin'
p2342
(lp2343
F10.9
aF23.699999999999999
aF28.899999999999999
aF113
asS'tetrahydrobiopterin'
p2344
(lp2345
F200
assS'2.7.8.15'
p2346
(dp2347
sS'3.5.2.9'
p2348
(dp2349
sS'3.5.1.25'
p2350
(dp2351
sS'4.2.1.46'
p2352
(dp2353
sS'2.5.1.29'
p2354
(dp2355
sS'3.5.1.26'
p2356
(dp2357
sS'3.5.1.23'
p2358
(dp2359
sS'2.4.1.174'
p2360
(dp2361
sS'2.4.1.175'
p2362
(dp2363
sS'2.7.7.9'
p2364
(dp2365
sS'4.1.2.13'
p2366
(dp2367
S'fructose 1-phosphate'
p2368
(lp2369
F1.28
aF1.48
aF10.800000000000001
asS'D-Fructose 1-phosphate'
p2370
(lp2371
F0.0080000000000000002
aF0.019
aF0.12
aF0.67000000000000004
aF2
aF2.7999999999999998
aF6.0800000000000001
asS'D-fructose 1,6-bisphosphate'
p2372
(lp2373
F0.010999999999999999
aF0.029000000000000001
aF0.19
aF0.60999999999999999
aF2.1000000000000001
aF5.2000000000000002
aF12.6
aF16.699999999999999
aF20.100000000000001
aF59.700000000000003
assS'2.7.7.3'
p2374
(dp2375
sS'2.7.7.2'
p2376
(dp2377
S'FMN'
p2378
(lp2379
F0.0035999999999999999
aF0.0035999999999999999
aF0.0047999999999999996
aF0.02
aF0.078
aF0.080000000000000002
asS'roseoflavin mononucleotide'
p2380
(lp2381
F0.070000000000000007
assS'2.7.7.1'
p2382
(dp2383
S'NMN'
p2384
(lp2385
F2.5
aF8.8000000000000007
aF53.799999999999997
asS"tiazofurin riboside 5'-monophosphate"
p2386
(lp2387
F0.41999999999999998
aF0.55000000000000004
aF14.9
asS'NMNH'
p2388
(lp2389
F3.2999999999999998
aF7.2000000000000002
aF18.600000000000001
asS'ATP'
p2390
(lp2391
F2.5
aF8.8000000000000007
aF53.899999999999999
asS'nicotinic acid mononucleotide'
p2392
(lp2393
F3.7999999999999998
aF6.9000000000000004
aF42.899999999999999
assS'2.7.7.4'
p2394
(dp2395
sS'2.7.7.30'
p2396
(dp2397
S'tricyclic guanosine triphosphate'
p2398
(lp2399
F0.28999999999999998
asS'8-oxoguanosine triphosphate'
p2400
(lp2401
F2.6000000000000001
asS'L-fucose 1-phosphate'
p2402
(lp2403
F3.6000000000000001
asS'mannose 1-phosphate'
p2404
(lp2405
F0.20000000000000001
asS"2-amino-6-chloropurine-beta-D-riboside 5'-triphosphate"
p2406
(lp2407
F0.27000000000000002
asS'N1-methylguanosine triphosphate'
p2408
(lp2409
F0.02
asS'glucose 1,6-diphosphate'
p2410
(lp2411
F0.17999999999999999
asS'fructose 1-phosphate'
p2412
(lp2413
F0.029999999999999999
asS'O6-methylguanosine triphosphate'
p2414
(lp2415
F0.089999999999999997
asS'Galactose 1-phosphate'
p2416
(lp2417
F0.23000000000000001
asS'GTP'
p2418
(lp2419
F2.5
aF2.5
asS'arabinose 1-phosphate'
p2420
(lp2421
F0.40000000000000002
asS'N2-methylguanosine triphosphate'
p2422
(lp2423
F0.0089999999999999993
asS'ATP'
p2424
(lp2425
F0.0089999999999999993
asS'2-aminoadenosine triphosphate'
p2426
(lp2427
F0.32000000000000001
asS'xanthosine triphosphate'
p2428
(lp2429
F0.029999999999999999
asS'glucosamine 1-phosphate'
p2430
(lp2431
F0.20999999999999999
asS'7-deazaguanosine triphosphate'
p2432
(lp2433
F1.5
asS'ITP'
p2434
(lp2435
F1.2
asS'glucose 1-phosphate'
p2436
(lp2437
F0.32000000000000001
assS'2.6.1.39'
p2438
(dp2439
sS'5.3.3.5'
p2440
(dp2441
S'Zymosterol'
p2442
(lp2443
F0.42299999999999999
assS'5.2.1.3'
p2444
(dp2445
sS'4.1.1.28'
p2446
(dp2447
S'L-Dopa'
p2448
(lp2449
F0.070000000000000007
asS'dopamine'
p2450
(lp2451
F2.48
assS'5.2.1.7'
p2452
(dp2453
sS'1.1.1.211'
p2454
(dp2455
sS'1.3.3.4'
p2456
(dp2457
S'protoporphyrinogen IX'
p2458
(lp2459
F0.050000000000000003
asS'protoporphyrinogen-IX'
p2460
(lp2461
F0.17499999999999999
aF0.17499999999999999
aF0.17499999999999999
assS'1.3.3.6'
p2462
(dp2463
sS'1.3.3.1'
p2464
(dp2465
sS'1.3.3.2'
p2466
(dp2467
sS'1.3.3.3'
p2468
(dp2469
S'Harderoporphyrin'
p2470
(lp2471
F0.027
asS'coproporphyrinogen-IV'
p2472
(lp2473
F0.01167
aF0.028299999999999999
aF0.042999999999999997
asS'mesoporphyrin-VI'
p2474
(lp2475
F0.0063299999999999997
asS'3-[7-(2-carboxy-ethyl)-13,17-dipropyl-3,8,12,18-tetramethyl-porphyrinogen-2-yl]-propionic acid'
p2476
(lp2477
F0.000165
asS'3-[7,17-di(2-carboxy-ethyl)-13-ethyl-3,8,12,18-tetramethyl-porphyrinogen-2-yl]-propionic acid'
p2478
(lp2479
F0.028299999999999999
asS'Coproporphyrinogen-III'
p2480
(lp2481
F0.0033
aF0.0033
aF0.012500000000000001
aF0.016160000000000001
aF0.026700000000000002
aF0.044999999999999998
aF0.055
aF0.059999999999999998
aF0.059999999999999998
aF0.059999999999999998
aF1.8
aF16
asS'3-[7-(2-carboxy-ethyl)-13,17-diethyl-3,8,12,18-tetramethyl-porphyrinogen-2-yl]-propionic acid'
p2482
(lp2483
F0.0063
asS'mesoporphyrinogen-VI'
p2484
(lp2485
F0.0063
asS'3-[7,13-di(2-carboxy-ethyl)-17-ethyl-3,8,12,18-tetramethyl-porphyrinogen-2-yl]-propionic acid'
p2486
(lp2487
F0.0016999999999999999
asS'pentacarboxylate porphyrinogen 5dab'
p2488
(lp2489
F0.0089999999999999993
asS'3-[7-(2-carboxy-ethyl)-13,17-dibutyl-3,8,12,18-tetramethyl-porphyrinogen-2-yl]-propionic acid'
p2490
(lp2491
F6.0000000000000002e-06
asS'Harderoporphyrinogen'
p2492
(lp2493
F0.13170000000000001
assS'2.5.1.26'
p2494
(dp2495
sS'3.10.1.1'
p2496
(dp2497
sS'2.5.1.22'
p2498
(dp2499
S'spermidine'
p2500
(lp2501
F32
aF32
assS'2.5.1.21'
p2502
(dp2503
sS'1.2.1.12'
p2504
(dp2505
sS'1.15.1.1'
p2506
(dp2507
S'O2-'
p2508
(lp2509
F4600
aF40000
assS'3.2.1.46'
p2510
(dp2511
sS'1.2.1.16'
p2512
(dp2513
sS'5.3.99.4'
p2514
(dp2515
sS'3.1.6.4'
p2516
(dp2517
sS'1.2.1.19'
p2518
(dp2519
sS'1.5.3.1'
p2520
(dp2521
sS'1.5.3.7'
p2522
(dp2523
sS'2.4.1.101'
p2524
(dp2525
sS'2.2.1.1'
p2526
(dp2527
sS'2.2.1.2'
p2528
(dp2529
sS'2.4.1.102'
p2530
(dp2531
sS'3.5.1.42'
p2532
(dp2533
sS'1.5.5.1'
p2534
(dp2535
S'ubiquinone-4'
p2536
(lp2537
F35.5
asS'decylubiquinone'
p2538
(lp2539
F74.299999999999997
asS'electron-transferring flavoprotein'
p2540
(lp2541
F21.399999999999999
asS'semiquinone electron-transferring flavoprotein'
p2542
(lp2543
F81.400000000000006
asS'ubiquinone-1'
p2544
(lp2545
F33.5
asS'ubiqinone-2'
p2546
(lp2547
F78.799999999999997
assS'2.7.7.41'
p2548
(dp2549
sS'2.7.7.43'
p2550
(dp2551
sS'2.3.1.29'
p2552
(dp2553
sS'4.1.3.6'
p2554
(dp2555
sS'1.8.4.4'
p2556
(dp2557
sS'2.3.1.26'
p2558
(dp2559
sS'3.1.6.2'
p2560
(dp2561
S'dehydroepiandrosterone sulfate'
p2562
(lp2563
F6.4800000000000004
assS'2.7.3.2'
p2564
(dp2565
S'phosphocreatine'
p2566
(lp2567
F78.299999999999997
aF90
aF350
aF483.30000000000001
asS'ADP'
p2568
(lp2569
F78.299999999999997
aF90
aF350
aF483.30000000000001
asS'ATP'
p2570
(lp2571
F51.700000000000003
aF75
aF76
aF88
aF115
aF143
aF155
asS'Creatine'
p2572
(lp2573
F51.700000000000003
aF75
aF138
aF170
aF238
aF417
assS'2.3.1.21'
p2574
(dp2575
sS'4.2.1.107'
p2576
(dp2577
sS'1.1.1.28'
p2578
(dp2579
sS'3.4.17.1'
p2580
(dp2581
S'3-(2-furyl)acryloyl-L-Phe-L-Phe'
p2582
(lp2583
F44.299999999999997
asS'Met-enkephalin-L-Arg-L-Phe'
p2584
(lp2585
F1.45
asS'3-(2-furyl)acryloyl-L-Phe-L-Ala'
p2586
(lp2587
F24.300000000000001
asS'p-nitrophenyl acetate'
p2588
(lp2589
F0.042000000000000003
asS'3-(2-furyl)acryloyl-L-Phe-L-Val'
p2590
(lp2591
F19.399999999999999
asS'benzoyl-Gly-L-alpha-hydroxy-betaphenyllactate'
p2592
(lp2593
F505
asS'3-(2-furyl)acryloyl-L-Phe-L-Ile'
p2594
(lp2595
F12.4
asS'benzoyl-Gly-L-Phe'
p2596
(lp2597
F11.699999999999999
aF66.700000000000003
asS'angiotensin I'
p2598
(lp2599
F8.2300000000000004
asS'Leu-enkephalin'
p2600
(lp2601
F2.3300000000000001
asS'neurotensin'
p2602
(lp2603
F0.23999999999999999
asS'3-(2-furyl)acryloyl-L-Phe-L-Trp'
p2604
(lp2605
F57.299999999999997
asS'3-(2-furyl)acryloyl-L-Phe-L-Leu'
p2606
(lp2607
F13.4
asS'benzoyl-Gly-Gly-L-Phe'
p2608
(lp2609
F13.300000000000001
asS'benzoyl-Gly-Gly-L-alpha-hydroxy-beta-phenyllactate'
p2610
(lp2611
F767
asS'carbobenzoxy-Gly-L-Phe'
p2612
(lp2613
F48.299999999999997
aF112
asS'3-(2-furyl)acryloyl-L-Phe-L-Met'
p2614
(lp2615
F23.899999999999999
asS'Met-enkephalin'
p2616
(lp2617
F3.4300000000000002
assS'1.1.1.22'
p2618
(dp2619
S'NAD+'
p2620
(lp2621
F1.8
asS'UDP-alpha-D-glucose'
p2622
(lp2623
F1.3999999999999999
assS'1.14.17.1'
p2624
(dp2625
sS'1.1.1.20'
p2626
(dp2627
sS'1.1.1.27'
p2628
(dp2629
sS'2.7.1.113'
p2630
(dp2631
sS'3.5.4.9'
p2632
(dp2633
sS'1.3.1.72'
p2634
(dp2635
sS'1.6.5.5'
p2636
(dp2637
S'2-pentenal'
p2638
(lp2639
F0.20000000000000001
asS'1,2-naphthoquinone'
p2640
(lp2641
F2.7999999999999998
asS'2-hexenal'
p2642
(lp2643
F0.28000000000000003
asS'9,10-phenanthrenequinone'
p2644
(lp2645
F2.2000000000000002
asS'2-nonenal'
p2646
(lp2647
F0.11
asS'4-hydroxy-2-nonenal'
p2648
(lp2649
F1.1499999999999999
asS'4-hydroxy-2-hexenal'
p2650
(lp2651
F1.3300000000000001
asS'propenal'
p2652
(lp2653
F1.6599999999999999
asS'3-penten-2-one'
p2654
(lp2655
F0.20000000000000001
asS'3-nonen-2-one'
p2656
(lp2657
F0.20999999999999999
asS'3-buten-2-one'
p2658
(lp2659
F0.16
assS'1.6.5.4'
p2660
(dp2661
sS'1.14.15.4'
p2662
(dp2663
sS'3.5.4.5'
p2664
(dp2665
sS'3.5.4.4'
p2666
(dp2667
S'adenosine'
p2668
(lp2669
F180
assS'3.1.2.22'
p2670
(dp2671
sS'4.1.1.65'
p2672
(dp2673
sS'2.4.1.198'
p2674
(dp2675
sS'1.3.5.1'
p2676
(dp2677
sS'3.4.11.4'
p2678
(dp2679
S'Arg-Ser-Arg'
p2680
(lp2681
F0.56000000000000005
asS'Arg-Ala-Arg'
p2682
(lp2683
F5.2999999999999998
assS'2.1.1.114'
p2684
(dp2685
sS'3.6.3.1'
p2686
(dp2687
sS'3.6.3.6'
p2688
(dp2689
sS'3.5.99.6'
p2690
(dp2691
sS'3.6.3.9'
p2692
(dp2693
sS'1.14.13.9'
p2694
(dp2695
sS'1.14.13.8'
p2696
(dp2697
S'Methimazole'
p2698
(lp2699
F0.037999999999999999
aF0.042999999999999997
aF0.52500000000000002
asS'thiacetazone'
p2700
(lp2701
F0.023
aF0.085000000000000006
aF1.335
asS'Ethionamide'
p2702
(lp2703
F0.97299999999999998
assS'1.5.1.8'
p2704
(dp2705
sS'1.5.1.9'
p2706
(dp2707
sS'1.14.11.1'
p2708
(dp2709
S'2-oxoglutarate'
p2710
(lp2711
F0.39000000000000001
aF0.55000000000000004
aF5.0999999999999996
asS'(3S)-3-fluoro-4-(trimethylammonio)butanoate'
p2712
(lp2713
F0.10000000000000001
aF0.62
asS'4-(trimethylammonio)butanoic acid'
p2714
(lp2715
F5.2999999999999998
assS'2.8.2.17'
p2716
(dp2717
sS'1.14.11.2'
p2718
(dp2719
S'DALTLLAPAAGDTIISLDYG'
p2720
(lp2721
F0.0101
aF0.0103
asS'poly(ethylene glycol)-Gly-L-Tyr-(2S)-4-thiaproline-Gly-OCH2CH2OH'
p2722
(lp2723
F7.7999999999999998
asS'dansyl-Gly-Phe-Pro-Gly-OEt'
p2724
(lp2725
F0.14999999999999999
asS'poly(ethylene glycol)-Gly-L-Tyr-L-Pro-Gly-OCH2CH2OH'
p2726
(lp2727
F6
asS'DLDLEALAPYIPADDDFQL'
p2728
(lp2729
F0.018800000000000001
aF0.02
asS'(Pro-Pro-Gly)10'
p2730
(lp2731
F0.22
asS'poly(ethylene glycol)-Gly-L-Tyr-L-(2S,4S)-4-fluoroproline-Gly-OCH2CH2OH'
p2732
(lp2733
F4.2000000000000002
assS'1.5.1.2'
p2734
(dp2735
S'NADP+'
p2736
(lp2737
F55
asS'3,4-dehydro-L-proline'
p2738
(lp2739
F10
assS'1.5.1.3'
p2740
(dp2741
S'NADPH'
p2742
(lp2743
F51
asS'7,8-dihydrofolate'
p2744
(lp2745
F8.3300000000000001
aF10
aF10
asS'dihydrofolate'
p2746
(lp2747
F51
asS'folate'
p2748
(lp2749
F1.0800000000000001
assS'1.5.1.5'
p2750
(dp2751
S'NADP+'
p2752
(lp2753
F3.7999999999999998
aF10
asS'methylenetetrahydrofolate'
p2754
(lp2755
F3.2000000000000002
aF9.4000000000000004
assS'1.5.1.6'
p2756
(dp2757
sS'2.7.1.33'
p2758
(dp2759
sS'3.1.3.7'
p2760
(dp2761
sS'2.7.1.149'
p2762
(dp2763
sS'6.4.1.2'
p2764
(dp2765
S'acetyl-CoA'
p2766
(lp2767
F0.192
aF10.1
aF11.800000000000001
asS'ATP'
p2768
(lp2769
F0.155
assS'6.4.1.3'
p2770
(dp2771
sS'6.4.1.1'
p2772
(dp2773
sS'1.14.19.1'
p2774
(dp2775
sS'3.4.21.39'
p2776
(dp2777
S'DRVWIHPFHL'
p2778
(lp2779
F160
asS'succinyl-Phe-Gln-Phe-4-nitroanilide'
p2780
(lp2781
F3.8999999999999999
asS'Ala-Ala-Pro-Leu-4-nitroanilide'
p2782
(lp2783
F19.300000000000001
asS'Ala-Ala-Pro-Met-4-nitroanilide'
p2784
(lp2785
F23
asS'succinyl-Leu-Pro-Phe-4-nitroanilide'
p2786
(lp2787
F77
asS'DRVWIHPWHL'
p2788
(lp2789
F210
asS'DRVWIHOLHL'
p2790
(lp2791
F46
asS'Ala-Ala-Pro-Phe-4-nitroanilide'
p2792
(lp2793
F143
asS'succinyl-Lys-Val-Pro-Phe-4-nitroanilide'
p2794
(lp2795
F58
asS'succinyl-Phe-Glu-Phe-4-nitroanilide'
p2796
(lp2797
F8.4000000000000004
asS'angiotensin I'
p2798
(lp2799
F65
aF140
aF143
asS'succinyl-Ser-Pro-Phe-4-nitroanilide'
p2800
(lp2801
F38
asS'succinyl-L-Ala-L-Ala-L-Pro-L-Phe-thiobenzyl ester'
p2802
(lp2803
F12.6
aF17.800000000000001
asS'succinyl-Thr-Pro-Phe-4-nitroanilide'
p2804
(lp2805
F120
asS'succinyl-Phe-Ser-Phe-4-nitroanilide'
p2806
(lp2807
F6.2000000000000002
asS'succinyl-Ala-Ala-Pro-Leu-4-nitroanilide'
p2808
(lp2809
F6.7000000000000002
asS'succinyl-L-Ala-L-Ala-L-Pro-L-Phe-4-nitroanilide'
p2810
(lp2811
F2.5
aF3.6000000000000001
asS'succinyl-Leu-Val-Pro-Phe-4-nitroanilide'
p2812
(lp2813
F79
asS'succinyl-Met-Val-Pro-Phe-4-nitroanilide'
p2814
(lp2815
F53
asS'succinyl-Val-Pro-Met-4-nitroanilide'
p2816
(lp2817
F1.2
aF8.6999999999999993
aF8.6999999999999993
asS'succinyl-Gln-Pro-Phe-4-nitroanilide'
p2818
(lp2819
F56
aF86
asS'Big endothelin-1'
p2820
(lp2821
F24.699999999999999
aF25.600000000000001
asS'succinyl-Phe-Leu-Phe-4-nitroanilide'
p2822
(lp2823
F7.5
asS'succinyl-Ala-Pro-Phe-4-nitroanilide'
p2824
(lp2825
F51
asS'succinyl-Phe-Met-Phe-4-nitroanilide'
p2826
(lp2827
F5.9000000000000004
asS'succinyl-epsilon-(2-picolinyl)Lys-Val-Pro-Phe-4-nitroanilide'
p2828
(lp2829
F480
asS'succinyl-Glu-Val-Pro-Phe-4-nitroanilide'
p2830
(lp2831
F68
asS'succinyl-Val-Pro-Pro-Phe-SCH2C6H5'
p2832
(lp2833
F400
asS'succinyl-Met-Pro-Phe-4-nitroanilide'
p2834
(lp2835
F100
asS'succinyl-Glu-Pro-Phe-4-nitroanilide'
p2836
(lp2837
F61
asS'succinyl-Val-Pro-Tyr-4-nitroanilide'
p2838
(lp2839
F19
asS'succinyl-Phe-Ala-Phe-4-nitroanilide'
p2840
(lp2841
F10
asS'succinyl-Phe-Val-Phe-4-nitroanilide'
p2842
(lp2843
F4
asS'succinyl-Ala-Ala-Pro-Met-4-nitroanilide'
p2844
(lp2845
F2.5
asS'succinyl-Ala-Ala-Pro-Phe-4-nitroanilide'
p2846
(lp2847
F65
asS'succinyl-Val-Pro-Leu-4-nitroanilide'
p2848
(lp2849
F21
aF21
asS'succinyl-Phe-Val-Pro-Phe-4-nitroanilide'
p2850
(lp2851
F56
asS'succinyl-Val-Pro-Phe-4-nitroanilide'
p2852
(lp2853
F75
aF75
asS'succinyl-Lys-Pro-Phe-4-nitroanilide'
p2854
(lp2855
F14
asS'succinyl-Phe-Thr-Phe-4-nitroanilide'
p2856
(lp2857
F10
assS'2.7.1.140'
p2858
(dp2859
sS'2.4.1.148'
p2860
(dp2861
sS'4.2.1.47'
p2862
(dp2863
S'GDP-mannose'
p2864
(lp2865
F0.80000000000000004
assS'1.13.11.52'
p2866
(dp2867
S'5-methyl-tryptophan'
p2868
(lp2869
F3.7799999999999998
asS'5-hydroxy-tryptophan'
p2870
(lp2871
F0.025000000000000001
asS'5-fluoro-tryptophan'
p2872
(lp2873
F0.76000000000000001
asS'L-tryptophan'
p2874
(lp2875
F0.87
aF1
aF1.3
aF1.3999999999999999
aF1.3999999999999999
aF1.7
aF2.2000000000000002
aF2.2400000000000002
aF2.5
aF3
aF3.1000000000000001
aF3.2000000000000002
aF3.3999999999999999
aF3.5
aF4.2000000000000002
aF6.4000000000000004
aF8.0999999999999996
aF10
aF12
asS'1-methyl-L-tryptophan'
p2876
(lp2877
F0.064000000000000001
asS'O2'
p2878
(lp2879
F2.8999999999999999
asS'D-tryptophan'
p2880
(lp2881
F0.20000000000000001
aF3.9300000000000002
aF5.9000000000000004
assS'5.3.1.8'
p2882
(dp2883
S'beta-D-mannose 6-phosphate'
p2884
(lp2885
F3
assS'3.4.19.6'
p2886
(dp2887
sS'1.13.11.5'
p2888
(dp2889
S'homogentisate'
p2890
(lp2891
F10.1
aF32.200000000000003
aF43.399999999999999
assS'1.13.11.6'
p2892
(dp2893
sS'3.4.19.9'
p2894
(dp2895
sS'3.3.2.9'
p2896
(dp2897
sS'3.1.4.37'
p2898
(dp2899
sS'5.3.3.12'
p2900
(dp2901
sS'4.1.1.23'
p2902
(dp2903
S"orotidine 5'-phosphate"
p2904
(lp2905
F0.75
aF8.0999999999999996
assS'5.1.99.4'
p2906
(dp2907
S'(S)-2-methyldecanoyl-CoA'
p2908
(lp2909
F0.070000000000000007
asS'(S)-naproxenoyl-CoA'
p2910
(lp2911
F0.0094999999999999998
asS'(2S)-2-methyldecanoyl-CoA'
p2912
(lp2913
F0.031
asS'(S)-ketoprofenoyl-CoA'
p2914
(lp2915
F0.014999999999999999
assS'1.1.1.153'
p2916
(dp2917
sS'3.6.1.39'
p2918
(dp2919
sS'2.6.1.5'
p2920
(dp2921
S'2-oxoglutarate'
p2922
(lp2923
F0.25
asS'p-hydroxyphenylpyruvate'
p2924
(lp2925
F1.2
asS'L-glutamate'
p2926
(lp2927
F3.7999999999999998
aF69
asS'L-tyrosine'
p2928
(lp2929
F1
aF83
assS'1.13.11.27'
p2930
(dp2931
sS'1.13.11.20'
p2932
(dp2933
S'L-cysteine'
p2934
(lp2935
F1.7
assS'5.3.1.1'
p2936
(dp2937
sS'2.3.1.76'
p2938
(dp2939
sS'3.5.1.14'
p2940
(dp2941
S'N-propionyl-L-methionine'
p2942
(lp2943
F25.699999999999999
asS'N-butanoyl-L-methionine'
p2944
(lp2945
F139
asS'N-isobutanoyl-L-methionine'
p2946
(lp2947
F0.52900000000000003
aF6.0800000000000001
asS'N-acetyl-L-glutamine'
p2948
(lp2949
F30.699999999999999
asS'N-acetyl-L-cysteine'
p2950
(lp2951
F28.100000000000001
asS'N-acetyl-L-glutamate'
p2952
(lp2953
F156
aF156
asS'N-benzoyl-L-glutamate'
p2954
(lp2955
F0.0101
asS'2-acetylamino-3-((1S,2S)-2-hydroxy-2,2-dimethyl-chroman-4-ylsulfanyl)-propionic acid'
p2956
(lp2957
F150
asS'N-benzoyl-L-methionine'
p2958
(lp2959
F0.158
asS'N-2,2-dimethylpropionyl-L-methionine'
p2960
(lp2961
F0.0015
asS'N-isopentanoyl-L-methionine'
p2962
(lp2963
F0.105
asS'N-acetyl-L-methionine'
p2964
(lp2965
F38.299999999999997
aF38.299999999999997
asS'N-formyl-L-methionine'
p2966
(lp2967
F177
asS'N-acetyl-L-norleucine'
p2968
(lp2969
F156
asS'N-acetyl-L-leucine'
p2970
(lp2971
F55.5
asS'N-acetyl-L-phenylalanine'
p2972
(lp2973
F0.14000000000000001
asS'N-hexanoyl-L-methionine'
p2974
(lp2975
F16.100000000000001
asS'N-acetyl-L-Cys'
p2976
(lp2977
F30
asS'N-acetyl-L-valine'
p2978
(lp2979
F14.699999999999999
asS'2-acetylamino-3-[(S)-1-((R)-hydroxyphenyl-methyl)-2-oxo-2-phenyl-ethylsulfanyl]-propionic acid'
p2980
(lp2981
F80
asS'N-acetyl-L-ethionine'
p2982
(lp2983
F12.4
asS'N-acetyl-L-Met'
p2984
(lp2985
F65
asS'N-acetyl-glycine'
p2986
(lp2987
F31.699999999999999
asS'N-pentanoyl-L-methionine'
p2988
(lp2989
F16.199999999999999
asS'N-acetyl-L-histidine'
p2990
(lp2991
F1.2
asS'N-acetyl-L-threonine'
p2992
(lp2993
F2.23
asS'N-cyclopentanoyl-L-methionine'
p2994
(lp2995
F13.300000000000001
asS'2-acetylamino-3-((1S,2S)-2-hydroxycyclohexylsulfanyl)-propionic acid'
p2996
(lp2997
F120
asS'N-cyclohexanoyl-L-methionine'
p2998
(lp2999
F0.0062300000000000003
assS'3.1.3.27'
p3000
(dp3001
sS'3.5.1.16'
p3002
(dp3003
sS'2.3.1.78'
p3004
(dp3005
sS'3.4.11.1'
p3006
(dp3007
sS'3.5.1.12'
p3008
(dp3009
sS'3.4.11.2'
p3010
(dp3011
S'Ala-2-naphthylamide'
p3012
(lp3013
F303
assS'3.1.3.4'
p3014
(dp3015
S'1-arachidonoyl-2-lyso-sn-glycerol 3-phosphate'
p3016
(lp3017
F250
asS'1-oleoyl-2-lyso-sn-glycerol 3-phosphate'
p3018
(lp3019
F177
asS'1-myristoyl-sn-glycerol 3-phosphate'
p3020
(lp3021
F354
asS'1-stearyl-2-lyso-sn-glycerol 3-phosphate'
p3022
(lp3023
F125
assS'3.1.3.5'
p3024
(dp3025
S"5'-TMP"
p3026
(lp3027
F40
asS"5'-AMP"
p3028
(lp3029
F187
asS'Inosine'
p3030
(lp3031
F19
aF22
asS"5'-GMP"
p3032
(lp3033
F132
asS"5'-IMP"
p3034
(lp3035
F104
asS"5'-CMP"
p3036
(lp3037
F202
asS"5'-dAMP"
p3038
(lp3039
F174
asS'ribavirin'
p3040
(lp3041
F0.023
aF0.027
aF0.067000000000000004
aF0.14999999999999999
asS"5'-UMP"
p3042
(lp3043
F289
assS'2.7.1.67'
p3044
(dp3045
sS'2.4.1.149'
p3046
(dp3047
sS'1.14.99.25'
p3048
(dp3049
sS'3.1.3.2'
p3050
(dp3051
S'GDP'
p3052
(lp3053
F86
asS'UDP'
p3054
(lp3055
F79
asS'Alpha-naphthyl phosphate'
p3056
(lp3057
F53
asS'Phenyl phosphate'
p3058
(lp3059
F62
asS'ADP'
p3060
(lp3061
F73
asS'TTP'
p3062
(lp3063
F107
asS'4-methylumbelliferyl phosphate'
p3064
(lp3065
F121
asS'GTP'
p3066
(lp3067
F113
asS'UTP'
p3068
(lp3069
F119
asS'CDP'
p3070
(lp3071
F58
asS'ATP'
p3072
(lp3073
F119
asS'Phenolphthalein diphosphate'
p3074
(lp3075
F109
asS'CTP'
p3076
(lp3077
F93
asS'TDP'
p3078
(lp3079
F69
asS'p-nitrophenyl phosphate'
p3080
(lp3081
F198
asS'phosphoenolpyruvic acid'
p3082
(lp3083
F2
assS'3.1.3.3'
p3084
(dp3085
sS'2.4.1.145'
p3086
(dp3087
sS'2.4.1.144'
p3088
(dp3089
sS'2.4.1.147'
p3090
(dp3091
sS'2.4.1.141'
p3092
(dp3093
sS'3.1.3.9'
p3094
(dp3095
sS'2.4.1.143'
p3096
(dp3097
sS'2.4.1.142'
p3098
(dp3099
sS'3.6.1.1'
p3100
(dp3101
sS'4.1.2.14'
p3102
(dp3103
sS'3.6.1.5'
p3104
(dp3105
sS'3.6.1.7'
p3106
(dp3107
sS'1.6.1.2'
p3108
(dp3109
sS'3.6.1.9'
p3110
(dp3111
sS'3.6.1.6'
p3112
(dp3113
sS'3.2.1.52'
p3114
(dp3115
sS'4.1.3.4'
p3116
(dp3117
S'(S)-3-hydroxy-3-methylglutaryl-CoA'
p3118
(lp3119
F0.105
aF0.127
assS'2.6.19.4'
p3120
(dp3121
sS'3.1.1.7'
p3122
(dp3123
S'acetyl thiocholine'
p3124
(lp3125
F6500
assS'3.1.1.4'
p3126
(dp3127
sS'3.1.1.2'
p3128
(dp3129
S'propyl acetate'
p3130
(lp3131
F0.40000000000000002
asS'2,2,2-trifluoroethyl acetate'
p3132
(lp3133
F4
asS'4-cyanophenyl acetate'
p3134
(lp3135
F23
asS'2,4-difluorophenyl acetate'
p3136
(lp3137
F334
asS'4-acetoxybenzaldehyde'
p3138
(lp3139
F26
asS'2,6-difluorophenyl acetate'
p3140
(lp3141
F145
asS'4-acetoxy methyl benzoate'
p3142
(lp3143
F14
asS'4-diethyl phosphate methyl benzoate'
p3144
(lp3145
F0.24399999999999999
asS'ethyl acetate'
p3146
(lp3147
F0.24199999999999999
asS'2,3-difluorophenyl acetate'
p3148
(lp3149
F403
asS'3-fluorophenyl acetate'
p3150
(lp3151
F571
asS'4-nitrophenyl acetate'
p3152
(lp3153
F26
aF1300
asS'2-fluoroethyl acetate'
p3154
(lp3155
F0.5
asS'naphthalen-2-yl acetate'
p3156
(lp3157
F18
asS'3,4-dimethyl phenyl acetate'
p3158
(lp3159
F51
asS'Benzyl acetate'
p3160
(lp3161
F0.00080000000000000004
aF0.02
asS'1-phenylvinyl acetate'
p3162
(lp3163
F1
asS'2-fluorophenyl acetate'
p3164
(lp3165
F431
asS'butyl acetate'
p3166
(lp3167
F0.27000000000000002
asS'4-acetoxyacetophenone'
p3168
(lp3169
F13
asS'3-nitrophenyl acetate'
p3170
(lp3171
F59
asS'3-cyanophenyl acetate'
p3172
(lp3173
F125
asS'4-chlorophenyl acetate'
p3174
(lp3175
F117
asS'p-tolyl acetate'
p3176
(lp3177
F68
asS'2,2-difluoroethyl acetate'
p3178
(lp3179
F0.81999999999999995
asS'phenyl acetate'
p3180
(lp3181
F454
aF503
aF659
aF698
aF796
aF843.60000000000002
aF843.60000000000002
aF850
aF854
aF1200
aF1541
aF1901
aF3373
aF4778
assS'1.1.1.62'
p3182
(dp3183
S'dihydrotestosterone'
p3184
(lp3185
F0.33000000000000002
asS'estradiol-17beta'
p3186
(lp3187
F4.4000000000000004
asS'dehydroepiandrosterone'
p3188
(lp3189
F0.16
asS'estrone'
p3190
(lp3191
F5.7999999999999998
assS'3.1.1.1'
p3192
(dp3193
S'vinyl butanoate'
p3194
(lp3195
F210
asS'4-nitrophenyl butanoate'
p3196
(lp3197
F190
asS'7-ethyl-10-(4-(1-piperidino)-1-piperidino)carbonyloxycampothecin'
p3198
(lp3199
F1.5e-05
aF8.0000000000000007e-05
aF0.017000000000000001
asS'p-nitrophenyl acetate'
p3200
(lp3201
F17
aF70
asS'bioresmethrin'
p3202
(lp3203
F0.034000000000000002
asS'tributyrin'
p3204
(lp3205
F18
asS'1-naphthyl butyrate'
p3206
(lp3207
F48
asS'(1RS)-trans-permethrin'
p3208
(lp3209
F0.00080000000000000004
aF0.0028
asS'tripropionin'
p3210
(lp3211
F7
asS'(1RS)-cis-permethrin'
p3212
(lp3213
F0.028000000000000001
aF0.056000000000000001
asS'7-ethyl-10-(4-N-(5-aminopentanoic acid)-1-piperidino)carbonyloxycampothecin'
p3214
(lp3215
F0.00040999999999999999
asS'vinyl acetate'
p3216
(lp3217
F140
asS'vinyl propionate'
p3218
(lp3219
F105
asS'vinyl laurate'
p3220
(lp3221
F31
asS'N-acetyl-L-Ala-1-naphthyl ester'
p3222
(lp3223
F651
asS'7-ethyl-10-(4-(1-piperidino)-1-amino)carbonyloxycampothecin'
p3224
(lp3225
F3.0000000000000001e-06
aF0.00027
aF0.0040000000000000001
assS'3.4.15.1'
p3226
(dp3227
S'o-aminobenzoyl-GFSPFRA-(N-2,4-dinitrophenyl)ethylenediamine'
p3228
(lp3229
F3.3999999999999999
aF5
aF10.4
asS'o-aminobenzoyl-TDK-(dinitrophenyl)-P-OH'
p3230
(lp3231
F0.059999999999999998
aF1.1000000000000001
aF18.699999999999999
aF36.299999999999997
asS'o-aminobenzoyl-GFSPFEQ-(N-2,4-dinitrophenyl)ethylenediamine'
p3232
(lp3233
F2.2000000000000002
asS'o-aminobenzoyl-FRK-(dinitrophenyl)-P-OH'
p3234
(lp3235
F26.699999999999999
aF54.899999999999999
aF69.200000000000003
asS'o-aminobenzoyl-FDK-(dinitrophenyl)-P-OH'
p3236
(lp3237
F31
aF79
aF79.900000000000006
aF101.7
asS'o-aminobenzoyl-GFSPFQQ-(N-2,4-dinitrophenyl)ethylenediamine'
p3238
(lp3239
F0.29999999999999999
aF0.59999999999999998
aF2
asS'Substance P'
p3240
(lp3241
F3.75
asS'Mca-RPPGFSAFK(Dnp)-OH'
p3242
(lp3243
F20.329999999999998
asS'angiotensin'
p3244
(lp3245
F0.57999999999999996
aF8.3300000000000001
asS'2-furanacryloyl-Phe-Gly-Gly'
p3246
(lp3247
F368
asS'o-aminobenzoyl-GFSPFRN-(N-2,4-dinitrophenyl)ethylenediamine'
p3248
(lp3249
F1.8
aF3.2999999999999998
aF3.7999999999999998
asS'o-aminobenzoyl-GFSPFAQ-(N-2,4-dinitrophenyl)ethylenediamine'
p3250
(lp3251
F1
aF2
aF3.2999999999999998
asS'angiotensin I'
p3252
(lp3253
F8.6999999999999993
aF52
asS'o-aminobenzoyl-YDK-(dinitrophenyl)-P-OH'
p3254
(lp3255
F7
aF28.899999999999999
aF62.5
asS'o-aminobenzoyl-SDK-(dinitrophenyl)-P-OH'
p3256
(lp3257
F0.10000000000000001
aF24.600000000000001
aF44.200000000000003
asS'neurotensin'
p3258
(lp3259
F0.56699999999999995
asS'o-aminobenzoyl-GFSPFLQ-(N-2,4-dinitrophenyl)ethylenediamine'
p3260
(lp3261
F3
aF3.7000000000000002
aF4.7999999999999998
asS'bradykinin'
p3262
(lp3263
F8.3300000000000001
asS'o-aminobenzoyl-GFSPFFQ-(N-2,4-dinitrophenyl)ethylenediamine'
p3264
(lp3265
F2.3999999999999999
aF10.1
aF12.6
asS'furanacryloyl-L-Phe-Gly-Gly'
p3266
(lp3267
F179
asS'o-aminobenzoyl-TRK-(dinitrophenyl)-P-OH'
p3268
(lp3269
F0.20000000000000001
aF13.9
aF82
asS'o-aminobenzoyl-SRK-(dinitrophenyl)-P-OH'
p3270
(lp3271
F13.699999999999999
aF28.600000000000001
asS'amyloid beta-protein 1-42'
p3272
(lp3273
F4.2000000000000002
asS'benzoyl-Gly-Gly-Gly'
p3274
(lp3275
F283
asS'o-aminobenzoyl-GFSPFRS-(N-2,4-dinitrophenyl)ethylenediamine'
p3276
(lp3277
F0.90000000000000002
aF1.3
aF2.3999999999999999
asS'[Arg10]angiotensin I'
p3278
(lp3279
F460
asS'Leu5-enkephalin'
p3280
(lp3281
F11.699999999999999
asS'Abz-SDK(Dnp)P-OH'
p3282
(lp3283
F3
asS'o-aminobenzoyl-GFSPFSQ-(N-2,4-dinitrophenyl)ethylenediamine'
p3284
(lp3285
F0.80000000000000004
aF2
aF2.2999999999999998
asS'[Phe9,Arg10]angiotensin I'
p3286
(lp3287
F1400
asS'Abz-LFK(Dnp)-OH'
p3288
(lp3289
F23
asS'benzoyl-Gly-His-Leu'
p3290
(lp3291
F76.700000000000003
asS'o-aminobenzoyl-GFSPFRR-(N-2,4-dinitrophenyl)ethylenediamine'
p3292
(lp3293
F0.90000000000000002
aF1
aF1.3999999999999999
asS'o-aminobenzoyl-GFSPFRF-(N-2,4-dinitrophenyl)ethylenediamine'
p3294
(lp3295
F1
aF1.3999999999999999
aF4.2000000000000002
asS'o-aminobenzoyl-GFSPFRQ-(N-2,4-dinitrophenyl)ethylenediamine'
p3296
(lp3297
F2.2000000000000002
aF2.7000000000000002
aF4.2000000000000002
asS'hippuryl-His-Leu'
p3298
(lp3299
F196
aF414
aF545
asS'[Phe9]angiotensin I'
p3300
(lp3301
F550
asS'benzoyl-Gly-Phe-Arg'
p3302
(lp3303
F383
asS'Met5-enkephalin'
p3304
(lp3305
F58.299999999999997
asS'o-aminobenzoyl-YRK-(dinitrophenyl)-P-OH'
p3306
(lp3307
F1.01
aF58.799999999999997
aF85.599999999999994
asS'o-aminobenzoyl-GFSPFRI-(N-2,4-dinitrophenyl)ethylenediamine'
p3308
(lp3309
F2.6000000000000001
aF2.8999999999999999
aF8.6999999999999993
assS'4.4.1.1'
p3310
(dp3311
S'cystathionine'
p3312
(lp3313
F1.8999999999999999
asS'L-homocysteine'
p3314
(lp3315
F3.5
aF3.7000000000000002
asS'L-cystathionine'
p3316
(lp3317
F1.7
aF1.8999999999999999
aF7.5
asS'L-cysteine'
p3318
(lp3319
F0.40000000000000002
aF0.67000000000000004
assS'4.4.1.5'
p3320
(dp3321
S'glutathione ethyl ester'
p3322
(lp3323
F164
asS'trypanothione'
p3324
(lp3325
F104
asS'glutathione'
p3326
(lp3327
F1360
asS'methylglyoxal/glutathione hemithioacetal'
p3328
(lp3329
F1820
asS'glutathione isopropyl ester'
p3330
(lp3331
F222
asS'N-[3-[(4-aminobutyl)amino]propyl]-L-gamma-glutamyl-L-cysteinylglycine'
p3332
(lp3333
F83
asS'methylglyoxal'
p3334
(lp3335
F1130
aF1130
asS'Phenylglyoxal'
p3336
(lp3337
F1070
aF1070
assS'3.2.1.18'
p3338
(dp3339
sS'3.2.1.10'
p3340
(dp3341
sS'3.2.1.14'
p3342
(dp3343
S'4-methylumbelliferyl-(4-deoxy)chitobiose'
p3344
(lp3345
F0.050000000000000003
assS'3.5.1.89'
p3346
(dp3347
sS'1.3.1.2'
p3348
(dp3349
sS'1.3.1.1'
p3350
(dp3351
sS'3.4.13.3'
p3352
(dp3353
sS'2.6.1.21'
p3354
(dp3355
sS'3.5.4.1'
p3356
(dp3357
sS'2.7.1.137'
p3358
(dp3359
sS'2.7.1.134'
p3360
(dp3361
sS'2.1.4.1'
p3362
(dp3363
sS'3.1.3.36'
p3364
(dp3365
sS'2.7.1.138'
p3366
(dp3367
sS'1.1.1.181'
p3368
(dp3369
sS'1.1.1.184'
p3370
(dp3371
S'1,2-naphthoquinone'
p3372
(lp3373
F3.4700000000000002
aF6.7000000000000002
asS'prostaglandin E2'
p3374
(lp3375
F25
asS'9,10-phenanthrenequinone'
p3376
(lp3377
F3.5699999999999998
aF5.25
aF6.7000000000000002
asS'daunorubicin'
p3378
(lp3379
F1.9399999999999999
aF91
asS'NADPH'
p3380
(lp3381
F179
asS'doxorubicin'
p3382
(lp3383
F0.0103
aF0.20999999999999999
asS'1,4-Naphthoquinone'
p3384
(lp3385
F0.25
aF0.55000000000000004
asS'isatin'
p3386
(lp3387
F0.17000000000000001
aF9.7699999999999996
asS'2,3-Hexanedione'
p3388
(lp3389
F0.32000000000000001
aF5.1299999999999999
asS'menadione'
p3390
(lp3391
F0.010999999999999999
aF0.28000000000000003
aF0.29999999999999999
aF0.68000000000000005
aF110
asS'4-benzoylpyridine'
p3392
(lp3393
F0.0103
aF0.29999999999999999
aF1.2
asS'S-nitrosoglutathione'
p3394
(lp3395
F2.6200000000000001
assS'2.1.2.5'
p3396
(dp3397
sS'2.7.1.40'
p3398
(dp3399
sS'1.1.1.188'
p3400
(dp3401
S'9,10-phenanthrenequinone'
p3402
(lp3403
F1.3999999999999999
asS'androst-4-ene-3,17-dione'
p3404
(lp3405
F0.0027000000000000001
assS'2.1.2.1'
p3406
(dp3407
S'L-serine'
p3408
(lp3409
F9.5800000000000001
asS'tetrahydrofolate'
p3410
(lp3411
F0.040000000000000001
assS'2.1.2.2'
p3412
(dp3413
S'beta-glycinamide ribonucleotide'
p3414
(lp3415
F0.0033999999999999998
aF0.026200000000000001
aF0.066199999999999995
aF0.26200000000000001
aF0.29299999999999998
aF0.63
aF7.5
asS'10-formyl-5,8-dideazafolate'
p3416
(lp3417
F0.0019
aF0.0058999999999999999
aF0.017999999999999999
aF0.031
aF0.042999999999999997
aF0.10199999999999999
assS'2.1.2.3'
p3418
(dp3419
sS'1.3.1.21'
p3420
(dp3421
sS'1.3.1.20'
p3422
(dp3423
S'cholic acid'
p3424
(lp3425
F0.23300000000000001
asS'5beta-Androstan-3alpha,17beta-diol'
p3426
(lp3427
F0.108
asS'trans-benzene dihydrodiol'
p3428
(lp3429
F0.0117
aF0.014999999999999999
aF0.0183
aF0.031699999999999999
aF0.033300000000000003
aF0.048300000000000003
aF0.0533
asS'1-Acenaphthenol'
p3430
(lp3431
F0.125
aF0.41699999999999998
aF0.48999999999999999
aF0.58499999999999996
asS'(S)-indan-1-ol'
p3432
(lp3433
F0.086699999999999999
aF0.123
aF0.158
aF0.158
aF0.16300000000000001
aF0.16700000000000001
aF0.20799999999999999
asS'androsterone'
p3434
(lp3435
F0.0066699999999999997
aF0.0183
assS'6.2.1.7'
p3436
(dp3437
sS'1.3.1.24'
p3438
(dp3439
sS'1.3.1.27'
p3440
(dp3441
S'4-hydroxy-2-hexenal'
p3442
(lp3443
F1.3300000000000001
asS'2-nonenal'
p3444
(lp3445
F0.113
asS'4-hydroxy-2-nonenal'
p3446
(lp3447
F1.1499999999999999
asS'3-buten-2-one'
p3448
(lp3449
F0.16700000000000001
assS'6.2.1.3'
p3450
(dp3451
sS'6.3.2.5'
p3452
(dp3453
S'CTP'
p3454
(lp3455
F0.53000000000000003
asS'ATP'
p3456
(lp3457
F0.56000000000000005
assS'1.13.99.1'
p3458
(dp3459
sS'3.1.1.47'
p3460
(dp3461
S'2-acetyl-1-oleoyl-sn-glycerol'
p3462
(lp3463
F0.25
aF3
asS'2-acetyl-1-hexadecyl-sn-glycero-3-phosphocholine'
p3464
(lp3465
F0.34000000000000002
aF3.2000000000000002
aF24.600000000000001
asS'triacetylglycerol'
p3466
(lp3467
F1.7
aF16.5
aF37
asS'octyl acetate'
p3468
(lp3469
F0.28000000000000003
aF0.68999999999999995
aF1.8999999999999999
aF6.0800000000000001
asS'2-acetyl-1-octadecyl-sn-glycero-3-phosphocholine'
p3470
(lp3471
F0.68000000000000005
aF4.7999999999999998
aF6.0800000000000001
asS'1-acetyl-2-hexadecyl-sn-glycero-3-phosphocholine'
p3472
(lp3473
F1.1000000000000001
aF8.0999999999999996
assS'4.1.1.32'
p3474
(dp3475
sS'2.1.1.20'
p3476
(dp3477
S'S-adenosyl-L-methionine'
p3478
(lp3479
F1.6000000000000001
asS'Gly'
p3480
(lp3481
F1.6000000000000001
assS'4.1.1.30'
p3482
(dp3483
sS'4.1.1.37'
p3484
(dp3485
sS'4.1.1.36'
p3486
(dp3487
S"(R)-4'-phospho-N-pantothenoylcysteine"
p3488
(lp3489
F2.8999999999999999
assS'4.1.1.35'
p3490
(dp3491
sS'4.1.1.34'
p3492
(dp3493
sS'2.1.1.28'
p3494
(dp3495
S'octopamine'
p3496
(lp3497
F0.02
aF0.021000000000000001
asS'S-adenosyl-L-methionine'
p3498
(lp3499
F0.047300000000000002
asS'3-trifluoromethylphenylethanolamine'
p3500
(lp3501
F0.0080000000000000002
aF0.0083000000000000001
asS'cis-(1R,2S)-2-amino-1-tetralol'
p3502
(lp3503
F0.0047999999999999996
asS'anti-9-amino-6-(trifluoromethyl)benzonorbornene'
p3504
(lp3505
F0.0061999999999999998
asS'phenylethanolamine'
p3506
(lp3507
F0.042999999999999997
aF0.044999999999999998
aF0.047
assS'3.1.3.46'
p3508
(dp3509
sS'3.1.3.41'
p3510
(dp3511
sS'1.2.1.4'
p3512
(dp3513
sS'1.13.11.11'
p3514
(dp3515
S'L-Trp'
p3516
(lp3517
F1.55
asS'5-hydroxy-L-tryptophan'
p3518
(lp3519
F0.065000000000000002
asS'D-Trp'
p3520
(lp3521
F2.0699999999999998
asS'L-tryptophan'
p3522
(lp3523
F0.59999999999999998
aF1.3999999999999999
aF1.3999999999999999
aF2.1000000000000001
aF6.1200000000000001
asS'5-fluoro-tryptophan'
p3524
(lp3525
F0.17999999999999999
asS'D-tryptophan'
p3526
(lp3527
F0.20000000000000001
assS'4.6.1.2'
p3528
(dp3529
sS'4.3.1.8'
p3530
(dp3531
sS'2.8.3.5'
p3532
(dp3533
sS'1.13.11.19'
p3534
(dp3535
sS'3.5.3.1'
p3536
(dp3537
S'L-arginine'
p3538
(lp3539
F190
aF190
assS'3.1.1.3'
p3540
(dp3541
sS'5.5.1.4'
p3542
(dp3543
sS'4.3.1.4'
p3544
(dp3545
sS'5.2.1.2'
p3546
(dp3547
S'4-Maleylacetoacetate'
p3548
(lp3549
F464
asS'(+/-)-2-bromo-3-(4-nitrophenyl)propionic acid'
p3550
(lp3551
F0.55000000000000004
aF0.58999999999999997
aF0.81999999999999995
aF1.3
assS'5.3.1.9'
p3552
(dp3553
S'fructose 6-phosphate'
p3554
(lp3555
F3330
asS'D-glucose 6-phosphate'
p3556
(lp3557
F500
assS'2.4.1.201'
p3558
(dp3559
sS'1.5.3.11'
p3560
(dp3561
sS'2.4.99.6'
p3562
(dp3563
sS'2.4.99.7'
p3564
(dp3565
sS'2.4.99.4'
p3566
(dp3567
sS'1.2.4.2'
p3568
(dp3569
sS'2.4.99.3'
p3570
(dp3571
sS'1.5.1.29'
p3572
(dp3573
sS'1.2.4.1'
p3574
(dp3575
S'pyruvate'
p3576
(lp3577
F0.076999999999999999
aF66.099999999999994
aF69.900000000000006
assS'2.4.99.8'
p3578
(dp3579
sS'1.5.1.20'
p3580
(dp3581
sS'3.2.1.1'
p3582
(dp3583
S'2-chloro-4-nitrophenyl alpha-D-maltotrioside'
p3584
(lp3585
F2.98
asS'alpha-maltosyl fluoride'
p3586
(lp3587
F443
asS'alpha-maltotriosyl fluoride'
p3588
(lp3589
F283
aF285
asS'2-chloro-4-nitrophenyl alpha-maltotrioside'
p3590
(lp3591
F1.8999999999999999
aF2
aF2.1000000000000001
aF2.2000000000000002
aF2.3999999999999999
aF3.5
aF4.4000000000000004
aF15.800000000000001
asS'p-nitrophenylhexa[alpha-D-glucopyranosyl(1-4)]-alpha-D-glucopyranoside'
p3592
(lp3593
F175
asS'maltosyl fluoride'
p3594
(lp3595
F150
assS'3.2.1.3'
p3596
(dp3597
sS'4.2.1.4'
p3598
(dp3599
sS'4.2.1.2'
p3600
(dp3601
sS'4.2.1.3'
p3602
(dp3603
sS'4.2.1.1'
p3604
(dp3605
S'CO2'
p3606
(lp3607
F0.00040000000000000002
aF800
aF13000
aF13000
aF18300
aF130000
aF150000
aF150000
aF150000
aF200000
aF1400000
aF1400000
asS'H2CO3'
p3608
(lp3609
F28700
aF29500
assS'1.1.1.50'
p3610
(dp3611
S'3beta-hydroxytibolone'
p3612
(lp3613
F1.5999999999999999e-05
aF0.00050000000000000001
aF0.0040000000000000001
aF0.016
asS'allopregnanolone'
p3614
(lp3615
F0.00017000000000000001
asS'4-pregnen-3alpha,20beta-diol'
p3616
(lp3617
F0.0023
aF0.0025000000000000001
aF0.045999999999999999
aF0.073499999999999996
asS'testosterone'
p3618
(lp3619
F0.075700000000000003
asS'9,10-phenanthrenequinone'
p3620
(lp3621
F18.899999999999999
asS'stanolone'
p3622
(lp3623
F0.0167
asS'oxidized 8-acetyl-2,3,5,6-tetrahydro-1H,4H-11-oxa-3a-azabenzo[de]anthracen-10-one'
p3624
(lp3625
F0.14000000000000001
asS'(2Z)-2-(5-hydroxy-4,6-dimethyl-2-oxo-1,2-dihydro-3H-indol-3-ylidene)-N,N-di(prop-2-en-1-yl)hydrazinecarbothioamide'
p3626
(lp3627
F0.0040000000000000001
aF0.0167
aF0.20300000000000001
aF0.32000000000000001
aF0.50700000000000001
asS'3alpha-hydroxytibolone'
p3628
(lp3629
F1.5999999999999999e-05
aF0.012
asS'5alpha-dihydroprogesterone'
p3630
(lp3631
F0.0030000000000000001
aF0.0040000000000000001
aF0.0080000000000000002
aF0.040000000000000001
asS'androstanedione'
p3632
(lp3633
F1.8999999999999999
asS'3alpha-adiol'
p3634
(lp3635
F0.183
asS'NADP+'
p3636
(lp3637
F0.00017000000000000001
asS'androsterone'
p3638
(lp3639
F0.0078300000000000002
aF0.13300000000000001
asS'NADPH'
p3640
(lp3641
F0.0030000000000000001
asS'5beta-dihydroprogesterone'
p3642
(lp3643
F0.0167
aF0.017999999999999999
aF0.050000000000000003
asS'4-Nitrobenzaldehyde'
p3644
(lp3645
F1.0800000000000001
asS'5alpha-dihydrotestosterone'
p3646
(lp3647
F0.0038
aF0.02
aF0.039800000000000002
aF0.096500000000000002
aF0.114
assS'4.2.3.1'
p3648
(dp3649
sS'1.14.13.17'
p3650
(dp3651
S'lathosterol'
p3652
(lp3653
F0.059999999999999998
aF0.12
asS'7-dehydrocholesterol'
p3654
(lp3655
F0.040000000000000001
assS'2.6.1.22'
p3656
(dp3657
sS'1.14.13.15'
p3658
(dp3659
S'(24S)-3beta-hydroxy-24-methyl-5alpha-cholesta-8(14),22-dien-15-one'
p3660
(lp3661
F0.0183
asS'3beta-hydroxy-5alpha-cholest-8(14)-en-15-one'
p3662
(lp3663
F0.072999999999999995
assS'4.2.3.2'
p3664
(dp3665
sS'6.3.4.3'
p3666
(dp3667
sS'4.99.1.1'
p3668
(dp3669
S'Zn2+'
p3670
(lp3671
F3.2000000000000002
aF3.5
asS'Fe2+'
p3672
(lp3673
F0.017999999999999999
aF0.10000000000000001
asS'porphyrin'
p3674
(lp3675
F0.057299999999999997
assS'3.5.3.11'
p3676
(dp3677
S'agmatine'
p3678
(lp3679
F3
assS'1.1.1.204'
p3680
(dp3681
sS'1.1.1.205'
p3682
(dp3683
S'NAD+'
p3684
(lp3685
F0.021700000000000001
aF0.025000000000000001
aF0.39000000000000001
asS'IMP'
p3686
(lp3687
F0.023300000000000001
aF0.029999999999999999
asS"inosine 5'-phosphate"
p3688
(lp3689
F0.17999999999999999
aF0.31
aF1.3999999999999999
aF1.47
aF1.8
assS'2.4.1.47'
p3690
(dp3691
sS'2.4.1.41'
p3692
(dp3693
S'MUC5AC'
p3694
(lp3695
F0.040000000000000001
aF0.050000000000000003
aF0.051999999999999998
aF0.052999999999999999
aF0.123
aF0.193
asS'MUC5AC-3,13'
p3696
(lp3697
F0.52000000000000002
aF0.76000000000000001
aF1.3999999999999999
asS'MUC5AC-9'
p3698
(lp3699
F0.127
asS'MUC5AC-13'
p3700
(lp3701
F0.067000000000000004
aF0.074999999999999997
aF0.10299999999999999
aF0.108
aF0.17000000000000001
aF0.28999999999999998
aF0.31
aF0.40000000000000002
asS'MUC5AC-3'
p3702
(lp3703
F0.040000000000000001
aF0.058000000000000003
aF0.13700000000000001
aF0.14999999999999999
aF0.218
aF0.22
aF0.23999999999999999
aF0.33000000000000002
assS'2.3.1.88'
p3704
(dp3705
sS'3.2.1.113'
p3706
(dp3707
S'Manalpha(1-2)Manalpha(1-6)(Manalpha(1-2)Manalpha(1-3))Manalpha(1-6)Manalpha(1-2)Manalpha(1-2)Manalpha(1-3)Manbeta(1-4)GlcNAc'
p3708
(lp3709
F3.7000000000000002
asS'Manalpha(1-2)Manalpha(1-3)Manalpha(1-6)Manalpha(1-2)Manalpha(1-2)Manalpha(1-3)Manbeta(1-4)GlcNAc'
p3710
(lp3711
F3.7000000000000002
assS'2.3.1.86'
p3712
(dp3713
sS'2.3.1.87'
p3714
(dp3715
S'serotonin'
p3716
(lp3717
F17.300000000000001
aF20.300000000000001
aF25.899999999999999
assS'2.3.1.85'
p3718
(dp3719
S'malonyl-CoA'
p3720
(lp3721
F2.7000000000000002
asS'acetyl-CoA'
p3722
(lp3723
F2.7000000000000002
assS'1.2.1.27'
p3724
(dp3725
sS'1.2.1.24'
p3726
(dp3727
sS'3.2.1.51'
p3728
(dp3729
sS'3.2.1.50'
p3730
(dp3731
sS'1.2.1.21'
p3732
(dp3733
sS'3.6.1.45'
p3734
(dp3735
sS'3.6.1.43'
p3736
(dp3737
sS'1.2.1.29'
p3738
(dp3739
sS'2.4.1.117'
p3740
(dp3741
sS'2.4.1.119'
p3742
(dp3743
sS'1.14.13.67'
p3744
(dp3745
sS'2.3.1.39'
p3746
(dp3747
sS'2.3.1.38'
p3748
(dp3749
sS'2.3.1.37'
p3750
(dp3751
sS'1.14.11.8'
p3752
(dp3753
sS'4.2.1.74'
p3754
(dp3755
sS'4.2.1.75'
p3756
(dp3757
S'Hydroxymethylbilane'
p3758
(lp3759
F5.8300000000000001
aF30
aF890
assS'6.3.4.4'
p3760
(dp3761
sS'1.1.1.19'
p3762
(dp3763
sS'1.1.1.14'
p3764
(dp3765
sS'1.1.1.15'
p3766
(dp3767
sS'1.1.1.12'
p3768
(dp3769
sS'1.1.1.10'
p3770
(dp3771
S'D-ribulose'
p3772
(lp3773
F0.52000000000000002
asS'L-erythrulose'
p3774
(lp3775
F0.59999999999999998
asS'D-threitol'
p3776
(lp3777
F0.47999999999999998
asS'NADH'
p3778
(lp3779
F3.7999999999999998
asS'L-threose'
p3780
(lp3781
F0.52000000000000002
asS'D-xylulose'
p3782
(lp3783
F0.10000000000000001
asS'dihydroxyacetone'
p3784
(lp3785
F0.23000000000000001
asS'NADPH'
p3786
(lp3787
F1.5
asS'L-xylulose'
p3788
(lp3789
F0.65000000000000002
asS'xylitol'
p3790
(lp3791
F0.59999999999999998
asS'D-erythrose'
p3792
(lp3793
F0.42999999999999999
asS'acetoin'
p3794
(lp3795
F0.65000000000000002
asS'NAD+'
p3796
(lp3797
F1.5
asS'NADP+'
p3798
(lp3799
F0.65000000000000002
asS'DL-glyceraldehyde'
p3800
(lp3801
F0.52000000000000002
asS'D-threose'
p3802
(lp3803
F0.81999999999999995
asS'diacetyl'
p3804
(lp3805
F1.5700000000000001
aF1.6000000000000001
assS'2.7.1.82'
p3806
(dp3807
S'ethanolamine'
p3808
(lp3809
F0.00016000000000000001
assS'1.1.1.1'
p3810
(dp3811
S'3-Phenyl-1-propanol'
p3812
(lp3813
F7.5
asS'2-deoxy-D-ribose'
p3814
(lp3815
F2.8300000000000001
asS'Vanillyl alcohol'
p3816
(lp3817
F0.46700000000000003
aF8.6699999999999999
asS'16-hydroxyhexadecanoate'
p3818
(lp3819
F6.1699999999999999
asS'Pentanol'
p3820
(lp3821
F0.245
aF0.66700000000000004
aF8
aF16
asS'4-oxo-retinal'
p3822
(lp3823
F0.16700000000000001
aF7.8300000000000001
aF20
asS'3-Pyridylcarbinol'
p3824
(lp3825
F0.68300000000000005
asS'2-propanol'
p3826
(lp3827
F0.75
asS'ethylene glycol'
p3828
(lp3829
F0.75
asS'4-hydroxy-retinol'
p3830
(lp3831
F0.091999999999999998
aF2.8300000000000001
aF34.200000000000003
asS'methanol'
p3832
(lp3833
F0.10199999999999999
asS'12-hydroxydodecanoate'
p3834
(lp3835
F2.9500000000000002
aF3.0299999999999998
aF4
asS'Hexanol'
p3836
(lp3837
F19.5
asS'butanol'
p3838
(lp3839
F0.69999999999999996
aF34.799999999999997
asS'1-Octanol'
p3840
(lp3841
F2.8300000000000001
asS'octanal'
p3842
(lp3843
F3.3300000000000001
asS'Cyclohexanol'
p3844
(lp3845
F0.58299999999999996
asS'Propanol'
p3846
(lp3847
F17.199999999999999
asS'ethanol'
p3848
(lp3849
F0.69999999999999996
aF2.5
aF3.8300000000000001
aF4
aF7.8300000000000001
aF30.699999999999999
asS'12-Hydroxydodecanoic acid'
p3850
(lp3851
F0.33300000000000002
asS'benzyl alcohol'
p3852
(lp3853
F4.6699999999999999
aF9.1699999999999999
asS'NAD+'
p3854
(lp3855
F0.71699999999999997
asS'all-trans-retinol'
p3856
(lp3857
F0.028000000000000001
aF0.25
aF0.40000000000000002
aF0.90000000000000002
asS'3,4-dihydro-retinol'
p3858
(lp3859
F0.087999999999999995
aF2.5
asS'3,4-dihydro-retinal'
p3860
(lp3861
F0.22
aF1.22
asS'1-Pentanol'
p3862
(lp3863
F0.183
asS'Octanol'
p3864
(lp3865
F4.3300000000000001
aF7.3300000000000001
aF8.3300000000000001
asS'all-trans-retinal'
p3866
(lp3867
F0.017999999999999999
aF0.55000000000000004
aF1.8300000000000001
asS'tryptophol'
p3868
(lp3869
F1.8300000000000001
asS'(S)-2-butanol'
p3870
(lp3871
F2.1699999999999999
assS'1.1.1.2'
p3872
(dp3873
S'phenylethanediol'
p3874
(lp3875
F0.080000000000000002
asS'4-Hydroxy-3-methoxybenzyl alcohol'
p3876
(lp3877
F0.14799999999999999
asS'Phenylethanol'
p3878
(lp3879
F0.028299999999999999
asS'p-nitrobenzaldehyde'
p3880
(lp3881
F9.5
asS'glycerol'
p3882
(lp3883
F0.028299999999999999
asS'Propane-1,2-diol'
p3884
(lp3885
F0.043299999999999998
asS'benzylalcohol'
p3886
(lp3887
F0.073300000000000004
assS'1.13.11.31'
p3888
(dp3889
S'arachidonate'
p3890
(lp3891
F2.5
aF14
aF17.800000000000001
aF46
asS'arachidonic acid'
p3892
(lp3893
F1.3999999999999999
aF20
asS'O2'
p3894
(lp3895
F13.1
assS'1.1.1.8'
p3896
(dp3897
sS'1.1.1.9'
p3898
(dp3899
sS'3.2.1.20'
p3900
(dp3901
sS'3.2.1.21'
p3902
(dp3903
sS'3.2.1.22'
p3904
(dp3905
sS'3.2.1.23'
p3906
(dp3907
sS'3.2.1.24'
p3908
(dp3909
sS'3.2.1.25'
p3910
(dp3911
sS'3.2.1.26'
p3912
(dp3913
sS'4.2.3.3'
p3914
(dp3915
sS'3.2.1.28'
p3916
(dp3917
sS'1.13.11.34'
p3918
(dp3919
sS'2.8.2.23'
p3920
(dp3921
sS'2.3.2.4'
p3922
(dp3923
sS'2.3.2.2'
p3924
(dp3925
S'4-nitroanilide'
p3926
(lp3927
F1150
ass.