(dp1
S'2.3.1.137'
p2
(dp3
sS'2.3.1.61'
p4
(dp5
sS'3.4.21.59'
p6
(dp7
S'4407'
p8
(lp9
F2.7999999999999998
aF5
aF5.2000000000000002
aF5.2999999999999998
asS'25075'
p10
(lp11
F187
asS'25077'
p12
(lp13
F378
asS'25076'
p14
(lp15
F233
asS'25079'
p16
(lp17
F367
asS'25078'
p18
(lp19
F435
asS'25082'
p20
(lp21
F159
asS'3271'
p22
(lp23
F551
aF553
asS'1611'
p24
(lp25
F0.029999999999999999
aF1.6599999999999999
aF2.5099999999999998
aF2.9399999999999999
aF3
aF6.5099999999999998
aF8.9000000000000004
asS'20215'
p26
(lp27
F2040
asS'5706'
p28
(lp29
F1.8999999999999999
aF3
aF5.4000000000000004
aF10.300000000000001
asS'13617'
p30
(lp31
F1870
asS'20219'
p32
(lp33
F5.3499999999999996
aF5.5199999999999996
asS'8956'
p34
(lp35
F0.96999999999999997
aF0.98999999999999999
asS'5067'
p36
(lp37
F1.5
aF1.7
aF2.6000000000000001
aF56.399999999999999
aF56.899999999999999
asS'20222'
p38
(lp39
F104
aF107
asS'5068'
p40
(lp41
F15.199999999999999
aF22.899999999999999
aF30.5
aF2628
aF2630
asS'3624'
p42
(lp43
F27.899999999999999
aF40
aF45.899999999999999
aF75.5
asS'29181'
p44
(lp45
F45.700000000000003
asS'7645'
p46
(lp47
F3.7999999999999998
aF21.75
aF21.800000000000001
asS'20227'
p48
(lp49
F3290
asS'8957'
p50
(lp51
F0.98999999999999999
aF1.1000000000000001
asS'3396'
p52
(lp53
F0.83299999999999996
aF7.0999999999999996
aF16.300000000000001
aF21.100000000000001
aF31
asS'3423'
p54
(lp55
F170
asS'20228'
p56
(lp57
F1520
asS'25080'
p58
(lp59
F199
asS'25081'
p60
(lp61
F141
asS'8958'
p62
(lp63
F1.1000000000000001
aF3.5
asS'6504'
p64
(lp65
F9
aF60.600000000000001
aF183
asS'6503'
p66
(lp67
F24.100000000000001
aF27.100000000000001
aF51
aF59.5
asS'8959'
p68
(lp69
F21
assS'3.5.1.89'
p70
(dp71
sS'1.2.1.49'
p72
(dp73
sS'2.7.1.11'
p74
(dp75
S'7'
(lp76
F357
assS'1.5.3.1'
p77
(dp78
sS'2.7.1.15'
p79
(dp80
sS'2.7.1.17'
p81
(dp82
S'574'
p83
(lp84
F35
assS'3.4.19.6'
p85
(dp86
sS'1.1.5.3'
p87
(dp88
sS'1.1.3.12'
p89
(dp90
sS'1.1.3.15'
p91
(dp92
S'338'
p93
(lp94
F0.46000000000000002
asS'4020'
p95
(lp96
F0.080000000000000002
asS'399'
p97
(lp98
F3.6000000000000001
aF4.0999999999999996
aF15.6
asS'95'
p99
(lp100
F0.69999999999999996
aF0.82999999999999996
asS'359'
p101
(lp102
F0.11
asS'170'
p103
(lp104
F54.100000000000001
assS'3.1.1.31'
p105
(dp106
sS'4.3.2.1'
p107
(dp108
S'1106'
p109
(lp110
F3.2799999999999998
assS'4.3.2.2'
p111
(dp112
sS'3.4.2.1'
p113
(dp114
sS'1.13.11.42'
p115
(dp116
sS'2.4.1.38'
p117
(dp118
S'200'
p119
(lp120
F0.0030000000000000001
asS'582'
p121
(lp122
F1.52
asS'1355'
p123
(lp124
F3.2999999999999998
aF4.8099999999999996
asS'60'
p125
(lp126
F0.02
asS'22054'
p127
(lp128
F1.8999999999999999
asS'1138'
p129
(lp130
F3.6000000000000001
asS'14274'
p131
(lp132
F2.4700000000000002
asS'10035'
p133
(lp134
F0.0030000000000000001
asS'1024'
p135
(lp136
F4.8200000000000003
asS'24394'
p137
(lp138
F1.74
asS'24393'
p139
(lp140
F3.3500000000000001
asS'123'
p141
(lp142
F1.1399999999999999
asS'1400'
p143
(lp144
F1.1299999999999999
asS'291'
p145
(lp146
F0.01
assS'2.4.2.2'
p147
(dp148
sS'3.1.4.48'
p149
(dp150
sS'1.17.4.1'
p151
(dp152
sS'3.1.4.46'
p153
(dp154
sS'2.7.1.67'
p155
(dp156
sS'4.1.1.19'
p157
(dp158
sS'1.16.3.1'
p159
(dp160
sS'2.8.1.2'
p161
(dp162
S'112'
p163
(lp164
F2.3999999999999999
asS'42'
p165
(lp166
F6.0999999999999996
asS'2469'
p167
(lp168
F1.7
asS'41'
p169
(lp170
F0.29999999999999999
asS'115'
p171
(lp172
F1.3
asS'260'
p173
(lp174
F0.80000000000000004
asS'70'
p175
(lp176
F1.1000000000000001
asS'59'
p177
(lp178
F229
assS'2.8.1.1'
p179
(dp180
sS'3.6.3.14'
p181
(dp182
sS'2.3.1.42'
p183
(dp184
sS'2.3.1.43'
p185
(dp186
sS'3.6.3.10'
p187
(dp188
sS'5.1.1.1'
p189
(dp190
sS'2.4.2.4'
p191
(dp192
S'153'
p193
(lp194
F0.157
asS'5761'
p195
(lp196
F2.8799999999999999
assS'2.7.1.25'
p197
(dp198
S'354'
p199
(lp200
F0.36399999999999999
asS'7'
(lp201
F1.7
aF2.2999999999999998
aF4.4000000000000004
assS'3.4.24.15'
p202
(dp203
S'27487'
p204
(lp205
F0.29999999999999999
asS'3274'
p206
(lp207
F0.19
asS'7671'
p208
(lp209
F0.29999999999999999
asS'3474'
p210
(lp211
F9.1999999999999993
asS'3475'
p212
(lp213
F7
asS'3471'
p214
(lp215
F5.9000000000000004
asS'3473'
p216
(lp217
F6
asS'3084'
p218
(lp219
F9.0999999999999996
asS'27482'
p220
(lp221
F0.40000000000000002
asS'27483'
p222
(lp223
F0.69999999999999996
asS'27480'
p224
(lp225
F0.040000000000000001
asS'27481'
p226
(lp227
F0.02
asS'27486'
p228
(lp229
F4.5
asS'27484'
p230
(lp231
F0.01
asS'27485'
p232
(lp233
F0.029999999999999999
asS'3976'
p234
(lp235
F1.6000000000000001
asS'3476'
p236
(lp237
F13.300000000000001
asS'3469'
p238
(lp239
F11.1
asS'3275'
p240
(lp241
F2.8999999999999999
asS'11591'
p242
(lp243
F1.7
assS'2.7.8.2'
p244
(dp245
sS'2.7.8.7'
p246
(dp247
S'25'
p248
(lp249
F0.23999999999999999
asS'27'
p250
(lp251
F0.23999999999999999
assS'2.7.8.8'
p252
(dp253
sS'2.4.1.155'
p254
(dp255
sS'2.4.1.152'
p256
(dp257
S'5680'
p258
(lp259
F1.7
assS'2.4.1.150'
p260
(dp261
sS'1.8.1.4'
p262
(dp263
S'667'
p264
(lp265
F505
aF505
aF567
aF899
asS'3'
(lp266
F340
asS'4'
(lp267
F574
asS'720'
p268
(lp269
F519
aF649
assS'1.8.1.7'
p270
(dp271
S'212'
p272
(lp273
F0.16
asS'5860'
p274
(lp275
F0.34999999999999998
asS'12454'
p276
(lp277
F2.23
asS'5861'
p278
(lp279
F0.13
asS'6409'
p280
(lp281
F0.34000000000000002
aF1.47
asS'14166'
p282
(lp283
F2.6000000000000001
asS'823'
p284
(lp285
F1.0800000000000001
asS'283'
p286
(lp287
F48.299999999999997
aF165
aF210
aF210
aF210
aF210
asS'5655'
p288
(lp289
F0.16
asS'1290'
p290
(lp291
F0.16
asS'5863'
p292
(lp293
F0.34000000000000002
asS'5862'
p294
(lp295
F0.11
assS'3.4.24.16'
p296
(dp297
sS'1.8.1.3'
p298
(dp299
sS'2.7.7.18'
p300
(dp301
sS'3.6.1.28'
p302
(dp303
S'7'
(lp304
F0.23999999999999999
asS'1642'
p305
(lp306
F140
aF240
assS'2.7.7.15'
p307
(dp308
sS'2.7.7.14'
p309
(dp310
sS'1.8.1.9'
p311
(dp312
S'196'
p313
(lp314
F0.55000000000000004
aF8.2799999999999994
aF18.73
aF30.02
aF33.329999999999998
aF29.5
asS'7511'
p315
(lp316
F23
asS'115'
p317
(lp318
F0.016
aF5.5800000000000001
aF8.0999999999999996
aF25.780000000000001
aF27.399999999999999
aF46.57
asS'1501'
p319
(lp320
F1.8
asS'720'
p321
(lp322
F1.6000000000000001
aF3.2999999999999998
assS'2.7.7.12'
p323
(dp324
sS'1.14.99.25'
p325
(dp326
sS'2.4.1.86'
p327
(dp328
sS'1.4.3.14'
p329
(dp330
sS'2.4.2.7'
p331
(dp332
sS'1.8.3.1'
p333
(dp334
S'86'
p335
(lp336
F12.1
aF17.199999999999999
aF24.199999999999999
aF24.199999999999999
aF24.199999999999999
aF24.699999999999999
aF24.699999999999999
aF25
aF25.899999999999999
aF25.899999999999999
aF25.899999999999999
aF26.899999999999999
aF27
asS'79'
p337
(lp338
F18.100000000000001
assS'3.6.1.17'
p339
(dp340
sS'2.1.3.85'
p341
(dp342
sS'5.3.3.8'
p343
(dp344
sS'5.3.3.9'
p345
(dp346
sS'5.3.3.1'
p347
(dp348
S'485'
p349
(lp350
F0.55700000000000005
aF0.82999999999999996
aF6.0800000000000001
aF13.6
asS'239'
p351
(lp352
F3012
aF4890
assS'5.3.3.2'
p353
(dp354
sS'4.4.1.22'
p355
(dp356
sS'4.4.1.20'
p357
(dp358
S'648'
p359
(lp360
F11.699999999999999
asS'1824'
p361
(lp362
F1.6899999999999999
aF1.97
asS'41'
p363
(lp364
F2.1099999999999999
aF2.2200000000000002
assS'1.1.1.181'
p365
(dp366
sS'1.2.4.1'
p367
(dp368
S'29'
p369
(lp370
F0.076999999999999999
aF66.099999999999994
aF69.900000000000006
assS'3.1.2.12'
p371
(dp372
sS'3.1.3.29'
p373
(dp374
sS'2.1.1.43'
p375
(dp376
sS'2.1.1.45'
p377
(dp378
S'5016'
p379
(lp380
F4.1699999999999999
asS'496'
p381
(lp382
F3.1099999999999999
aF48
asS'336'
p383
(lp384
F48
assS'2.1.1.49'
p385
(dp386
sS'2.6.1.6'
p387
(dp388
sS'2.6.1.7'
p389
(dp390
S'1302'
p391
(lp392
F38.299999999999997
asS'313'
p393
(lp394
F234
aF3.4900000000000002
asS'1168'
p395
(lp396
F4.2699999999999996
asS'53'
p397
(lp398
F0.065000000000000002
aF143
asS'113'
p399
(lp400
F43.100000000000001
asS'178'
p401
(lp402
F4.7300000000000004
aF110
asS'83'
p403
(lp404
F215
asS'231'
p405
(lp406
F14.4
asS'836'
p407
(lp408
F4.8300000000000001
asS'858'
p409
(lp410
F0.92000000000000004
asS'29'
p411
(lp412
F0.35999999999999999
aF29
asS'748'
p413
(lp414
F2.6600000000000001
asS'611'
p415
(lp416
F0.92000000000000004
asS'342'
p417
(lp418
F1.8
aF2.2000000000000002
aF9.7599999999999998
aF201
asS'895'
p419
(lp420
F4.8399999999999999
asS'581'
p421
(lp422
F296
aF2.5099999999999998
asS'121'
p423
(lp424
F339
asS'70'
p425
(lp426
F9.5999999999999996
asS'103'
p427
(lp428
F91
asS'95'
p429
(lp430
F3.6400000000000001
aF263
asS'96'
p431
(lp432
F440
asS'98'
p433
(lp434
F91
asS'32'
p435
(lp436
F7.6699999999999999
asS'850'
p437
(lp438
F3.5899999999999999
aF234
asS'1536'
p439
(lp440
F1.49
asS'353'
p441
(lp442
F0.39000000000000001
asS'296'
p443
(lp444
F143
assS'5.3.1.6'
p445
(dp446
sS'2.6.1.1'
p447
(dp448
sS'2.6.1.2'
p449
(dp450
sS'2.6.1.3'
p451
(dp452
sS'1.1.1.197'
p453
(dp454
sS'2.7.1.59'
p455
(dp456
S'257'
p457
(lp458
F0.032500000000000001
assS'4.3.1.8'
p459
(dp460
sS'6.2.1.16'
p461
(dp462
sS'6.2.1.17'
p463
(dp464
sS'6.2.1.12'
p465
(dp466
sS'6.2.1.13'
p467
(dp468
sS'2.7.1.52'
p469
(dp470
sS'2.3.1.15'
p471
(dp472
sS'2.3.1.14'
p473
(dp474
sS'2.1.2.1'
p475
(dp476
S'89'
p477
(lp478
F9.5800000000000001
asS'184'
p479
(lp480
F0.040000000000000001
assS'1.5.99.8'
p481
(dp482
sS'2.1.1.37'
p483
(dp484
S'22'
p485
(lp486
F0.058000000000000003
assS'1.1.1.59'
p487
(dp488
sS'3.2.1.26'
p489
(dp490
sS'1.5.99.2'
p491
(dp492
sS'2.1.2.3'
p493
(dp494
sS'1.14.17.1'
p495
(dp496
sS'1.5.99.6'
p497
(dp498
sS'2.3.1.168'
p499
(dp500
sS'1.3.1.21'
p501
(dp502
sS'1.2.7.2'
p503
(dp504
sS'2.3.1.13'
p505
(dp506
sS'1.3.1.20'
p507
(dp508
S'629'
p509
(lp510
F0.23300000000000001
asS'1961'
p511
(lp512
F0.125
aF0.41699999999999998
aF0.48999999999999999
aF0.58499999999999996
asS'1737'
p513
(lp514
F0.0117
aF0.014999999999999999
aF0.0183
aF0.031699999999999999
aF0.033300000000000003
aF0.048300000000000003
aF0.0533
asS'397'
p515
(lp516
F0.0066699999999999997
aF0.0183
asS'1896'
p517
(lp518
F0.086699999999999999
aF0.123
aF0.158
aF0.158
aF0.16300000000000001
aF0.16700000000000001
aF0.20799999999999999
asS'4377'
p519
(lp520
F0.108
assS'2.3.1.12'
p521
(dp522
sS'1.1.1.284'
p523
(dp524
S'753'
p525
(lp526
F7.5
aF20
aF20
aF29.300000000000001
aF72000
asS'2224'
p527
(lp528
F1.04
aF3.3300000000000001
aF2.5
aF2.5
asS'2155'
p529
(lp530
F0.217
asS'3'
(lp531
F34.5
asS'4'
(lp532
F0.217
aF1.04
aF2.5
assS'1.3.1.24'
p533
(dp534
sS'2.7.1.28'
p535
(dp536
sS'1.3.1.27'
p537
(dp538
S'2082'
p539
(lp540
F0.16700000000000001
asS'3937'
p541
(lp542
F0.113
asS'3218'
p543
(lp544
F1.3300000000000001
asS'1076'
p545
(lp546
F1.1499999999999999
assS'4.1.2.4'
p547
(dp548
sS'2.7.1.20'
p549
(dp550
S'116'
p551
(lp552
F0.5
assS'2.7.1.21'
p553
(dp554
S'153'
p555
(lp556
F0.46000000000000002
aF9.5
asS'28400'
p557
(lp558
F0.34999999999999998
asS'896'
p559
(lp560
F3.5
asS'28395'
p561
(lp562
F0.45000000000000001
asS'28401'
p563
(lp564
F0.37
asS'28398'
p565
(lp566
F0.46999999999999997
asS'28402'
p567
(lp568
F0.32000000000000001
asS'28397'
p569
(lp570
F0.39000000000000001
asS'28399'
p571
(lp572
F0.34000000000000002
asS'28396'
p573
(lp574
F0.44
assS'2.7.1.22'
p575
(dp576
sS'2.7.1.24'
p577
(dp578
sS'1.7.1.7'
p579
(dp580
sS'1.5.1.12'
p581
(dp582
sS'1.5.1.10'
p583
(dp584
sS'2.4.1.130'
p585
(dp586
sS'3.1.2.14'
p587
(dp588
sS'3.1.2.17'
p589
(dp590
sS'2.7.1.127'
p591
(dp592
sS'2.7.4.8'
p593
(dp594
sS'2.7.4.9'
p595
(dp596
S'11198'
p597
(lp598
F0.089999999999999997
asS'22175'
p599
(lp600
F0.029999999999999999
asS'3659'
p601
(lp602
F1.2
asS'496'
p603
(lp604
F4.7999999999999998
asS'33070'
p605
(lp606
F0.029999999999999999
asS'28408'
p607
(lp608
F0.72999999999999998
asS'28407'
p609
(lp610
F0.47999999999999998
asS'28406'
p611
(lp612
F0.59999999999999998
asS'33707'
p613
(lp614
F0.14000000000000001
asS'28409'
p615
(lp616
F0.83999999999999997
asS'28414'
p617
(lp618
F0.32000000000000001
asS'28410'
p619
(lp620
F0.073999999999999996
asS'28411'
p621
(lp622
F0.089999999999999997
asS'28412'
p623
(lp624
F0.10000000000000001
asS'28413'
p625
(lp626
F0.058000000000000003
asS'13075'
p627
(lp628
F0.5
aF0.90000000000000002
asS'3036'
p629
(lp630
F0.0030000000000000001
aF0.01
aF0.012
asS'518'
p631
(lp632
F0.72999999999999998
aF0.76000000000000001
aF3
aF0.40000000000000002
assS'2.7.4.6'
p633
(dp634
sS'2.7.4.2'
p635
(dp636
sS'2.7.4.3'
p637
(dp638
S'9'
(lp639
F842
aF842.29999999999995
asS'7'
(lp640
F0.0063
aF152
aF683
aF879
aF879.5
asS'8'
(lp641
F783
assS'1.3.1.72'
p642
(dp643
sS'1.4.1.3'
p644
(dp645
S'32'
p646
(lp647
F104
aF104
aF130
aF130
asS'3'
(lp648
F104
aF104
aF104
aF104
aF104
aF130
aF130
aF130
aF130
assS'1.4.1.4'
p649
(dp650
sS'2.7.6.2'
p651
(dp652
S'522'
p653
(lp654
F0.069000000000000006
asS'7'
(lp655
F0.069000000000000006
assS'1.6.5.5'
p656
(dp657
S'458'
p658
(lp659
F2.2000000000000002
asS'6354'
p660
(lp661
F0.20000000000000001
asS'3937'
p662
(lp663
F0.11
asS'4198'
p664
(lp665
F0.28000000000000003
asS'1076'
p666
(lp667
F1.1499999999999999
asS'2082'
p668
(lp669
F0.16
asS'3218'
p670
(lp671
F1.3300000000000001
asS'908'
p672
(lp673
F1.6599999999999999
asS'2891'
p674
(lp675
F0.20000000000000001
asS'4538'
p676
(lp677
F0.20999999999999999
asS'1415'
p678
(lp679
F2.7999999999999998
assS'2.6.1.16'
p680
(dp681
sS'3.1.1.47'
p682
(dp683
S'7284'
p684
(lp685
F0.25
aF3
asS'5018'
p686
(lp687
F0.28000000000000003
aF0.68999999999999995
aF1.8999999999999999
aF6.0800000000000001
asS'1998'
p688
(lp689
F1.7
aF16.5
aF37
asS'5667'
p690
(lp691
F0.34000000000000002
aF3.2000000000000002
aF24.600000000000001
asS'14771'
p692
(lp693
F1.1000000000000001
aF8.0999999999999996
asS'8787'
p694
(lp695
F0.68000000000000005
aF4.7999999999999998
aF6.0800000000000001
assS'3.1.4.11'
p696
(dp697
sS'2.6.1.15'
p698
(dp699
sS'3.1.4.17'
p700
(dp701
S'292'
p702
(lp703
F4.2000000000000002
asS'233'
p704
(lp705
F0.29999999999999999
aF0.47999999999999998
aF0.5
aF0.52000000000000002
assS'2.6.1.13'
p706
(dp707
sS'3.1.4.14'
p708
(dp709
sS'1.2.3.5'
p710
(dp711
sS'1.2.3.1'
p712
(dp713
sS'1.14.15.4'
p714
(dp715
sS'1.1.1.271'
p716
(dp717
sS'1.1.1.270'
p718
(dp719
S'594'
p720
(lp721
F0.0030000000000000001
aF0.049299999999999997
aF0.051999999999999998
assS'1.1.1.272'
p722
(dp723
sS'1.1.1.170'
p724
(dp725
sS'2.4.1.79'
p726
(dp727
sS'1.2.1.3'
p728
(dp729
S'3905'
p730
(lp731
F12.300000000000001
asS'14035'
p732
(lp733
F8.3300000000000001
asS'14034'
p734
(lp735
F1.0800000000000001
asS'14036'
p736
(lp737
F3.1699999999999999
asS'1740'
p738
(lp739
F4
asS'21662'
p740
(lp741
F4.6699999999999999
asS'6890'
p742
(lp743
F0.61699999999999999
asS'1922'
p744
(lp745
F1.4199999999999999
asS'11055'
p746
(lp747
F0.29999999999999999
asS'21499'
p748
(lp749
F2.1699999999999999
asS'10430'
p750
(lp751
F2.3300000000000001
aF2.1299999999999999
asS'138'
p752
(lp753
F5.8300000000000001
asS'14027'
p754
(lp755
F0.98299999999999998
asS'1712'
p756
(lp757
F1
asS'14084'
p758
(lp759
F2.8300000000000001
aF6
asS'1966'
p760
(lp761
F4.5
asS'9256'
p762
(lp763
F15.199999999999999
asS'4'
(lp764
F3.5
asS'1377'
p765
(lp766
F5.8300000000000001
asS'21661'
p767
(lp768
F11.199999999999999
asS'7735'
p769
(lp770
F0.040000000000000001
asS'817'
p771
(lp772
F2.5
aF7.8300000000000001
asS'31551'
p773
(lp774
F1.5700000000000001
asS'619'
p775
(lp776
F30
aF50
asS'31698'
p777
(lp778
F7.9000000000000004
asS'21495'
p779
(lp780
F0.98299999999999998
asS'14033'
p781
(lp782
F1.3
asS'779'
p783
(lp784
F2.5
asS'1158'
p785
(lp786
F9.3300000000000001
aF11.300000000000001
asS'14120'
p787
(lp788
F0.45000000000000001
asS'124'
p789
(lp790
F67.5
asS'14011'
p791
(lp792
F2.6699999999999999
asS'21501'
p793
(lp794
F5.3300000000000001
asS'11002'
p795
(lp796
F0.158
aF0.25
asS'7442'
p797
(lp798
F1.5
aF8.1699999999999999
asS'7444'
p799
(lp800
F4.4199999999999999
asS'13981'
p801
(lp802
F0.66700000000000004
asS'1681'
p803
(lp804
F27.699999999999999
asS'612'
p805
(lp806
F7.1699999999999999
asS'2144'
p807
(lp808
F1.23
asS'238'
p809
(lp810
F0.41999999999999998
aF0.65000000000000002
aF1.3300000000000001
aF1.48
aF3.1600000000000001
aF6.1600000000000001
aF19.699999999999999
asS'2549'
p811
(lp812
F2.75
asS'1538'
p813
(lp814
F3
asS'2357'
p815
(lp816
F0.36699999999999999
asS'8698'
p817
(lp818
F0.55000000000000004
aF0.83299999999999996
assS'1.2.1.2'
p819
(dp820
sS'1.2.1.1'
p821
(dp822
sS'4.2.1.18'
p823
(dp824
S'964'
p825
(lp826
F0.26000000000000001
asS'2289'
p827
(lp828
F1.3999999999999999
asS'1802'
p829
(lp830
F2.8999999999999999
asS'1615'
p831
(lp832
F1.7
asS'340'
p833
(lp834
F6.7999999999999998
asS'4477'
p835
(lp836
F5.0999999999999996
assS'1.2.1.38'
p837
(dp838
sS'2.5.1.46'
p839
(dp840
sS'1.4.3.6'
p841
(dp842
sS'1.4.3.5'
p843
(dp844
S'795'
p845
(lp846
F0.19
asS'539'
p847
(lp848
F0.20000000000000001
assS'1.4.3.4'
p849
(dp850
S'214'
p851
(lp852
F0.249
asS'365'
p853
(lp854
F0.42599999999999999
aF6
aF18.600000000000001
asS'675'
p855
(lp856
F3.8199999999999998
aF1.4810000000000001
aF0.89700000000000002
aF0.998
aF1.3999999999999999
aF2.8700000000000001
aF3.1000000000000001
asS'441'
p857
(lp858
F0.089999999999999997
aF0.32500000000000001
aF5
aF5
asS'4673'
p859
(lp860
F1.8500000000000001
asS'1270'
p861
(lp862
F1.0800000000000001
aF1.6000000000000001
aF1.8999999999999999
aF1.8999999999999999
aF2.0800000000000001
aF2.0800000000000001
aF2.2000000000000002
aF2.5
asS'5697'
p863
(lp864
F1.8300000000000001
asS'243'
p865
(lp866
F5.2999999999999998
asS'6690'
p867
(lp868
F0.185
asS'1751'
p869
(lp870
F0.16
aF0.17999999999999999
aF0.24099999999999999
assS'1.2.1.31'
p871
(dp872
sS'4.2.1.11'
p873
(dp874
sS'3.1.4.4'
p875
(dp876
sS'3.2.1.106'
p877
(dp878
sS'4.2.1.17'
p879
(dp880
sS'2.4.1.133'
p881
(dp882
S'60'
p883
(lp884
F72
asS'123'
p885
(lp886
F0.028000000000000001
aF1.1100000000000001
aF1.1399999999999999
aF1.52
aF5086
asS'1400'
p887
(lp888
F1.79
asS'291'
p889
(lp890
F3
assS'3.6.1.52'
p891
(dp892
S'2158'
p893
(lp894
F0.029999999999999999
aF0.029999999999999999
aF0.14999999999999999
aF0.14999999999999999
aF0.20000000000000001
aF0.20000000000000001
assS'3.1.2.4'
p895
(dp896
sS'3.1.2.6'
p897
(dp898
S'3884'
p899
(lp900
F188
aF755
asS'6352'
p901
(lp902
F1740
asS'556'
p903
(lp904
F280
aF727
asS'2747'
p905
(lp906
F183
asS'13932'
p907
(lp908
F1490
assS'2.4.1.92'
p909
(dp910
sS'2.1.1.103'
p911
(dp912
sS'2.4.1.122'
p913
(dp914
sS'2.4.1.134'
p915
(dp916
sS'1.14.13.70'
p917
(dp918
sS'5.1.3.8'
p919
(dp920
sS'1.14.13.72'
p921
(dp922
sS'5.1.3.2'
p923
(dp924
sS'3.7.1.2'
p925
(dp926
sS'3.7.1.3'
p927
(dp928
S'1869'
p929
(lp930
F3.5
asS'7292'
p931
(lp932
F3.5
asS'342'
p933
(lp934
F0.23000000000000001
assS'5.1.3.7'
p935
(dp936
sS'3.1.3.67'
p937
(dp938
sS'3.1.3.66'
p939
(dp940
sS'3.1.3.64'
p941
(dp942
sS'3.4.14.9'
p943
(dp944
sS'3.1.3.61'
p945
(dp946
sS'1.14.16.4'
p947
(dp948
S'11'
p949
(lp950
F1.383
aF6.7300000000000004
asS'221'
p951
(lp952
F2.1669999999999998
aF4.5670000000000002
asS'113'
p953
(lp954
F2.6699999999999999
aF5.0300000000000002
assS'1.14.16.2'
p955
(dp956
S'103'
p957
(lp958
F3.0299999999999998
aF3.3300000000000001
asS'221'
p959
(lp960
F0.017000000000000001
aF0.46999999999999997
aF0.57999999999999996
assS'1.14.16.1'
p961
(dp962
S'98'
p963
(lp964
F6.5300000000000002
assS'3.2.1.33'
p965
(dp966
sS'2.4.2.14'
p967
(dp968
sS'4.1.1.40'
p969
(dp970
sS'2.4.2.11'
p971
(dp972
sS'2.4.2.10'
p973
(dp974
S'2998'
p975
(lp976
F0.024
aF0.024
asS'599'
p977
(lp978
F0.017000000000000001
aF0.10000000000000001
asS'1993'
p979
(lp980
F0.017000000000000001
assS'1.6.2.2'
p981
(dp982
S'792'
p983
(lp984
F360
aF600
asS'3'
(lp985
F0.73299999999999998
asS'5'
(lp986
F33
asS'126'
p987
(lp988
F98.299999999999997
aF500
aF677
aF700
aF800
aF827
assS'4.1.1.45'
p989
(dp990
sS'3.5.4.16'
p991
(dp992
sS'3.5.4.15'
p993
(dp994
sS'3.5.4.14'
p995
(dp996
sS'3.5.4.12'
p997
(dp998
S'376'
p999
(lp1000
F960
assS'3.5.4.10'
p1001
(dp1002
S'1304'
p1003
(lp1004
F8.5999999999999996
aF8.5999999999999996
assS'1.1.1.94'
p1005
(dp1006
sS'1.1.1.95'
p1007
(dp1008
sS'3.1.6.8'
p1009
(dp1010
S'2558'
p1011
(lp1012
F0.81699999999999995
asS'2074'
p1013
(lp1014
F16.800000000000001
assS'1.3.99.6'
p1015
(dp1016
sS'1.3.99.7'
p1017
(dp1018
sS'1.3.99.5'
p1019
(dp1020
sS'1.3.99.2'
p1021
(dp1022
sS'1.3.99.3'
p1023
(dp1024
sS'1.3.99.1'
p1025
(dp1026
sS'1.14.99.7'
p1027
(dp1028
sS'1.14.99.1'
p1029
(dp1030
sS'1.14.14.1'
p1031
(dp1032
sS'1.14.99.3'
p1033
(dp1034
sS'1.2.1.8'
p1035
(dp1036
sS'1.14.99.9'
p1037
(dp1038
sS'5.1.99.1'
p1039
(dp1040
sS'2.1.3.3'
p1041
(dp1042
sS'2.1.3.2'
p1043
(dp1044
sS'1.3.99.10'
p1045
(dp1046
sS'1.2.1.5'
p1047
(dp1048
S'1812'
p1049
(lp1050
F7.7000000000000002
asS'4'
(lp1051
F7.7000000000000002
aF45.299999999999997
asS'6'
(lp1052
F38.799999999999997
asS'1895'
p1053
(lp1054
F53
asS'138'
p1055
(lp1056
F51
asS'514'
p1057
(lp1058
F34
asS'84'
p1059
(lp1060
F35.899999999999999
assS'1.3.99.12'
p1061
(dp1062
S'3405'
p1063
(lp1064
F9700
asS'330'
p1065
(lp1066
F7600
asS'668'
p1067
(lp1068
F2900
assS'1.3.99.13'
p1069
(dp1070
sS'2.1.1.8'
p1071
(dp1072
sS'2.7.1.60'
p1073
(dp1074
sS'2.1.1.2'
p1075
(dp1076
sS'2.1.1.1'
p1077
(dp1078
S'232'
p1079
(lp1080
F1.02
assS'2.7.1.68'
p1081
(dp1082
sS'2.1.1.6'
p1083
(dp1084
S'750'
p1085
(lp1086
F0.040000000000000001
aF0.17999999999999999
asS'879'
p1087
(lp1088
F0.17000000000000001
aF0.315
asS'1085'
p1089
(lp1090
F0.17999999999999999
aF0.26000000000000001
asS'864'
p1091
(lp1092
F0.085000000000000006
aF0.25
asS'1534'
p1093
(lp1094
F0.085000000000000006
aF0.98999999999999999
asS'11725'
p1095
(lp1096
F0.10000000000000001
asS'214'
p1097
(lp1098
F0.087999999999999995
aF0.19
asS'2162'
p1099
(lp1100
F0.035000000000000003
aF0.076999999999999999
assS'2.1.1.5'
p1101
(dp1102
S'260'
p1103
(lp1104
F0.00029999999999999997
aF0.036700000000000003
aF0.0378
asS'1773'
p1105
(lp1106
F0.0044000000000000003
aF24
aF38
asS'572'
p1107
(lp1108
F0.0298
aF0.042200000000000001
aF88
assS'2.1.1.4'
p1109
(dp1110
sS'3.1.1.23'
p1111
(dp1112
S'1805'
p1113
(lp1114
F1.1299999999999999
assS'3.5.1.9'
p1115
(dp1116
sS'3.5.1.2'
p1117
(dp1118
sS'1.14.18.1'
p1119
(dp1120
sS'1.14.18.2'
p1121
(dp1122
sS'3.5.1.1'
p1123
(dp1124
S'23961'
p1125
(lp1126
F0.80000000000000004
asS'231'
p1127
(lp1128
F3.1899999999999999
assS'3.5.1.6'
p1129
(dp1130
sS'1.14.15.67'
p1131
(dp1132
sS'1.4.3.3'
p1133
(dp1134
S'151'
p1135
(lp1136
F5.2000000000000002
aF5.2000000000000002
aF10
aF10
asS'401'
p1137
(lp1138
F3
asS'1143'
p1139
(lp1140
F21.699999999999999
asS'718'
p1141
(lp1142
F10.199999999999999
asS'657'
p1143
(lp1144
F3.2000000000000002
asS'517'
p1145
(lp1146
F6.7000000000000002
asS'737'
p1147
(lp1148
F6.5999999999999996
asS'68'
p1149
(lp1150
F0.90000000000000002
asS'1232'
p1151
(lp1152
F14.800000000000001
assS'1.4.3.1'
p1153
(dp1154
sS'2.6.1.52'
p1155
(dp1156
sS'2.6.1.51'
p1157
(dp1158
sS'2.3.1.154'
p1159
(dp1160
sS'6.3.4.16'
p1161
(dp1162
S'16'
p1163
(lp1164
F5.7300000000000004
assS'2.6.1.58'
p1165
(dp1166
sS'6.3.4.15'
p1167
(dp1168
sS'1.1.99.5'
p1169
(dp1170
sS'1.1.99.1'
p1171
(dp1172
sS'1.1.1.133'
p1173
(dp1174
sS'4.2.1.55'
p1175
(dp1176
sS'4.2.1.56'
p1177
(dp1178
sS'6.3.2.17'
p1179
(dp1180
S'4091'
p1181
(lp1182
F0.55000000000000004
asS'769'
p1183
(lp1184
F1.1699999999999999
asS'13711'
p1185
(lp1186
F0.34000000000000002
asS'4368'
p1187
(lp1188
F0.81000000000000005
asS'184'
p1189
(lp1190
F0.98999999999999999
asS'10663'
p1191
(lp1192
F0.81999999999999995
asS'5528'
p1193
(lp1194
F0.94999999999999996
asS'3172'
p1195
(lp1196
F0.01
asS'173'
p1197
(lp1198
F0.83999999999999997
asS'1001'
p1199
(lp1200
F0.65000000000000002
assS'3.6.1.19'
p1201
(dp1202
S'56'
p1203
(lp1204
F0.80000000000000004
asS'5623'
p1205
(lp1206
F0.20000000000000001
asS'61'
p1207
(lp1208
F0.69999999999999996
asS'137'
p1209
(lp1210
F0.69999999999999996
asS'161'
p1211
(lp1212
F0.29999999999999999
assS'6.3.2.11'
p1213
(dp1214
sS'3.6.1.15'
p1215
(dp1216
sS'3.1.4.3'
p1217
(dp1218
sS'3.5.1.38'
p1219
(dp1220
sS'3.6.1.13'
p1221
(dp1222
S'733'
p1223
(lp1224
F60
asS'337'
p1225
(lp1226
F5.5
aF11.4
aF35
aF8
assS'1.2.1.36'
p1227
(dp1228
sS'6.3.3.2'
p1229
(dp1230
sS'6.3.3.1'
p1231
(dp1232
sS'2.7.7.22'
p1233
(dp1234
sS'2.7.7.23'
p1235
(dp1236
sS'6.3.5.2'
p1237
(dp1238
sS'1.14.13.39'
p1239
(dp1240
S'2255'
p1241
(lp1242
F0.62
aF0.80000000000000004
aF2.2000000000000002
aF15.800000000000001
aF26
asS'212'
p1243
(lp1244
F6.5999999999999996
aF8
aF9.5
aF88
aF96
asS'662'
p1245
(lp1246
F4.7999999999999998
aF4.9000000000000004
aF5.2999999999999998
aF94
aF95
assS'6.3.5.4'
p1247
(dp1248
sS'2.7.7.24'
p1249
(dp1250
sS'2.4.1.47'
p1251
(dp1252
sS'1.14.13.34'
p1253
(dp1254
sS'1.14.13.30'
p1255
(dp1256
sS'2.8.2.5'
p1257
(dp1258
sS'2.8.2.4'
p1259
(dp1260
sS'3.1.2.2'
p1261
(dp1262
sS'2.8.2.1'
p1263
(dp1264
S'319'
p1265
(lp1266
F0.0015
aF0.0061999999999999998
aF0.012999999999999999
aF0.024
aF0.11
aF0.12
aF0.124
asS'672'
p1267
(lp1268
F0.00033
aF0.0035000000000000001
aF0.0050000000000000001
aF0.0054999999999999997
aF0.02
aF0.095000000000000001
aF0.1065
asS'9128'
p1269
(lp1270
F0.00016000000000000001
aF0.075999999999999998
asS'7782'
p1271
(lp1272
F0.0067000000000000002
aF0.035000000000000003
asS'7780'
p1273
(lp1274
F0.00183
aF0.063
asS'7781'
p1275
(lp1276
F0.00116
aF0.059999999999999998
assS'2.8.2.2'
p1277
(dp1278
sS'1.1.1.220'
p1279
(dp1280
sS'2.4.1.22'
p1281
(dp1282
sS'2.4.1.25'
p1283
(dp1284
sS'1.1.1.225'
p1285
(dp1286
sS'2.5.1.18'
p1287
(dp1288
S'996'
p1289
(lp1290
F201
asS'2637'
p1291
(lp1292
F0.55000000000000004
aF0.58999999999999997
aF0.81999999999999995
aF13
asS'164'
p1293
(lp1294
F4.5
aF18.300000000000001
aF76
aF761
asS'2186'
p1295
(lp1296
F106
asS'8005'
p1297
(lp1298
F1.1000000000000001
aF2.3999999999999999
aF9
asS'8004'
p1299
(lp1300
F17.699999999999999
asS'8006'
p1301
(lp1302
F0.37
aF1.3
aF7.7000000000000002
asS'8007'
p1303
(lp1304
F0.070000000000000007
aF0.20000000000000001
aF0.46000000000000002
asS'3161'
p1305
(lp1306
F0.34699999999999998
aF464
asS'5098'
p1307
(lp1308
F4.7999999999999998
aF8.4000000000000004
asS'25438'
p1309
(lp1310
F367
asS'3512'
p1311
(lp1312
F210
asS'41'
p1313
(lp1314
F7.6699999999999999
aF12.199999999999999
aF108
aF464
aF1370
asS'653'
p1315
(lp1316
F9600
assS'2.5.1.10'
p1317
(dp1318
sS'2.5.1.17'
p1319
(dp1320
S'423'
p1321
(lp1322
F166.19999999999999
aF285
aF297.60000000000002
asS'7'
(lp1323
F166.19999999999999
aF285
aF297.60000000000002
assS'2.5.1.16'
p1324
(dp1325
sS'4.2.1.22'
p1326
(dp1327
S'260'
p1328
(lp1329
F6.2000000000000002
aF34
aF3.2999999999999998
aF4.6600000000000001
aF12.699999999999999
asS'89'
p1330
(lp1331
F0.52000000000000002
aF1.3
aF2.5
aF3.6699999999999999
aF5.4000000000000004
aF7.5
aF14.01
aF19.699999999999999
assS'4.4.1.16'
p1332
(dp1333
sS'3.2.1.76'
p1334
(dp1335
sS'4.2.1.24'
p1336
(dp1337
sS'2.7.4.14'
p1338
(dp1339
S'5037'
p1340
(lp1341
F14
aF36
asS'3219'
p1342
(lp1343
F45
aF150
asS'127'
p1344
(lp1345
F92
aF130
asS'94'
p1346
(lp1347
F72
aF130
asS'376'
p1348
(lp1349
F30
aF73
assS'2.7.4.11'
p1350
(dp1351
sS'2.4.99.4'
p1352
(dp1353
sS'1.11.1.8'
p1354
(dp1355
sS'1.11.1.9'
p1356
(dp1357
S'20'
p1358
(lp1359
F10.550000000000001
aF16.02
aF20.829999999999998
aF316.69999999999999
aF445
aF560
aF670
asS'41'
p1360
(lp1361
F14.48
aF19.5
aF24.5
aF221.69999999999999
aF293.30000000000001
aF361.69999999999999
aF408.30000000000001
assS'1.11.1.6'
p1362
(dp1363
sS'2.3.1.50'
p1364
(dp1365
sS'2.3.1.57'
p1366
(dp1367
sS'2.4.99.3'
p1368
(dp1369
sS'3.1.6.18'
p1370
(dp1371
sS'1.5.1.29'
p1372
(dp1373
sS'3.1.3.18'
p1374
(dp1375
S'997'
p1376
(lp1377
F19
assS'1.5.1.9'
p1378
(dp1379
sS'1.1.1.30'
p1380
(dp1381
sS'1.1.1.31'
p1382
(dp1383
sS'3.1.6.13'
p1384
(dp1385
sS'3.1.6.12'
p1386
(dp1387
sS'1.1.1.34'
p1388
(dp1389
sS'1.1.1.35'
p1390
(dp1391
S'602'
p1392
(lp1393
F0.010999999999999999
asS'3016'
p1394
(lp1395
F533.29999999999995
aF643.29999999999995
asS'6075'
p1396
(lp1397
F24
asS'2194'
p1398
(lp1399
F0.092999999999999999
asS'4'
(lp1400
F705
aF1817
asS'2679'
p1401
(lp1402
F28
asS'397'
p1403
(lp1404
F0.010999999999999999
asS'167'
p1405
(lp1406
F21.300000000000001
aF23.800000000000001
aF37
aF113
aF252
aF681.70000000000005
aF1287
assS'3.1.3.10'
p1407
(dp1408
sS'1.1.1.37'
p1409
(dp1410
sS'2.3.1.51'
p1411
(dp1412
sS'2.7.1.33'
p1413
(dp1414
sS'1.11.1.7'
p1415
(dp1416
sS'2.3.1.9'
p1417
(dp1418
sS'5.4.2.3'
p1419
(dp1420
S'1160'
p1421
(lp1422
F1.79
aF2.9399999999999999
assS'5.4.2.1'
p1423
(dp1424
sS'2.4.2.28'
p1425
(dp1426
S'335'
p1427
(lp1428
F4.5999999999999996
asS'23248'
p1429
(lp1430
F3.4399999999999999
asS'23249'
p1431
(lp1432
F1.5
asS'23244'
p1433
(lp1434
F1.46
asS'23245'
p1435
(lp1436
F0.84999999999999998
asS'23246'
p1437
(lp1438
F5.5
asS'23247'
p1439
(lp1440
F0.23000000000000001
asS'23240'
p1441
(lp1442
F0.0040000000000000001
asS'23242'
p1443
(lp1444
F2.2999999999999998
asS'23243'
p1445
(lp1446
F5.9000000000000004
asS'13893'
p1447
(lp1448
F3.1600000000000001
asS'3126'
p1449
(lp1450
F0.67000000000000004
asS'7098'
p1451
(lp1452
F2.8999999999999999
asS'23241'
p1453
(lp1454
F0.040000000000000001
aF0.00040000000000000002
asS'734'
p1455
(lp1456
F4.7999999999999998
asS'23334'
p1457
(lp1458
F4.2000000000000002
asS'23335'
p1459
(lp1460
F3.7999999999999998
asS'23239'
p1461
(lp1462
F0.28000000000000003
asS'23252'
p1463
(lp1464
F2.1400000000000001
asS'23251'
p1465
(lp1466
F2.5
asS'23250'
p1467
(lp1468
F2.4900000000000002
asS'23257'
p1469
(lp1470
F1.3999999999999999
aF0.29999999999999999
asS'23256'
p1471
(lp1472
F0.80000000000000004
asS'23255'
p1473
(lp1474
F1.5
asS'23254'
p1475
(lp1476
F1.5700000000000001
asS'23258'
p1477
(lp1478
F2.3999999999999999
asS'23253'
p1479
(lp1480
F1.01
assS'3.3.1.1'
p1481
(dp1482
S'677'
p1483
(lp1484
F6666
asS'116'
p1485
(lp1486
F6666
asS'1479'
p1487
(lp1488
F3.4500000000000002
aF1908
assS'5.4.2.4'
p1489
(dp1490
S'557'
p1491
(lp1492
F0.0037000000000000002
assS'1.14.99.36'
p1493
(dp1494
sS'2.3.1.1'
p1495
(dp1496
sS'2.4.2.26'
p1497
(dp1498
S'9445'
p1499
(lp1500
F0.036299999999999999
assS'4.1.1.15'
p1501
(dp1502
S'38'
p1503
(lp1504
F0.40999999999999998
aF1.8
aF6.2000000000000002
aF7.7000000000000002
assS'2.3.1.4'
p1505
(dp1506
S'417'
p1507
(lp1508
F9
aF22.100000000000001
assS'2.3.1.7'
p1509
(dp1510
S'27'
p1511
(lp1512
F38.5
assS'2.3.1.6'
p1513
(dp1514
sS'2.3.3.8'
p1515
(dp1516
sS'1.1.1.49'
p1517
(dp1518
S'5605'
p1519
(lp1520
F98
asS'1862'
p1521
(lp1522
F157
asS'99'
p1523
(lp1524
F251
aF275
aF279
aF571
asS'1578'
p1525
(lp1526
F43
asS'6'
(lp1527
F251
assS'1.1.1.45'
p1528
(dp1529
sS'1.1.1.44'
p1530
(dp1531
S'327'
p1532
(lp1533
F0.217
assS'1.1.1.47'
p1534
(dp1535
sS'2.7.8.11'
p1536
(dp1537
sS'1.1.1.41'
p1538
(dp1539
S'1444'
p1540
(lp1541
F30
asS'4'
(lp1542
F30
asS'242'
p1543
(lp1544
F30
assS'1.1.1.40'
p1545
(dp1546
S'180'
p1547
(lp1548
F110.90000000000001
asS'4'
(lp1549
F28.899999999999999
aF34.18
aF51
asS'6'
(lp1550
F113.2
aF126
aF135.80000000000001
assS'2.3.3.5'
p1551
(dp1552
sS'1.1.1.42'
p1553
(dp1554
sS'2.3.3.10'
p1555
(dp1556
sS'2.8.2.11'
p1557
(dp1558
sS'2.4.1.223'
p1559
(dp1560
sS'2.4.1.224'
p1561
(dp1562
sS'2.4.1.225'
p1563
(dp1564
sS'2.4.1.226'
p1565
(dp1566
sS'2.4.1.228'
p1567
(dp1568
sS'2.7.1.31'
p1569
(dp1570
sS'2.7.1.30'
p1571
(dp1572
sS'2.7.1.36'
p1573
(dp1574
sS'3.1.1.19'
p1575
(dp1576
sS'3.1.1.13'
p1577
(dp1578
sS'2.7.1.151'
p1579
(dp1580
sS'2.7.1.153'
p1581
(dp1582
sS'3.1.1.17'
p1583
(dp1584
sS'2.4.1.11'
p1585
(dp1586
sS'2.4.1.17'
p1587
(dp1588
sS'2.4.1.18'
p1589
(dp1590
sS'3.1.6.15'
p1591
(dp1592
sS'4.1.2.27'
p1593
(dp1594
sS'3.1.6.14'
p1595
(dp1596
sS'3.2.2.6'
p1597
(dp1598
sS'3.2.2.5'
p1599
(dp1600
sS'3.1.3.11'
p1601
(dp1602
S'100'
p1603
(lp1604
F16.699999999999999
aF20.800000000000001
aF21.699999999999999
aF23.399999999999999
aF23.5
assS'4.3.1.3'
p1605
(dp1606
sS'1.5.1.20'
p1607
(dp1608
sS'5.1.3.1'
p1609
(dp1610
sS'2.4.1.65'
p1611
(dp1612
S'6445'
p1613
(lp1614
F8.0199999999999996
asS'11176'
p1615
(lp1616
F0.0089999999999999993
aF0.40000000000000002
asS'5772'
p1617
(lp1618
F0.10000000000000001
assS'4.3.1.17'
p1619
(dp1620
sS'2.7.1.140'
p1621
(dp1622
sS'2.4.1.62'
p1623
(dp1624
sS'1.1.1.146'
p1625
(dp1626
sS'4.3.1.19'
p1627
(dp1628
sS'1.13.11.33'
p1629
(dp1630
S'357'
p1631
(lp1632
F10.199999999999999
aF17.800000000000001
asS'11'
p1633
(lp1634
F5.0999999999999996
aF5.2000000000000002
aF5.5999999999999996
aF7
aF7.5999999999999996
asS'253'
p1635
(lp1636
F14
aF0.56999999999999995
aF0.62
aF0.73999999999999999
aF0.75
aF1.04
aF1.3799999999999999
assS'2.4.1.69'
p1637
(dp1638
S'245'
p1639
(lp1640
F0.0070000000000000001
assS'2.4.1.68'
p1641
(dp1642
S'14115'
p1643
(lp1644
F0.45000000000000001
assS'2.5.1.56'
p1645
(dp1646
sS'1.2.1.48'
p1647
(dp1648
S'2486'
p1649
(lp1650
F0.85999999999999999
asS'4'
(lp1651
F1.28
asS'2395'
p1652
(lp1653
F1.52
asS'7501'
p1654
(lp1655
F1.3999999999999999
asS'1464'
p1656
(lp1657
F0.94999999999999996
asS'627'
p1658
(lp1659
F2.1800000000000002
asS'1461'
p1660
(lp1661
F2.23
asS'4773'
p1662
(lp1663
F0.93000000000000005
assS'2.3.1.65'
p1664
(dp1665
sS'2.7.7.13'
p1666
(dp1667
sS'1.2.1.47'
p1668
(dp1669
sS'1.2.1.40'
p1670
(dp1671
sS'1.2.1.41'
p1672
(dp1673
sS'2.4.2.8'
p1674
(dp1675
S'147'
p1676
(lp1677
F2.5
asS'13'
p1678
(lp1679
F0.041000000000000002
asS'206'
p1680
(lp1681
F0.037999999999999999
asS'208'
p1682
(lp1683
F2.8999999999999999
asS'187'
p1684
(lp1685
F1.1299999999999999
aF2.6000000000000001
aF5.7000000000000002
asS'179'
p1686
(lp1687
F1.2
aF10.5
assS'2.4.1.88'
p1688
(dp1689
sS'3.6.1.21'
p1690
(dp1691
sS'3.6.1.23'
p1692
(dp1693
S'363'
p1694
(lp1695
F5.7999999999999998
aF9.1699999999999999
assS'2.4.1.83'
p1696
(dp1697
sS'2.4.1.131'
p1698
(dp1699
sS'2.4.1.132'
p1700
(dp1701
sS'2.4.1.80'
p1702
(dp1703
sS'4.2.3.12'
p1704
(dp1705
S'2070'
p1706
(lp1707
F0.032000000000000001
assS'2.4.1.135'
p1708
(dp1709
sS'2.7.9.3'
p1710
(dp1711
sS'1.2.4.2'
p1712
(dp1713
sS'5.3.99.2'
p1714
(dp1715
S'504'
p1716
(lp1717
F2.6400000000000001
assS'5.3.99.3'
p1718
(dp1719
S'3590'
p1720
(lp1721
F75
aF75
asS'41'
p1722
(lp1723
F21
asS'504'
p1724
(lp1725
F7
aF50
aF50
assS'2.3.1.17'
p1726
(dp1727
sS'2.3.1.16'
p1728
(dp1729
sS'4.2.1.96'
p1730
(dp1731
S'2729'
p1732
(lp1733
F23
aF24
assS'5.3.99.5'
p1734
(dp1735
S'504'
p1736
(lp1737
F26.699999999999999
aF27.100000000000001
asS'3590'
p1738
(lp1739
F28.199999999999999
asS'10660'
p1740
(lp1741
F20.399999999999999
aF59.399999999999999
assS'4.2.1.99'
p1742
(dp1743
sS'1.17.3.2'
p1744
(dp1745
sS'5.4.2.2'
p1746
(dp1747
sS'1.1.1.72'
p1748
(dp1749
sS'1.6.99.7'
p1750
(dp1751
sS'1.1.1.78'
p1752
(dp1753
sS'1.1.1.79'
p1754
(dp1755
sS'1.6.99.3'
p1756
(dp1757
S'126'
p1758
(lp1759
F677
assS'2.5.1.6'
p1760
(dp1761
sS'1.17.1.4'
p1762
(dp1763
sS'2.5.1.1'
p1764
(dp1765
sS'5.4.2.7'
p1766
(dp1767
sS'1.1.1.88'
p1768
(dp1769
sS'4.1.1.50'
p1770
(dp1771
sS'2.1.1.13'
p1772
(dp1773
sS'2.7.1.7'
p1774
(dp1775
sS'2.7.1.6'
p1776
(dp1777
S'7'
(lp1778
F8.6999999999999993
asS'67'
p1779
(lp1780
F8.6999999999999993
aF8.6999999999999993
assS'2.7.1.1'
p1781
(dp1782
S'443'
p1783
(lp1784
F29
asS'33'
p1785
(lp1786
F0.17999999999999999
aF29
aF37
aF38
aF38
aF60.399999999999999
aF64
aF74
aF75
aF101
asS'7'
(lp1787
F54
aF62.299999999999997
assS'2.7.1.3'
p1788
(dp1789
S'719'
p1790
(lp1791
F4.7999999999999998
aF7.5999999999999996
asS'553'
p1792
(lp1793
F5.2000000000000002
aF6.5
asS'574'
p1794
(lp1795
F7.5999999999999996
aF11.1
asS'111'
p1796
(lp1797
F1.7
aF5.9000000000000004
aF6.9000000000000004
aF7.5999999999999996
asS'254'
p1798
(lp1799
F1.55
aF8.1999999999999993
assS'5.4.99.7'
p1800
(dp1801
sS'5.4.99.2'
p1802
(dp1803
S'8497'
p1804
(lp1805
F150
aF283
assS'1.14.99.10'
p1806
(dp1807
sS'2.7.1.107'
p1808
(dp1809
S'8501'
p1810
(lp1811
F2.3500000000000001
asS'5367'
p1812
(lp1813
F0.16200000000000001
aF1.7
aF5.7000000000000002
asS'7'
(lp1814
F0.01
aF8.1999999999999993
aF23
asS'16197'
p1815
(lp1816
F0.086999999999999994
aF1.23
aF2.7999999999999998
asS'1575'
p1817
(lp1818
F0.032000000000000001
aF1.2
aF2.4300000000000002
assS'2.7.1.105'
p1819
(dp1820
sS'2.7.1.108'
p1821
(dp1822
sS'4.1.1.17'
p1823
(dp1824
sS'6.2.1.30'
p1825
(dp1826
sS'1.13.11.6'
p1827
(dp1828
sS'2.7.1.76'
p1829
(dp1830
sS'2.7.1.74'
p1831
(dp1832
S'153'
p1833
(lp1834
F0.38
asS'2921'
p1835
(lp1836
F0.17699999999999999
aF1.3340000000000001
asS'61'
p1837
(lp1838
F0.01
aF0.049000000000000002
aF0.10199999999999999
aF0.17899999999999999
asS'4676'
p1839
(lp1840
F0.029999999999999999
aF0.10199999999999999
asS'4674'
p1841
(lp1842
F0.095000000000000001
asS'7'
(lp1843
F0.012
aF0.028000000000000001
aF0.029999999999999999
aF0.033000000000000002
aF0.095000000000000001
aF0.40000000000000002
asS'3995'
p1844
(lp1845
F0.48599999999999999
aF1.1100000000000001
asS'1407'
p1846
(lp1847
F0.44
aF0.39000000000000001
asS'304'
p1848
(lp1849
F0.33000000000000002
aF0.37
aF0.77000000000000002
aF1.7
aF2.1000000000000001
aF2.1299999999999999
aF3.1000000000000001
asS'5675'
p1850
(lp1851
F0.34000000000000002
asS'2088'
p1852
(lp1853
F0.37
aF0.59999999999999998
aF0.080399999999999999
aF0.17199999999999999
asS'419'
p1854
(lp1855
F0.33000000000000002
aF0.53000000000000003
aF0.72999999999999998
aF2.5
aF2.6000000000000001
aF2.6000000000000001
aF3.2599999999999998
asS'377'
p1856
(lp1857
F0.033000000000000002
aF0.040000000000000001
aF0.043999999999999997
aF0.014999999999999999
aF0.021000000000000001
aF0.064000000000000001
asS'1495'
p1858
(lp1859
F0.17000000000000001
aF0.29999999999999999
aF0.32000000000000001
assS'2.7.1.73'
p1860
(dp1861
sS'1.14.13.15'
p1862
(dp1863
S'27084'
p1864
(lp1865
F0.0183
asS'20105'
p1866
(lp1867
F0.072999999999999995
assS'1.3.1.38'
p1868
(dp1869
sS'1.3.1.34'
p1870
(dp1871
sS'4.1.1.21'
p1872
(dp1873
sS'3.1.3.59'
p1874
(dp1875
sS'3.1.3.27'
p1876
(dp1877
sS'3.2.1.96'
p1878
(dp1879
sS'2.1.1.17'
p1880
(dp1881
sS'3.1.3.51'
p1882
(dp1883
sS'3.1.3.56'
p1884
(dp1885
sS'5.1.3.19'
p1886
(dp1887
sS'5.1.3.14'
p1888
(dp1889
sS'5.1.3.17'
p1890
(dp1891
sS'3.2.1.31'
p1892
(dp1893
S'2735'
p1894
(lp1895
F0.67000000000000004
asS'18054'
p1896
(lp1897
F0.26000000000000001
asS'18053'
p1898
(lp1899
F1.8999999999999999
asS'26412'
p1900
(lp1901
F1.6499999999999999
asS'26413'
p1902
(lp1903
F1.0700000000000001
asS'26411'
p1904
(lp1905
F0.65000000000000002
asS'26414'
p1906
(lp1907
F0.34999999999999998
assS'2.7.2.11'
p1908
(dp1909
sS'5.3.1.25'
p1910
(dp1911
sS'2.6.1.44'
p1912
(dp1913
S'29'
p1914
(lp1915
F0.35999999999999999
asS'70'
p1916
(lp1917
F0.22
asS'68'
p1918
(lp1919
F0.33000000000000002
asS'95'
p1920
(lp1921
F0.068000000000000005
aF11.1
aF18.300000000000001
aF20.5
aF37
aF37
aF39
aF40
aF45
aF45
aF45
asS'97'
p1922
(lp1923
F0.070000000000000007
aF10.6
aF17.100000000000001
aF19.800000000000001
aF33
aF33
aF33.600000000000001
aF35
aF45
aF45
aF45
assS'4.1.1.9'
p1924
(dp1925
S'72'
p1926
(lp1927
F13
aF47.299999999999997
assS'2.6.1.40'
p1928
(dp1929
sS'5.3.1.23'
p1930
(dp1931
sS'2.6.1.42'
p1932
(dp1933
S'217'
p1934
(lp1935
F277
aF1236
asS'38'
p1936
(lp1937
F290
aF1075
asS'32'
p1938
(lp1939
F340
asS'121'
p1940
(lp1941
F337
aF898
asS'266'
p1942
(lp1943
F371
aF1075
assS'4.1.1.4'
p1944
(dp1945
sS'5.1.3.13'
p1946
(dp1947
sS'4.1.3.7'
p1948
(dp1949
sS'1.1.1.102'
p1950
(dp1951
sS'4.1.3.5'
p1952
(dp1953
sS'2.4.1.212'
p1954
(dp1955
sS'4.1.3.3'
p1956
(dp1957
sS'1.1.1.105'
p1958
(dp1959
S'671'
p1960
(lp1961
F0.02
assS'3.5.2.5'
p1962
(dp1963
sS'3.1.3.25'
p1964
(dp1965
sS'3.1.2.1'
p1966
(dp1967
sS'3.5.2.3'
p1968
(dp1969
sS'3.5.2.2'
p1970
(dp1971
sS'1.5.1.34'
p1972
(dp1973
S'1600'
p1974
(lp1975
F10.9
aF23.699999999999999
aF28.899999999999999
aF113
asS'2934'
p1976
(lp1977
F510
asS'3'
(lp1978
F280
asS'10809'
p1979
(lp1980
F10.9
aF23.699999999999999
aF28.899999999999999
aF113
asS'221'
p1981
(lp1982
F200
assS'2.7.8.15'
p1983
(dp1984
sS'3.5.2.9'
p1985
(dp1986
sS'3.5.1.25'
p1987
(dp1988
sS'4.2.1.46'
p1989
(dp1990
sS'4.1.3.25'
p1991
(dp1992
sS'3.5.1.23'
p1993
(dp1994
sS'2.4.1.174'
p1995
(dp1996
sS'2.4.1.175'
p1997
(dp1998
sS'2.7.7.9'
p1999
(dp2000
sS'4.1.2.13'
p2001
(dp2002
S'100'
p2003
(lp2004
F0.010999999999999999
aF0.029000000000000001
aF0.19
aF0.60999999999999999
aF2.1000000000000001
aF5.2000000000000002
aF12.6
aF16.699999999999999
aF20.100000000000001
aF59.700000000000003
asS'544'
p2005
(lp2006
F0.0080000000000000002
aF0.019
aF0.12
aF0.67000000000000004
aF2
aF2.7999999999999998
aF6.0800000000000001
aF1.28
aF1.48
aF10.800000000000001
assS'2.7.7.3'
p2007
(dp2008
sS'2.7.7.2'
p2009
(dp2010
S'118781'
p2011
(lp2012
F0.070000000000000007
asS'52'
p2013
(lp2014
F0.0035999999999999999
aF0.0035999999999999999
aF0.0047999999999999996
aF0.02
aF0.078
aF0.080000000000000002
assS'2.7.7.1'
p2015
(dp2016
S'623'
p2017
(lp2018
F2.5
aF8.8000000000000007
aF53.799999999999997
asS'1552'
p2019
(lp2020
F3.2999999999999998
aF7.2000000000000002
aF18.600000000000001
asS'1045'
p2021
(lp2022
F3.7999999999999998
aF6.9000000000000004
aF42.899999999999999
asS'7'
(lp2023
F2.5
aF8.8000000000000007
aF53.899999999999999
asS'2264'
p2024
(lp2025
F0.41999999999999998
aF0.55000000000000004
aF14.9
assS'2.7.7.4'
p2026
(dp2027
sS'2.7.7.30'
p2028
(dp2029
S'2846'
p2030
(lp2031
F3.6000000000000001
asS'17415'
p2032
(lp2033
F0.32000000000000001
asS'1231'
p2034
(lp2035
F0.17999999999999999
asS'1948'
p2036
(lp2037
F0.23000000000000001
asS'2884'
p2038
(lp2039
F0.20999999999999999
asS'5623'
p2040
(lp2041
F2.6000000000000001
asS'1442'
p2042
(lp2043
F0.029999999999999999
asS'7'
(lp2044
F0.0089999999999999993
asS'203'
p2045
(lp2046
F1.2
asS'23499'
p2047
(lp2048
F0.27000000000000002
asS'544'
p2049
(lp2050
F0.029999999999999999
asS'115540'
p2051
(lp2052
F0.32000000000000001
asS'23495'
p2053
(lp2054
F0.02
asS'23494'
p2055
(lp2056
F1.5
asS'23497'
p2057
(lp2058
F0.0089999999999999993
asS'23496'
p2059
(lp2060
F0.089999999999999997
asS'23498'
p2061
(lp2062
F0.28999999999999998
asS'35'
p2063
(lp2064
F2.5
aF2.5
asS'8839'
p2065
(lp2066
F0.40000000000000002
asS'1109'
p2067
(lp2068
F0.20000000000000001
assS'5.4.2.8'
p2069
(dp2070
sS'2.6.1.39'
p2071
(dp2072
sS'5.3.3.5'
p2073
(dp2074
S'816'
p2075
(lp2076
F0.42299999999999999
assS'5.2.1.3'
p2077
(dp2078
sS'4.1.1.28'
p2079
(dp2080
S'214'
p2081
(lp2082
F2.48
asS'275'
p2083
(lp2084
F0.070000000000000007
assS'5.2.1.7'
p2085
(dp2086
sS'1.1.1.211'
p2087
(dp2088
sS'1.3.3.4'
p2089
(dp2090
S'545'
p2091
(lp2092
F0.050000000000000003
aF0.17499999999999999
aF0.17499999999999999
aF0.17499999999999999
assS'1.3.3.6'
p2093
(dp2094
sS'1.3.3.1'
p2095
(dp2096
sS'1.3.3.2'
p2097
(dp2098
sS'2.5.1.29'
p2099
(dp2100
sS'2.5.1.26'
p2101
(dp2102
sS'2.5.1.22'
p2103
(dp2104
S'140'
p2105
(lp2106
F32
aF32
assS'2.5.1.21'
p2107
(dp2108
sS'1.2.1.12'
p2109
(dp2110
sS'1.15.1.1'
p2111
(dp2112
S'1630'
p2113
(lp2114
F4600
aF40000
assS'3.2.1.46'
p2115
(dp2116
sS'1.2.1.16'
p2117
(dp2118
sS'5.3.99.4'
p2119
(dp2120
sS'3.2.1.45'
p2121
(dp2122
sS'1.2.1.19'
p2123
(dp2124
sS'3.2.1.49'
p2125
(dp2126
sS'1.5.3.7'
p2127
(dp2128
sS'2.4.1.101'
p2129
(dp2130
sS'2.2.1.1'
p2131
(dp2132
sS'2.2.1.2'
p2133
(dp2134
sS'2.4.1.102'
p2135
(dp2136
sS'1.2.1.27'
p2137
(dp2138
sS'1.5.5.1'
p2139
(dp2140
S'744'
p2141
(lp2142
F74.299999999999997
asS'1735'
p2143
(lp2144
F78.799999999999997
asS'343'
p2145
(lp2146
F33.5
asS'4553'
p2147
(lp2148
F35.5
asS'170'
p2149
(lp2150
F21.399999999999999
assS'2.7.7.41'
p2151
(dp2152
sS'2.7.7.43'
p2153
(dp2154
sS'2.3.1.29'
p2155
(dp2156
sS'4.1.3.6'
p2157
(dp2158
sS'1.8.4.4'
p2159
(dp2160
sS'2.3.1.26'
p2161
(dp2162
sS'3.1.6.2'
p2163
(dp2164
S'3552'
p2165
(lp2166
F6.4800000000000004
assS'2.7.3.2'
p2167
(dp2168
S'1471'
p2169
(lp2170
F78.299999999999997
aF90
aF350
aF483.30000000000001
asS'7'
(lp2171
F51.700000000000003
aF75
aF76
aF88
aF115
aF143
aF155
asS'8'
(lp2172
F78.299999999999997
aF90
aF350
aF483.30000000000001
asS'361'
p2173
(lp2174
F51.700000000000003
aF75
aF138
aF170
aF238
aF417
assS'2.3.1.21'
p2175
(dp2176
sS'4.2.1.107'
p2177
(dp2178
sS'1.1.1.28'
p2179
(dp2180
sS'2.3.1.87'
p2181
(dp2182
S'365'
p2183
(lp2184
F17.300000000000001
aF20.300000000000001
aF25.899999999999999
assS'1.1.1.22'
p2185
(dp2186
S'60'
p2187
(lp2188
F1.3999999999999999
asS'4'
(lp2189
F1.8
assS'1.1.1.21'
p2190
(dp2191
S'138'
p2192
(lp2193
F1.73
asS'3595'
p2194
(lp2195
F0.017000000000000001
asS'1065'
p2196
(lp2197
F2
asS'664'
p2198
(lp2199
F1.3700000000000001
asS'258'
p2200
(lp2201
F0.76000000000000001
asS'67'
p2202
(lp2203
F0.23300000000000001
asS'1895'
p2204
(lp2205
F0.81999999999999995
asS'19978'
p2206
(lp2207
F0.64000000000000001
asS'1739'
p2208
(lp2209
F1.3400000000000001
asS'3216'
p2210
(lp2211
F0.065000000000000002
asS'497'
p2212
(lp2213
F0.57999999999999996
asS'415'
p2214
(lp2215
F1.3
asS'4808'
p2216
(lp2217
F1.4299999999999999
asS'405'
p2218
(lp2219
F0.43099999999999999
asS'520'
p2220
(lp2221
F0.55000000000000004
asS'4984'
p2222
(lp2223
F0.0080000000000000002
asS'1781'
p2224
(lp2225
F0.0040000000000000001
asS'2150'
p2226
(lp2227
F0.078
aF0.16500000000000001
asS'1677'
p2228
(lp2229
F0.11700000000000001
asS'1461'
p2230
(lp2231
F1.25
asS'26398'
p2232
(lp2233
F1.8300000000000001
asS'2466'
p2234
(lp2235
F0.050000000000000003
asS'4314'
p2236
(lp2237
F0.155
aF0.5
asS'10405'
p2238
(lp2239
F0.47999999999999998
asS'759'
p2240
(lp2241
F0.56699999999999995
asS'1553'
p2242
(lp2243
F1.3799999999999999
asS'1091'
p2244
(lp2245
F1.1200000000000001
asS'2352'
p2246
(lp2247
F1.3200000000000001
asS'8284'
p2248
(lp2249
F0.042000000000000003
asS'109'
p2250
(lp2251
F1.7
asS'10449'
p2252
(lp2253
F0.0060000000000000001
asS'226'
p2254
(lp2255
F0.16700000000000001
asS'1153'
p2256
(lp2257
F0.78000000000000003
asS'2977'
p2258
(lp2259
F1.8700000000000001
asS'5104'
p2260
(lp2261
F0.75
asS'13248'
p2262
(lp2263
F0.012
asS'33'
p2264
(lp2265
F0.183
asS'514'
p2266
(lp2267
F2.3700000000000001
asS'1681'
p2268
(lp2269
F2.5
asS'646'
p2270
(lp2271
F1.1200000000000001
asS'921'
p2272
(lp2273
F0.158
asS'290'
p2274
(lp2275
F2.2999999999999998
assS'1.1.1.20'
p2276
(dp2277
sS'1.1.1.27'
p2278
(dp2279
sS'2.7.1.113'
p2280
(dp2281
sS'3.5.4.9'
p2282
(dp2283
sS'3.5.4.3'
p2284
(dp2285
sS'1.3.1.70'
p2286
(dp2287
sS'1.6.5.4'
p2288
(dp2289
sS'3.5.4.6'
p2290
(dp2291
sS'3.5.4.5'
p2292
(dp2293
sS'3.5.4.4'
p2294
(dp2295
S'116'
p2296
(lp2297
F180
assS'3.1.2.22'
p2298
(dp2299
sS'4.1.1.65'
p2300
(dp2301
sS'2.4.1.198'
p2302
(dp2303
sS'1.3.5.1'
p2304
(dp2305
sS'3.4.11.4'
p2306
(dp2307
S'9458'
p2308
(lp2309
F0.56000000000000005
asS'16683'
p2310
(lp2311
F5.2999999999999998
assS'1.2.1.29'
p2312
(dp2313
sS'3.6.3.1'
p2314
(dp2315
sS'3.6.3.6'
p2316
(dp2317
sS'3.5.99.6'
p2318
(dp2319
sS'3.6.3.9'
p2320
(dp2321
sS'1.14.13.9'
p2322
(dp2323
sS'1.14.13.8'
p2324
(dp2325
S'1588'
p2326
(lp2327
F0.97299999999999998
asS'3462'
p2328
(lp2329
F0.023
aF0.085000000000000006
aF1.335
asS'867'
p2330
(lp2331
F0.037999999999999999
aF0.042999999999999997
aF0.52500000000000002
assS'1.5.1.8'
p2332
(dp2333
sS'1.14.11.4'
p2334
(dp2335
sS'1.14.11.1'
p2336
(dp2337
S'32'
p2338
(lp2339
F0.39000000000000001
aF0.55000000000000004
aF5.0999999999999996
assS'2.8.2.17'
p2340
(dp2341
sS'1.14.11.2'
p2342
(dp2343
S'1026'
p2344
(lp2345
F0.22
asS'25404'
p2346
(lp2347
F6
asS'25405'
p2348
(lp2349
F4.2000000000000002
asS'25406'
p2350
(lp2351
F7.7999999999999998
asS'23297'
p2352
(lp2353
F0.14999999999999999
assS'1.5.1.2'
p2354
(dp2355
S'3377'
p2356
(lp2357
F10
asS'6'
(lp2358
F55
assS'1.5.1.3'
p2359
(dp2360
S'5'
(lp2361
F51
asS'173'
p2362
(lp2363
F8.3300000000000001
aF10
aF10
aF51
asS'1001'
p2364
(lp2365
F1.0800000000000001
assS'1.5.1.5'
p2366
(dp2367
S'727'
p2368
(lp2369
F3.2000000000000002
aF9.4000000000000004
asS'6'
(lp2370
F3.7999999999999998
aF10
assS'1.5.1.6'
p2371
(dp2372
sS'3.4.21.35'
p2373
(dp2374
S'114785'
p2375
(lp2376
F17.699999999999999
asS'14459'
p2377
(lp2378
F0.12
asS'6574'
p2379
(lp2380
F0.0064999999999999997
asS'8878'
p2381
(lp2382
F0.0035000000000000001
asS'3623'
p2383
(lp2384
F0.031
asS'22281'
p2385
(lp2386
F0.040000000000000001
asS'7848'
p2387
(lp2388
F3.1000000000000001
asS'12022'
p2389
(lp2390
F0.0038
asS'14526'
p2391
(lp2392
F0.026700000000000002
asS'14511'
p2393
(lp2394
F0.91700000000000004
asS'6465'
p2395
(lp2396
F0.0074999999999999997
asS'3191'
p2397
(lp2398
F6.0999999999999996
asS'7849'
p2399
(lp2400
F0.72999999999999998
asS'77970'
p2401
(lp2402
F0.33000000000000002
assS'2.7.1.149'
p2403
(dp2404
sS'6.4.1.2'
p2405
(dp2406
S'27'
p2407
(lp2408
F0.192
aF10.1
aF11.800000000000001
asS'7'
(lp2409
F0.155
assS'6.4.1.3'
p2410
(dp2411
sS'6.4.1.1'
p2412
(dp2413
sS'1.14.19.1'
p2414
(dp2415
sS'3.4.21.39'
p2416
(dp2417
S'558'
p2418
(lp2419
F65
aF140
aF143
asS'7394'
p2420
(lp2421
F120
asS'741'
p2422
(lp2423
F65
aF2.5
aF3.6000000000000001
asS'10883'
p2424
(lp2425
F4
asS'5584'
p2426
(lp2427
F53
asS'5585'
p2428
(lp2429
F56
asS'10878'
p2430
(lp2431
F10
asS'10879'
p2432
(lp2433
F3.8999999999999999
asS'3185'
p2434
(lp2435
F24.699999999999999
aF25.600000000000001
asS'3952'
p2436
(lp2437
F19.300000000000001
asS'10871'
p2438
(lp2439
F61
asS'10872'
p2440
(lp2441
F68
asS'10875'
p2442
(lp2443
F14
asS'10877'
p2444
(lp2445
F100
asS'10876'
p2446
(lp2447
F58
asS'7395'
p2448
(lp2449
F21
aF21
asS'10874'
p2450
(lp2451
F79
asS'7396'
p2452
(lp2453
F1.2
aF8.6999999999999993
aF8.6999999999999993
asS'13866'
p2454
(lp2455
F2.5
asS'21134'
p2456
(lp2457
F160
asS'21135'
p2458
(lp2459
F210
asS'10884'
p2460
(lp2461
F38
asS'10886'
p2462
(lp2463
F19
asS'7947'
p2464
(lp2465
F23
asS'10880'
p2466
(lp2467
F8.4000000000000004
asS'10881'
p2468
(lp2469
F5.9000000000000004
asS'10882'
p2470
(lp2471
F10
asS'10870'
p2472
(lp2473
F56
aF86
asS'10873'
p2474
(lp2475
F77
asS'7705'
p2476
(lp2477
F143
asS'7388'
p2478
(lp2479
F51
asS'8618'
p2480
(lp2481
F6.7000000000000002
asS'6335'
p2482
(lp2483
F6.2000000000000002
asS'6336'
p2484
(lp2485
F75
aF75
asS'4954'
p2486
(lp2487
F7.5
assS'6.4.1.4'
p2488
(dp2489
sS'3.3.2.6'
p2490
(dp2491
S'5064'
p2492
(lp2493
F1.8999999999999999
asS'9458'
p2494
(lp2495
F0.56000000000000005
asS'2640'
p2496
(lp2497
F0.040000000000000001
asS'2484'
p2498
(lp2499
F0.14999999999999999
asS'5470'
p2500
(lp2501
F1.8999999999999999
asS'11224'
p2502
(lp2503
F0.14999999999999999
asS'648'
p2504
(lp2505
F0.14999999999999999
aF0.84999999999999998
aF0.84999999999999998
aF1.5
aF2.0800000000000001
asS'3671'
p2506
(lp2507
F0.14999999999999999
aF0.34999999999999998
asS'2879'
p2508
(lp2509
F0.59999999999999998
aF1.7
assS'4.2.1.47'
p2510
(dp2511
S'312'
p2512
(lp2513
F0.80000000000000004
assS'2.4.1.119'
p2514
(dp2515
sS'1.13.11.52'
p2516
(dp2517
S'11'
p2518
(lp2519
F2.8999999999999999
asS'657'
p2520
(lp2521
F0.20000000000000001
aF3.9300000000000002
aF5.9000000000000004
asS'1661'
p2522
(lp2523
F0.064000000000000001
asS'113'
p2524
(lp2525
F0.87
aF1
aF1.3
aF1.3999999999999999
aF1.3999999999999999
aF1.7
aF2.2000000000000002
aF2.2400000000000002
aF2.5
aF3
aF3.1000000000000001
aF3.2000000000000002
aF3.3999999999999999
aF3.5
aF4.2000000000000002
aF6.4000000000000004
aF8.0999999999999996
aF10
aF12
asS'6531'
p2526
(lp2527
F0.76000000000000001
asS'4375'
p2528
(lp2529
F3.7799999999999998
asS'1035'
p2530
(lp2531
F0.025000000000000001
assS'5.3.1.8'
p2532
(dp2533
S'113798'
p2534
(lp2535
F3
assS'3.5.1.26'
p2536
(dp2537
sS'1.13.11.5'
p2538
(dp2539
S'1359'
p2540
(lp2541
F10.1
aF32.200000000000003
aF43.399999999999999
assS'1.7.14.1'
p2542
(dp2543
sS'3.4.19.9'
p2544
(dp2545
sS'3.3.2.9'
p2546
(dp2547
sS'3.1.4.37'
p2548
(dp2549
sS'5.3.3.12'
p2550
(dp2551
sS'4.1.1.23'
p2552
(dp2553
S'599'
p2554
(lp2555
F0.75
aF8.0999999999999996
assS'5.1.99.4'
p2556
(dp2557
S'10037'
p2558
(lp2559
F0.031
aF0.070000000000000007
asS'113852'
p2560
(lp2561
F0.0094999999999999998
asS'113851'
p2562
(lp2563
F0.014999999999999999
assS'1.1.1.153'
p2564
(dp2565
sS'2.4.1.143'
p2566
(dp2567
sS'2.6.1.5'
p2568
(dp2569
S'38'
p2570
(lp2571
F3.7999999999999998
aF69
asS'32'
p2572
(lp2573
F0.25
asS'353'
p2574
(lp2575
F1.2
asS'103'
p2576
(lp2577
F1
aF83
assS'1.13.11.27'
p2578
(dp2579
sS'1.13.11.20'
p2580
(dp2581
S'70'
p2582
(lp2583
F1.7
assS'5.3.1.1'
p2584
(dp2585
sS'2.3.1.76'
p2586
(dp2587
sS'3.5.1.14'
p2588
(dp2589
S'881'
p2590
(lp2591
F65
aF38.299999999999997
aF38.299999999999997
asS'5176'
p2592
(lp2593
F0.0062300000000000003
asS'450'
p2594
(lp2595
F156
aF156
asS'5177'
p2596
(lp2597
F0.158
asS'7968'
p2598
(lp2599
F13.300000000000001
asS'2051'
p2600
(lp2601
F0.14000000000000001
asS'5175'
p2602
(lp2603
F16.100000000000001
asS'109259'
p2604
(lp2605
F120
asS'109258'
p2606
(lp2607
F150
asS'6767'
p2608
(lp2609
F0.52900000000000003
aF6.0800000000000001
asS'3577'
p2610
(lp2611
F31.699999999999999
asS'3576'
p2612
(lp2613
F30.699999999999999
asS'3347'
p2614
(lp2615
F177
asS'4881'
p2616
(lp2617
F14.699999999999999
asS'4883'
p2618
(lp2619
F0.0101
asS'7966'
p2620
(lp2621
F16.199999999999999
asS'7967'
p2622
(lp2623
F0.0015
asS'7964'
p2624
(lp2625
F25.699999999999999
asS'7965'
p2626
(lp2627
F139
asS'1771'
p2628
(lp2629
F30
aF28.100000000000001
asS'5485'
p2630
(lp2631
F55.5
asS'3466'
p2632
(lp2633
F0.105
asS'109260'
p2634
(lp2635
F80
asS'12326'
p2636
(lp2637
F12.4
asS'12325'
p2638
(lp2639
F156
asS'12324'
p2640
(lp2641
F2.23
asS'4445'
p2642
(lp2643
F1.2
assS'3.5.1.15'
p2644
(dp2645
S'1675'
p2646
(lp2647
F37.5
assS'3.5.1.16'
p2648
(dp2649
sS'2.3.1.78'
p2650
(dp2651
sS'3.4.11.1'
p2652
(dp2653
sS'3.5.1.12'
p2654
(dp2655
sS'3.4.11.2'
p2656
(dp2657
S'3781'
p2658
(lp2659
F303
assS'3.1.3.4'
p2660
(dp2661
S'62727'
p2662
(lp2663
F354
asS'2671'
p2664
(lp2665
F177
assS'3.1.3.5'
p2666
(dp2667
S'150'
p2668
(lp2669
F132
asS'991'
p2670
(lp2671
F0.023
aF0.027
aF0.067000000000000004
aF0.14999999999999999
asS'154'
p2672
(lp2673
F19
aF22
asS'206'
p2674
(lp2675
F104
asS'575'
p2676
(lp2677
F174
asS'518'
p2678
(lp2679
F40
asS'127'
p2680
(lp2681
F289
asS'9'
(lp2682
F187
asS'94'
p2683
(lp2684
F202
assS'3.1.3.7'
p2685
(dp2686
sS'2.4.1.149'
p2687
(dp2688
sS'3.1.3.1'
p2689
(dp2690
S'13'
p2691
(lp2692
F244
asS'30'
p2693
(lp2694
F92
assS'3.1.3.2'
p2695
(dp2696
S'1164'
p2697
(lp2698
F62
asS'61'
p2699
(lp2700
F119
asS'130'
p2701
(lp2702
F198
asS'137'
p2703
(lp2704
F107
asS'24'
p2705
(lp2706
F79
asS'49'
p2707
(lp2708
F86
asS'47'
p2709
(lp2710
F2
asS'1779'
p2711
(lp2712
F53
asS'7'
(lp2713
F119
asS'8'
(lp2714
F73
asS'188'
p2715
(lp2716
F58
asS'449'
p2717
(lp2718
F69
asS'3018'
p2719
(lp2720
F121
asS'7231'
p2721
(lp2722
F109
asS'56'
p2723
(lp2724
F93
asS'35'
p2725
(lp2726
F113
assS'3.1.3.3'
p2727
(dp2728
sS'2.4.1.145'
p2729
(dp2730
sS'2.4.1.144'
p2731
(dp2732
sS'3.4.17.1'
p2733
(dp2734
S'558'
p2735
(lp2736
F8.2300000000000004
asS'6499'
p2737
(lp2738
F44.299999999999997
asS'1872'
p2739
(lp2740
F3.4300000000000002
asS'30821'
p2741
(lp2742
F13.300000000000001
asS'22258'
p2743
(lp2744
F19.399999999999999
asS'5569'
p2745
(lp2746
F11.699999999999999
aF66.700000000000003
asS'14471'
p2747
(lp2748
F24.300000000000001
asS'14472'
p2749
(lp2750
F13.4
asS'27142'
p2751
(lp2752
F1.45
asS'27141'
p2753
(lp2754
F23.899999999999999
asS'27140'
p2755
(lp2756
F12.4
asS'2568'
p2757
(lp2758
F48.299999999999997
aF112
asS'27139'
p2759
(lp2760
F57.299999999999997
asS'2214'
p2761
(lp2762
F2.3300000000000001
asS'1629'
p2763
(lp2764
F0.23999999999999999
asS'350'
p2765
(lp2766
F0.042000000000000003
assS'2.4.1.141'
p2767
(dp2768
sS'3.1.3.9'
p2769
(dp2770
sS'3.6.1.39'
p2771
(dp2772
sS'2.4.1.142'
p2773
(dp2774
sS'3.6.1.1'
p2775
(dp2776
sS'4.1.2.14'
p2777
(dp2778
sS'3.6.1.5'
p2779
(dp2780
sS'3.6.1.7'
p2781
(dp2782
sS'1.6.1.2'
p2783
(dp2784
sS'3.6.1.9'
p2785
(dp2786
sS'3.6.1.6'
p2787
(dp2788
sS'4.1.3.4'
p2789
(dp2790
S'1366'
p2791
(lp2792
F0.105
aF0.127
assS'2.6.19.4'
p2793
(dp2794
sS'3.1.1.7'
p2795
(dp2796
S'463'
p2797
(lp2798
F6500
assS'3.1.1.4'
p2799
(dp2800
sS'3.1.1.2'
p2801
(dp2802
S'20932'
p2803
(lp2804
F117
asS'11887'
p2805
(lp2806
F14
asS'22173'
p2807
(lp2808
F18
asS'23697'
p2809
(lp2810
F571
asS'23696'
p2811
(lp2812
F0.81999999999999995
asS'23695'
p2813
(lp2814
F0.5
asS'23699'
p2815
(lp2816
F125
asS'23698'
p2817
(lp2818
F431
asS'2567'
p2819
(lp2820
F0.00080000000000000004
aF0.02
asS'15587'
p2821
(lp2822
F51
asS'15588'
p2823
(lp2824
F1
asS'4492'
p2825
(lp2826
F0.27000000000000002
asS'15881'
p2827
(lp2828
F13
asS'9152'
p2829
(lp2830
F0.24399999999999999
asS'17398'
p2831
(lp2832
F68
asS'9003'
p2833
(lp2834
F26
asS'1982'
p2835
(lp2836
F0.24199999999999999
asS'38840'
p2837
(lp2838
F23
asS'23701'
p2839
(lp2840
F403
asS'23700'
p2841
(lp2842
F334
asS'23702'
p2843
(lp2844
F145
asS'23925'
p2845
(lp2846
F4
asS'8817'
p2847
(lp2848
F0.40000000000000002
asS'10922'
p2849
(lp2850
F59
asS'350'
p2851
(lp2852
F26
aF1300
asS'659'
p2853
(lp2854
F454
aF503
aF659
aF698
aF796
aF843.60000000000002
aF843.60000000000002
aF850
aF854
aF1200
aF1541
aF1901
aF3373
aF4778
assS'1.1.1.62'
p2855
(dp2856
S'594'
p2857
(lp2858
F0.33000000000000002
asS'602'
p2859
(lp2860
F4.4000000000000004
asS'239'
p2861
(lp2862
F0.16
asS'503'
p2863
(lp2864
F5.7999999999999998
assS'3.1.1.1'
p2865
(dp2866
S'6590'
p2867
(lp2868
F3.0000000000000001e-06
aF0.00027
aF0.0040000000000000001
asS'1225'
p2869
(lp2870
F140
asS'1146'
p2871
(lp2872
F18
asS'23599'
p2873
(lp2874
F0.00040999999999999999
asS'4691'
p2875
(lp2876
F0.028000000000000001
aF0.056000000000000001
asS'6555'
p2877
(lp2878
F31
asS'5723'
p2879
(lp2880
F210
asS'3434'
p2881
(lp2882
F105
asS'3022'
p2883
(lp2884
F7
asS'2649'
p2885
(lp2886
F48
asS'21344'
p2887
(lp2888
F651
asS'9446'
p2889
(lp2890
F0.034000000000000002
asS'7789'
p2891
(lp2892
F1.5e-05
aF8.0000000000000007e-05
aF0.017000000000000001
asS'3050'
p2893
(lp2894
F0.00080000000000000004
aF0.0028
asS'350'
p2895
(lp2896
F17
aF70
asS'436'
p2897
(lp2898
F190
assS'3.4.15.1'
p2899
(dp2900
S'13836'
p2901
(lp2902
F283
asS'13837'
p2903
(lp2904
F383
asS'558'
p2905
(lp2906
F0.57999999999999996
aF8.3300000000000001
aF8.6999999999999993
aF52
asS'7622'
p2907
(lp2908
F0.90000000000000002
aF1
aF1.3999999999999999
asS'6497'
p2909
(lp2910
F31
aF79
aF79.900000000000006
aF101.7
asS'3275'
p2911
(lp2912
F2.2000000000000002
aF2.7000000000000002
aF4.2000000000000002
asS'7674'
p2913
(lp2914
F2.2000000000000002
asS'7618'
p2915
(lp2916
F2.6000000000000001
aF2.8999999999999999
aF8.6999999999999993
asS'7619'
p2917
(lp2918
F1
aF1.3999999999999999
aF4.2000000000000002
asS'7632'
p2919
(lp2920
F26.699999999999999
aF54.899999999999999
aF69.200000000000003
asS'7630'
p2921
(lp2922
F0.20000000000000001
aF13.9
aF82
asS'7631'
p2923
(lp2924
F1.01
aF58.799999999999997
aF85.599999999999994
asS'957'
p2925
(lp2926
F3.75
asS'7628'
p2927
(lp2928
F7
aF28.899999999999999
aF62.5
asS'7617'
p2929
(lp2930
F3.3999999999999999
aF5
aF10.4
asS'6496'
p2931
(lp2932
F0.059999999999999998
aF1.1000000000000001
aF18.699999999999999
aF36.299999999999997
asS'10819'
p2933
(lp2934
F368
asS'11478'
p2935
(lp2936
F179
asS'5805'
p2937
(lp2938
F1400
asS'7625'
p2939
(lp2940
F3
aF3.7000000000000002
aF4.7999999999999998
asS'7624'
p2941
(lp2942
F1
aF2
aF3.2999999999999998
asS'7627'
p2943
(lp2944
F0.10000000000000001
aF24.600000000000001
aF44.200000000000003
asS'7621'
p2945
(lp2946
F1.8
aF3.2999999999999998
aF3.7999999999999998
asS'7620'
p2947
(lp2948
F0.90000000000000002
aF1.3
aF2.3999999999999999
asS'7623'
p2949
(lp2950
F2.3999999999999999
aF10.1
aF12.6
asS'387'
p2951
(lp2952
F8.3300000000000001
asS'7629'
p2953
(lp2954
F13.699999999999999
aF28.600000000000001
asS'7843'
p2955
(lp2956
F460
asS'7842'
p2957
(lp2958
F550
asS'2214'
p2959
(lp2960
F11.699999999999999
asS'5081'
p2961
(lp2962
F0.29999999999999999
aF0.59999999999999998
aF2
asS'1629'
p2963
(lp2964
F0.56699999999999995
asS'7626'
p2965
(lp2966
F0.80000000000000004
aF2
aF2.2999999999999998
asS'1244'
p2967
(lp2968
F76.700000000000003
aF196
aF414
aF545
asS'1872'
p2969
(lp2970
F58.299999999999997
assS'4.4.1.1'
p2971
(dp2972
S'260'
p2973
(lp2974
F3.5
aF3.7000000000000002
asS'482'
p2975
(lp2976
F1.8999999999999999
aF1.7
aF1.8999999999999999
aF7.5
asS'70'
p2977
(lp2978
F0.40000000000000002
aF0.67000000000000004
assS'4.4.1.5'
p2979
(dp2980
S'6768'
p2981
(lp2982
F222
asS'4699'
p2983
(lp2984
F164
asS'41'
p2985
(lp2986
F1360
asS'258'
p2987
(lp2988
F1070
aF1070
asS'277'
p2989
(lp2990
F1130
aF1130
asS'1290'
p2991
(lp2992
F104
asS'2409'
p2993
(lp2994
F83
assS'3.2.1.18'
p2995
(dp2996
sS'3.2.1.10'
p2997
(dp2998
sS'3.2.1.14'
p2999
(dp3000
S'4001'
p3001
(lp3002
F0.050000000000000003
assS'2.4.1.148'
p3003
(dp3004
sS'4.2.1.1'
p3005
(dp3006
S'175'
p3007
(lp3008
F28700
aF29500
asS'17'
p3009
(lp3010
F0.00040000000000000002
aF800
aF13000
aF13000
aF18300
aF130000
aF150000
aF150000
aF150000
aF200000
aF1400000
aF1400000
assS'1.3.1.2'
p3011
(dp3012
sS'1.3.1.1'
p3013
(dp3014
sS'3.4.13.3'
p3015
(dp3016
sS'3.5.4.1'
p3017
(dp3018
sS'2.7.1.137'
p3019
(dp3020
sS'2.7.1.134'
p3021
(dp3022
sS'2.1.4.1'
p3023
(dp3024
sS'3.1.3.36'
p3025
(dp3026
sS'2.7.1.138'
p3027
(dp3028
sS'2.7.1.48'
p3029
(dp3030
S'314'
p3031
(lp3032
F3.2000000000000002
assS'3.5.1.3'
p3033
(dp3034
sS'2.1.2.5'
p3035
(dp3036
sS'2.7.1.40'
p3037
(dp3038
sS'1.1.1.188'
p3039
(dp3040
S'458'
p3041
(lp3042
F1.3999999999999999
asS'897'
p3043
(lp3044
F0.0027000000000000001
assS'2.7.1.47'
p3045
(dp3046
sS'2.1.2.2'
p3047
(dp3048
S'1224'
p3049
(lp3050
F0.0033999999999999998
aF0.026200000000000001
aF0.066199999999999995
aF0.26200000000000001
aF0.29299999999999998
aF0.63
aF7.5
asS'1373'
p3051
(lp3052
F0.0019
aF0.0058999999999999999
aF0.017999999999999999
aF0.031
aF0.042999999999999997
aF0.10199999999999999
assS'6.2.1.24'
p3053
(dp3054
sS'6.2.1.4'
p3055
(dp3056
sS'6.2.1.5'
p3057
(dp3058
sS'6.2.1.7'
p3059
(dp3060
sS'6.2.1.1'
p3061
(dp3062
sS'6.2.1.2'
p3063
(dp3064
sS'6.2.1.3'
p3065
(dp3066
sS'1.13.99.1'
p3067
(dp3068
sS'1.1.1.184'
p3069
(dp3070
S'458'
p3071
(lp3072
F3.5699999999999998
aF5.25
aF6.7000000000000002
asS'753'
p3073
(lp3074
F2.6200000000000001
asS'212'
p3075
(lp3076
F0.010999999999999999
aF0.28000000000000003
aF0.29999999999999999
aF0.68000000000000005
aF110
asS'1156'
p3077
(lp3078
F1.9399999999999999
aF91
asS'1267'
p3079
(lp3080
F0.0103
aF0.29999999999999999
aF1.2
asS'662'
p3081
(lp3082
F0.0103
aF0.20999999999999999
asS'712'
p3083
(lp3084
F25
asS'5'
(lp3085
F179
asS'823'
p3086
(lp3087
F0.25
aF0.55000000000000004
asS'646'
p3088
(lp3089
F0.17000000000000001
aF9.7699999999999996
asS'2352'
p3090
(lp3091
F0.32000000000000001
aF5.1299999999999999
asS'1415'
p3092
(lp3093
F3.4700000000000002
aF6.7000000000000002
assS'4.1.1.33'
p3094
(dp3095
S'1105'
p3096
(lp3097
F4.5
assS'4.1.1.32'
p3098
(dp3099
sS'2.1.1.20'
p3100
(dp3101
S'68'
p3102
(lp3103
F1.6000000000000001
asS'22'
p3104
(lp3105
F1.6000000000000001
assS'4.1.1.30'
p3106
(dp3107
sS'4.1.1.37'
p3108
(dp3109
sS'4.1.1.36'
p3110
(dp3111
S'10724'
p3112
(lp3113
F2.8999999999999999
assS'4.1.1.35'
p3114
(dp3115
sS'4.1.1.34'
p3116
(dp3117
sS'2.1.1.28'
p3118
(dp3119
S'1314'
p3120
(lp3121
F0.02
aF0.021000000000000001
asS'22'
p3122
(lp3123
F0.047300000000000002
asS'24374'
p3124
(lp3125
F0.0047999999999999996
asS'12129'
p3126
(lp3127
F0.0080000000000000002
aF0.0083000000000000001
asS'12160'
p3128
(lp3129
F0.0061999999999999998
asS'1880'
p3130
(lp3131
F0.042999999999999997
aF0.044999999999999998
aF0.047
assS'3.1.3.46'
p3132
(dp3133
sS'3.1.3.41'
p3134
(dp3135
sS'1.2.1.4'
p3136
(dp3137
sS'1.13.11.11'
p3138
(dp3139
S'113'
p3140
(lp3141
F1.55
aF0.59999999999999998
aF1.3999999999999999
aF1.3999999999999999
aF2.1000000000000001
aF6.1200000000000001
asS'657'
p3142
(lp3143
F2.0699999999999998
aF0.20000000000000001
asS'6531'
p3144
(lp3145
F0.17999999999999999
asS'1035'
p3146
(lp3147
F0.065000000000000002
assS'4.6.1.2'
p3148
(dp3149
sS'4.6.1.1'
p3150
(dp3151
sS'2.8.3.5'
p3152
(dp3153
sS'1.13.11.19'
p3154
(dp3155
sS'3.5.3.1'
p3156
(dp3157
S'117'
p3158
(lp3159
F190
aF190
assS'3.1.1.3'
p3160
(dp3161
sS'5.5.1.4'
p3162
(dp3163
sS'4.3.1.4'
p3164
(dp3165
sS'5.2.1.2'
p3166
(dp3167
S'3306'
p3168
(lp3169
F464
asS'2637'
p3170
(lp3171
F0.55000000000000004
aF0.58999999999999997
aF0.81999999999999995
aF1.3
assS'5.3.1.9'
p3172
(dp3173
S'82'
p3174
(lp3175
F3330
asS'99'
p3176
(lp3177
F500
assS'2.4.1.201'
p3178
(dp3179
sS'1.5.3.11'
p3180
(dp3181
sS'1.1.1.9'
p3182
(dp3183
sS'2.4.99.6'
p3184
(dp3185
sS'2.4.99.7'
p3186
(dp3187
sS'1.2.4.4'
p3188
(dp3189
S'611'
p3190
(lp3191
F3.2999999999999998
aF9.4000000000000004
aF0.1983
assS'3.10.1.1'
p3192
(dp3193
sS'1.14.11.18'
p3194
(dp3195
sS'2.1.2.10'
p3196
(dp3197
sS'2.4.99.1'
p3198
(dp3199
sS'2.4.99.8'
p3200
(dp3201
sS'2.4.99.9'
p3202
(dp3203
sS'2.4.1.147'
p3204
(dp3205
sS'3.1.6.4'
p3206
(dp3207
sS'3.2.1.1'
p3208
(dp3209
S'38861'
p3210
(lp3211
F150
asS'15127'
p3212
(lp3213
F283
aF285
asS'23137'
p3214
(lp3215
F443
asS'3686'
p3216
(lp3217
F175
asS'3083'
p3218
(lp3219
F2.98
aF1.8999999999999999
aF2
aF2.1000000000000001
aF2.2000000000000002
aF2.3999999999999999
aF3.5
aF4.4000000000000004
aF15.800000000000001
assS'2.4.1.1'
p3220
(dp3221
sS'3.2.1.3'
p3222
(dp3223
sS'4.2.1.4'
p3224
(dp3225
sS'4.2.1.2'
p3226
(dp3227
sS'4.2.1.3'
p3228
(dp3229
sS'6.3.2.5'
p3230
(dp3231
S'56'
p3232
(lp3233
F0.53000000000000003
asS'7'
(lp3234
F0.56000000000000005
assS'1.1.1.50'
p3235
(dp3236
S'458'
p3237
(lp3238
F18.899999999999999
asS'594'
p3239
(lp3240
F0.0038
aF0.02
aF0.039800000000000002
aF0.096500000000000002
aF0.114
aF0.0167
asS'109514'
p3241
(lp3242
F0.0040000000000000001
aF0.0167
aF0.20300000000000001
aF0.32000000000000001
aF0.50700000000000001
asS'23122'
p3243
(lp3244
F0.14000000000000001
asS'397'
p3245
(lp3246
F0.0078300000000000002
aF0.13300000000000001
asS'2821'
p3247
(lp3248
F0.00017000000000000001
asS'5'
(lp3249
F0.0030000000000000001
asS'6'
(lp3250
F0.00017000000000000001
asS'1755'
p3251
(lp3252
F0.0030000000000000001
aF0.0040000000000000001
aF0.0080000000000000002
aF0.040000000000000001
asS'3896'
p3253
(lp3254
F1.8999999999999999
asS'5160'
p3255
(lp3256
F1.5999999999999999e-05
aF0.012
asS'612'
p3257
(lp3258
F1.0800000000000001
asS'247'
p3259
(lp3260
F0.075700000000000003
asS'4625'
p3261
(lp3262
F1.5999999999999999e-05
aF0.00050000000000000001
aF0.0040000000000000001
aF0.016
asS'4626'
p3263
(lp3264
F0.0023
aF0.0025000000000000001
aF0.045999999999999999
aF0.073499999999999996
asS'1539'
p3265
(lp3266
F0.0167
aF0.017999999999999999
aF0.050000000000000003
assS'3.2.1.25'
p3267
(dp3268
sS'1.14.13.17'
p3269
(dp3270
S'2027'
p3271
(lp3272
F0.059999999999999998
aF0.12
asS'3537'
p3273
(lp3274
F0.040000000000000001
assS'2.6.1.22'
p3275
(dp3276
sS'2.6.1.21'
p3277
(dp3278
sS'6.3.4.1'
p3279
(dp3280
sS'6.3.4.3'
p3281
(dp3282
sS'4.99.1.1'
p3283
(dp3284
S'23'
p3285
(lp3286
F0.017999999999999999
aF0.10000000000000001
asS'19'
p3287
(lp3288
F3.2000000000000002
aF3.5
asS'3838'
p3289
(lp3290
F0.057299999999999997
assS'3.5.3.11'
p3291
(dp3292
S'420'
p3293
(lp3294
F3
assS'1.1.1.204'
p3295
(dp3296
sS'1.1.1.205'
p3297
(dp3298
S'4'
(lp3299
F0.021700000000000001
aF0.025000000000000001
aF0.39000000000000001
asS'206'
p3300
(lp3301
F0.023300000000000001
aF0.029999999999999999
aF0.17999999999999999
aF0.31
aF1.3999999999999999
aF1.47
aF1.8
assS'1.1.1.161'
p3302
(dp3303
sS'2.4.1.41'
p3304
(dp3305
S'6795'
p3306
(lp3307
F0.52000000000000002
aF0.76000000000000001
aF1.3999999999999999
asS'5872'
p3308
(lp3309
F0.040000000000000001
aF0.050000000000000003
aF0.051999999999999998
aF0.052999999999999999
aF0.123
aF0.193
asS'3277'
p3310
(lp3311
F0.040000000000000001
aF0.058000000000000003
aF0.13700000000000001
aF0.14999999999999999
aF0.218
aF0.22
aF0.23999999999999999
aF0.33000000000000002
asS'3278'
p3312
(lp3313
F0.067000000000000004
aF0.074999999999999997
aF0.10299999999999999
aF0.108
aF0.17000000000000001
aF0.28999999999999998
aF0.31
aF0.40000000000000002
asS'25436'
p3314
(lp3315
F0.127
assS'2.3.1.88'
p3316
(dp3317
sS'1.2.1.32'
p3318
(dp3319
sS'3.2.1.113'
p3320
(dp3321
S'3034'
p3322
(lp3323
F3.7000000000000002
asS'3447'
p3324
(lp3325
F3.7000000000000002
assS'2.3.1.86'
p3326
(dp3327
sS'3.2.1.114'
p3328
(dp3329
S'115560'
p3330
(lp3331
F4.6699999999999999
asS'1177'
p3332
(lp3333
F0.0025000000000000001
assS'2.3.1.85'
p3334
(dp3335
S'27'
p3336
(lp3337
F2.7000000000000002
asS'72'
p3338
(lp3339
F2.7000000000000002
assS'3.5.1.42'
p3340
(dp3341
sS'1.2.1.24'
p3342
(dp3343
sS'3.2.1.51'
p3344
(dp3345
sS'3.2.1.50'
p3346
(dp3347
sS'3.2.1.52'
p3348
(dp3349
sS'3.6.1.45'
p3350
(dp3351
sS'3.6.1.43'
p3352
(dp3353
sS'2.1.1.114'
p3354
(dp3355
sS'2.4.1.117'
p3356
(dp3357
sS'1.3.3.3'
p3358
(dp3359
S'586'
p3360
(lp3361
F0.0033
aF0.0033
aF0.012500000000000001
aF0.016160000000000001
aF0.026700000000000002
aF0.044999999999999998
aF0.055
aF0.059999999999999998
aF0.059999999999999998
aF0.059999999999999998
aF1.8
aF16
asS'5007'
p3362
(lp3363
F0.0063
asS'21400'
p3364
(lp3365
F0.0016999999999999999
asS'13952'
p3366
(lp3367
F0.0063
asS'3336'
p3368
(lp3369
F0.13170000000000001
asS'25123'
p3370
(lp3371
F6.0000000000000002e-06
asS'25124'
p3372
(lp3373
F0.000165
asS'5437'
p3374
(lp3375
F0.01167
aF0.028299999999999999
aF0.042999999999999997
asS'4426'
p3376
(lp3377
F0.027
asS'21401'
p3378
(lp3379
F0.028299999999999999
asS'9570'
p3380
(lp3381
F0.0063299999999999997
asS'12126'
p3382
(lp3383
F0.0089999999999999993
assS'1.14.13.67'
p3384
(dp3385
sS'2.3.1.39'
p3386
(dp3387
sS'2.3.1.38'
p3388
(dp3389
sS'2.3.1.37'
p3390
(dp3391
sS'1.14.11.8'
p3392
(dp3393
sS'4.2.1.74'
p3394
(dp3395
sS'4.2.1.75'
p3396
(dp3397
S'2043'
p3398
(lp3399
F5.8300000000000001
aF30
aF890
assS'6.3.4.4'
p3400
(dp3401
sS'1.1.1.19'
p3402
(dp3403
sS'1.1.1.14'
p3404
(dp3405
sS'1.1.1.15'
p3406
(dp3407
sS'1.1.1.12'
p3408
(dp3409
sS'1.1.1.10'
p3410
(dp3411
S'603'
p3412
(lp3413
F1.5700000000000001
aF1.6000000000000001
asS'1089'
p3414
(lp3415
F0.42999999999999999
asS'574'
p3416
(lp3417
F0.10000000000000001
asS'940'
p3418
(lp3419
F0.65000000000000002
asS'3'
(lp3420
F3.7999999999999998
asS'405'
p3421
(lp3422
F0.52000000000000002
asS'1469'
p3423
(lp3424
F0.59999999999999998
asS'4'
(lp3425
F1.5
asS'509'
p3426
(lp3427
F0.23000000000000001
asS'5'
(lp3428
F1.5
asS'2071'
p3429
(lp3430
F0.81999999999999995
asS'348'
p3431
(lp3432
F0.59999999999999998
asS'2465'
p3433
(lp3434
F0.47999999999999998
asS'719'
p3435
(lp3436
F0.52000000000000002
asS'6'
(lp3437
F0.65000000000000002
asS'967'
p3438
(lp3439
F0.65000000000000002
asS'2315'
p3440
(lp3441
F0.52000000000000002
assS'2.7.1.82'
p3442
(dp3443
S'381'
p3444
(lp3445
F0.00016000000000000001
assS'1.1.1.1'
p3446
(dp3447
S'2617'
p3448
(lp3449
F0.22
aF1.22
asS'1320'
p3450
(lp3451
F0.46700000000000003
aF8.6699999999999999
asS'626'
p3452
(lp3453
F0.017999999999999999
aF0.55000000000000004
aF1.8300000000000001
asS'688'
p3454
(lp3455
F0.58299999999999996
asS'664'
p3456
(lp3457
F3.3300000000000001
asS'551'
p3458
(lp3459
F0.75
asS'456'
p3460
(lp3461
F0.69999999999999996
aF34.799999999999997
asS'65'
p3462
(lp3463
F0.69999999999999996
aF2.5
aF3.8300000000000001
aF4
aF7.8300000000000001
aF30.699999999999999
asS'874'
p3464
(lp3465
F0.183
aF0.245
aF0.66700000000000004
aF8
aF16
asS'11682'
p3466
(lp3467
F0.087999999999999995
aF2.5
asS'2155'
p3468
(lp3469
F2.9500000000000002
aF3.0299999999999998
aF4
aF0.33300000000000002
asS'4'
(lp3470
F0.71699999999999997
asS'10701'
p3471
(lp3472
F1.8300000000000001
asS'671'
p3473
(lp3474
F0.028000000000000001
aF0.25
aF0.40000000000000002
aF0.90000000000000002
asS'7733'
p3475
(lp3476
F0.091999999999999998
aF2.8300000000000001
aF34.200000000000003
asS'8284'
p3477
(lp3478
F0.68300000000000005
asS'226'
p3479
(lp3480
F4.6699999999999999
aF9.1699999999999999
asS'7784'
p3481
(lp3482
F6.1699999999999999
asS'931'
p3483
(lp3484
F2.8300000000000001
aF4.3300000000000001
aF7.3300000000000001
aF8.3300000000000001
asS'3528'
p3485
(lp3486
F7.5
asS'78'
p3487
(lp3488
F0.10199999999999999
asS'1064'
p3489
(lp3490
F0.75
asS'536'
p3491
(lp3492
F17.199999999999999
asS'1476'
p3493
(lp3494
F2.1699999999999999
asS'2023'
p3495
(lp3496
F2.8300000000000001
asS'921'
p3497
(lp3498
F19.5
asS'7734'
p3499
(lp3500
F0.16700000000000001
aF7.8300000000000001
aF20
assS'1.1.1.2'
p3501
(dp3502
S'3488'
p3503
(lp3504
F0.080000000000000002
asS'1320'
p3505
(lp3506
F0.14799999999999999
asS'679'
p3507
(lp3508
F0.043299999999999998
asS'612'
p3509
(lp3510
F9.5
asS'129'
p3511
(lp3512
F0.028299999999999999
asS'226'
p3513
(lp3514
F0.073300000000000004
asS'1248'
p3515
(lp3516
F0.028299999999999999
assS'1.13.11.31'
p3517
(dp3518
S'11'
p3519
(lp3520
F13.1
asS'253'
p3521
(lp3522
F2.5
aF14
aF17.800000000000001
aF46
aF1.3999999999999999
aF20
assS'1.1.1.8'
p3523
(dp3524
sS'1.1.1.145'
p3525
(dp3526
S'458'
p3527
(lp3528
F11.800000000000001
asS'2616'
p3529
(lp3530
F0.25
asS'5093'
p3531
(lp3532
F2
asS'612'
p3533
(lp3534
F16.699999999999999
asS'594'
p3535
(lp3536
F0.095000000000000001
asS'603'
p3537
(lp3538
F28.300000000000001
asS'25416'
p3539
(lp3540
F0.014
asS'109214'
p3541
(lp3542
F0.040000000000000001
aF0.14000000000000001
asS'1267'
p3543
(lp3544
F2
asS'25414'
p3545
(lp3546
F2
asS'239'
p3547
(lp3548
F0.02
aF0.021000000000000001
aF0.050000000000000003
aF0.055
aF0.055
aF0.055
aF0.059999999999999998
aF0.14000000000000001
aF0.14499999999999999
asS'3536'
p3549
(lp3550
F0.017000000000000001
asS'25413'
p3551
(lp3552
F33.299999999999997
asS'626'
p3553
(lp3554
F0.050000000000000003
asS'6551'
p3555
(lp3556
F33.299999999999997
asS'3213'
p3557
(lp3558
F40.200000000000003
asS'4147'
p3559
(lp3560
F0.070000000000000007
asS'5062'
p3561
(lp3562
F0.84999999999999998
asS'5621'
p3563
(lp3564
F0.017000000000000001
asS'3'
(lp3565
F0.75
aF1.6499999999999999
asS'1253'
p3566
(lp3567
F31.699999999999999
asS'1523'
p3568
(lp3569
F0.083000000000000004
asS'4'
(lp3570
F0.02
aF0.021999999999999999
aF0.050000000000000003
aF0.058000000000000003
aF0.059999999999999998
aF0.070000000000000007
aF0.11
aF0.12
asS'9041'
p3571
(lp3572
F41.700000000000003
asS'1807'
p3573
(lp3574
F0.076999999999999999
asS'25415'
p3575
(lp3576
F0.074999999999999997
asS'1130'
p3577
(lp3578
F0.097000000000000003
asS'25412'
p3579
(lp3580
F3.7000000000000002
asS'3147'
p3581
(lp3582
F0.042999999999999997
asS'1896'
p3583
(lp3584
F0.17999999999999999
asS'3310'
p3585
(lp3586
F0.041000000000000002
asS'4779'
p3587
(lp3588
F0.089999999999999997
asS'823'
p3589
(lp3590
F0.88
asS'212'
p3591
(lp3592
F0.65000000000000002
asS'5743'
p3593
(lp3594
F2.7000000000000002
asS'646'
p3595
(lp3596
F31.699999999999999
asS'2352'
p3597
(lp3598
F16.300000000000001
asS'2062'
p3599
(lp3600
F4.7000000000000002
asS'1458'
p3601
(lp3602
F26.699999999999999
asS'1539'
p3603
(lp3604
F0.063
assS'3.2.1.20'
p3605
(dp3606
sS'3.2.1.21'
p3607
(dp3608
sS'3.2.1.22'
p3609
(dp3610
sS'3.2.1.23'
p3611
(dp3612
sS'3.2.1.24'
p3613
(dp3614
sS'4.2.3.1'
p3615
(dp3616
sS'4.2.3.2'
p3617
(dp3618
sS'4.2.3.3'
p3619
(dp3620
sS'3.2.1.28'
p3621
(dp3622
sS'1.13.11.34'
p3623
(dp3624
sS'1.2.1.21'
p3625
(dp3626
sS'2.8.2.23'
p3627
(dp3628
sS'2.3.2.4'
p3629
(dp3630
sS'2.3.2.2'
p3631
(dp3632
S'93'
p3633
(lp3634
F1150
ass.